ARM GAS  C:\Users\jisu8\AppData\Local\Temp\ccFvmDWJ.s 			page 1


   1              		.cpu cortex-m4
   2              		.arch armv7e-m
   3              		.fpu fpv4-sp-d16
   4              		.eabi_attribute 27, 1
   5              		.eabi_attribute 28, 1
   6              		.eabi_attribute 20, 1
   7              		.eabi_attribute 21, 1
   8              		.eabi_attribute 23, 3
   9              		.eabi_attribute 24, 1
  10              		.eabi_attribute 25, 1
  11              		.eabi_attribute 26, 1
  12              		.eabi_attribute 30, 1
  13              		.eabi_attribute 34, 1
  14              		.eabi_attribute 18, 4
  15              		.file	"debug.c"
  16              		.text
  17              	.Ltext0:
  18              		.cfi_sections	.debug_frame
  19              		.section	.text.Debug_Message_Transmit,"ax",%progbits
  20              		.align	1
  21              		.global	Debug_Message_Transmit
  22              		.syntax unified
  23              		.thumb
  24              		.thumb_func
  26              	Debug_Message_Transmit:
  27              	.LVL0:
  28              	.LFB134:
  29              		.file 1 "Core/Src/debug.c"
   1:Core/Src/debug.c **** #include "debug.h"
   2:Core/Src/debug.c **** #include "uart.h"
   3:Core/Src/debug.c **** #include "lte.h"
   4:Core/Src/debug.c **** 
   5:Core/Src/debug.c **** uint8_t Debug_Rx_buffer[1024];
   6:Core/Src/debug.c **** uint16_t Debug_Rx_Count;
   7:Core/Src/debug.c **** uint8_t debug_dummy;
   8:Core/Src/debug.c **** void Debug_Init(void)
   9:Core/Src/debug.c **** {
  10:Core/Src/debug.c ****     if ( HAL_UART_Receive_IT(&DEBUG_MODULE, &debug_dummy, 1) != HAL_OK)
  11:Core/Src/debug.c **** 	{
  12:Core/Src/debug.c **** 		Error_Handler();
  13:Core/Src/debug.c **** 	}
  14:Core/Src/debug.c ****     Debug_Message_Transmit("\n=======>>Silo Test F/W 20220628_002\n");
  15:Core/Src/debug.c **** }
  16:Core/Src/debug.c **** 
  17:Core/Src/debug.c **** void Debug_Message_Transmit(uint8_t * buf)
  18:Core/Src/debug.c **** {
  30              		.loc 1 18 1 view -0
  31              		.cfi_startproc
  32              		@ args = 0, pretend = 0, frame = 0
  33              		@ frame_needed = 0, uses_anonymous_args = 0
  34              		.loc 1 18 1 is_stmt 0 view .LVU1
  35 0000 10B5     		push	{r4, lr}
  36              	.LCFI0:
  37              		.cfi_def_cfa_offset 8
  38              		.cfi_offset 4, -8
  39              		.cfi_offset 14, -4
  40 0002 0446     		mov	r4, r0
ARM GAS  C:\Users\jisu8\AppData\Local\Temp\ccFvmDWJ.s 			page 2


  19:Core/Src/debug.c ****     HAL_UART_Transmit(&DEBUG_MODULE,buf,strlen(buf),100);
  41              		.loc 1 19 5 is_stmt 1 view .LVU2
  42              		.loc 1 19 41 is_stmt 0 view .LVU3
  43 0004 FFF7FEFF 		bl	strlen
  44              	.LVL1:
  45              		.loc 1 19 5 view .LVU4
  46 0008 6423     		movs	r3, #100
  47 000a 82B2     		uxth	r2, r0
  48 000c 2146     		mov	r1, r4
  49 000e 0248     		ldr	r0, .L3
  50 0010 FFF7FEFF 		bl	HAL_UART_Transmit
  51              	.LVL2:
  20:Core/Src/debug.c **** }
  52              		.loc 1 20 1 view .LVU5
  53 0014 10BD     		pop	{r4, pc}
  54              	.LVL3:
  55              	.L4:
  56              		.loc 1 20 1 view .LVU6
  57 0016 00BF     		.align	2
  58              	.L3:
  59 0018 00000000 		.word	huart3
  60              		.cfi_endproc
  61              	.LFE134:
  63              		.section	.rodata.Debug_Init.str1.4,"aMS",%progbits,1
  64              		.align	2
  65              	.LC0:
  66 0000 0A3D3D3D 		.ascii	"\012=======>>Silo Test F/W 20220628_002\012\000"
  66      3D3D3D3D 
  66      3E3E5369 
  66      6C6F2054 
  66      65737420 
  67              		.section	.text.Debug_Init,"ax",%progbits
  68              		.align	1
  69              		.global	Debug_Init
  70              		.syntax unified
  71              		.thumb
  72              		.thumb_func
  74              	Debug_Init:
  75              	.LFB133:
   9:Core/Src/debug.c ****     if ( HAL_UART_Receive_IT(&DEBUG_MODULE, &debug_dummy, 1) != HAL_OK)
  76              		.loc 1 9 1 is_stmt 1 view -0
  77              		.cfi_startproc
  78              		@ args = 0, pretend = 0, frame = 0
  79              		@ frame_needed = 0, uses_anonymous_args = 0
  80 0000 08B5     		push	{r3, lr}
  81              	.LCFI1:
  82              		.cfi_def_cfa_offset 8
  83              		.cfi_offset 3, -8
  84              		.cfi_offset 14, -4
  10:Core/Src/debug.c **** 	{
  85              		.loc 1 10 5 view .LVU8
  10:Core/Src/debug.c **** 	{
  86              		.loc 1 10 10 is_stmt 0 view .LVU9
  87 0002 0122     		movs	r2, #1
  88 0004 0549     		ldr	r1, .L9
  89 0006 0648     		ldr	r0, .L9+4
  90 0008 FFF7FEFF 		bl	HAL_UART_Receive_IT
ARM GAS  C:\Users\jisu8\AppData\Local\Temp\ccFvmDWJ.s 			page 3


  91              	.LVL4:
  10:Core/Src/debug.c **** 	{
  92              		.loc 1 10 8 view .LVU10
  93 000c 18B9     		cbnz	r0, .L8
  94              	.L6:
  14:Core/Src/debug.c **** }
  95              		.loc 1 14 5 is_stmt 1 view .LVU11
  96 000e 0548     		ldr	r0, .L9+8
  97 0010 FFF7FEFF 		bl	Debug_Message_Transmit
  98              	.LVL5:
  15:Core/Src/debug.c **** 
  99              		.loc 1 15 1 is_stmt 0 view .LVU12
 100 0014 08BD     		pop	{r3, pc}
 101              	.L8:
  12:Core/Src/debug.c **** 	}
 102              		.loc 1 12 3 is_stmt 1 view .LVU13
 103 0016 FFF7FEFF 		bl	Error_Handler
 104              	.LVL6:
 105 001a F8E7     		b	.L6
 106              	.L10:
 107              		.align	2
 108              	.L9:
 109 001c 00000000 		.word	.LANCHOR0
 110 0020 00000000 		.word	huart3
 111 0024 00000000 		.word	.LC0
 112              		.cfi_endproc
 113              	.LFE133:
 115              		.section	.text.Test_Debug,"ax",%progbits
 116              		.align	1
 117              		.global	Test_Debug
 118              		.syntax unified
 119              		.thumb
 120              		.thumb_func
 122              	Test_Debug:
 123              	.LFB135:
  21:Core/Src/debug.c **** 
  22:Core/Src/debug.c **** void Test_Debug(void)
  23:Core/Src/debug.c **** {
 124              		.loc 1 23 1 view -0
 125              		.cfi_startproc
 126              		@ args = 0, pretend = 0, frame = 0
 127              		@ frame_needed = 0, uses_anonymous_args = 0
 128 0000 38B5     		push	{r3, r4, r5, lr}
 129              	.LCFI2:
 130              		.cfi_def_cfa_offset 16
 131              		.cfi_offset 3, -16
 132              		.cfi_offset 4, -12
 133              		.cfi_offset 5, -8
 134              		.cfi_offset 14, -4
  24:Core/Src/debug.c ****     if(Debug_Rx_Count>0)
 135              		.loc 1 24 5 view .LVU15
 136              		.loc 1 24 22 is_stmt 0 view .LVU16
 137 0002 0A4B     		ldr	r3, .L15
 138 0004 1A88     		ldrh	r2, [r3]
 139              		.loc 1 24 7 view .LVU17
 140 0006 02B9     		cbnz	r2, .L14
 141              	.L11:
ARM GAS  C:\Users\jisu8\AppData\Local\Temp\ccFvmDWJ.s 			page 4


  25:Core/Src/debug.c ****     {
  26:Core/Src/debug.c ****         HAL_UART_Transmit(&huart3,Debug_Rx_buffer,Debug_Rx_Count,100);
  27:Core/Src/debug.c ****         HAL_UART_Transmit(&huart1,Debug_Rx_buffer,Debug_Rx_Count,100);
  28:Core/Src/debug.c ****         Debug_Rx_Count = 0;
  29:Core/Src/debug.c ****     }
  30:Core/Src/debug.c ****     #if 0
  31:Core/Src/debug.c ****     if(LTE_Rx_Counter>0)
  32:Core/Src/debug.c ****     {
  33:Core/Src/debug.c ****         HAL_UART_Transmit(&huart3,LTE_Rx_Buffer,LTE_Rx_Counter,100);
  34:Core/Src/debug.c ****         LTE_Rx_Counter = 0;
  35:Core/Src/debug.c ****     }
  36:Core/Src/debug.c ****     #endif
  37:Core/Src/debug.c **** }...
 142              		.loc 1 37 1 view .LVU18
 143 0008 38BD     		pop	{r3, r4, r5, pc}
 144              	.L14:
  26:Core/Src/debug.c ****         HAL_UART_Transmit(&huart3,Debug_Rx_buffer,Debug_Rx_Count,100);
 145              		.loc 1 26 9 is_stmt 1 view .LVU19
 146 000a 094D     		ldr	r5, .L15+4
 147 000c 6423     		movs	r3, #100
 148 000e 2946     		mov	r1, r5
 149 0010 0848     		ldr	r0, .L15+8
 150 0012 FFF7FEFF 		bl	HAL_UART_Transmit
 151              	.LVL7:
  27:Core/Src/debug.c ****         HAL_UART_Transmit(&huart1,Debug_Rx_buffer,Debug_Rx_Count,100);
 152              		.loc 1 27 9 view .LVU20
 153 0016 054C     		ldr	r4, .L15
 154 0018 6423     		movs	r3, #100
 155 001a 2288     		ldrh	r2, [r4]
 156 001c 2946     		mov	r1, r5
 157 001e 0648     		ldr	r0, .L15+12
 158 0020 FFF7FEFF 		bl	HAL_UART_Transmit
 159              	.LVL8:
  28:Core/Src/debug.c ****         Debug_Rx_Count = 0;
 160              		.loc 1 28 9 view .LVU21
  28:Core/Src/debug.c ****         Debug_Rx_Count = 0;
 161              		.loc 1 28 24 is_stmt 0 view .LVU22
 162 0024 0023     		movs	r3, #0
 163 0026 2380     		strh	r3, [r4]	@ movhi
 164              		.loc 1 37 1 view .LVU23
 165 0028 EEE7     		b	.L11
 166              	.L16:
 167 002a 00BF     		.align	2
 168              	.L15:
 169 002c 00000000 		.word	.LANCHOR1
 170 0030 00000000 		.word	.LANCHOR2
 171 0034 00000000 		.word	huart3
 172 0038 00000000 		.word	huart1
 173              		.cfi_endproc
 174              	.LFE135:
 176              		.global	debug_dummy
 177              		.global	Debug_Rx_Count
 178              		.global	Debug_Rx_buffer
 179              		.section	.bss.Debug_Rx_Count,"aw",%nobits
 180              		.align	1
 181              		.set	.LANCHOR1,. + 0
 184              	Debug_Rx_Count:
ARM GAS  C:\Users\jisu8\AppData\Local\Temp\ccFvmDWJ.s 			page 5


 185 0000 0000     		.space	2
 186              		.section	.bss.Debug_Rx_buffer,"aw",%nobits
 187              		.align	2
 188              		.set	.LANCHOR2,. + 0
 191              	Debug_Rx_buffer:
 192 0000 00000000 		.space	1024
 192      00000000 
 192      00000000 
 192      00000000 
 192      00000000 
 193              		.section	.bss.debug_dummy,"aw",%nobits
 194              		.set	.LANCHOR0,. + 0
 197              	debug_dummy:
 198 0000 00       		.space	1
 199              		.text
 200              	.Letext0:
 201              		.file 2 "d:\\3.tools\\arm_gcc_toolchain\\arm-none-eabi\\include\\machine\\_default_types.h"
 202              		.file 3 "d:\\3.tools\\arm_gcc_toolchain\\arm-none-eabi\\include\\sys\\_stdint.h"
 203              		.file 4 "Drivers/CMSIS/Device/ST/STM32F3xx/Include/stm32f303xc.h"
 204              		.file 5 "Drivers/STM32F3xx_HAL_Driver/Inc/stm32f3xx_hal_def.h"
 205              		.file 6 "Drivers/STM32F3xx_HAL_Driver/Inc/stm32f3xx_hal_dma.h"
 206              		.file 7 "Drivers/STM32F3xx_HAL_Driver/Inc/stm32f3xx_hal_uart.h"
 207              		.file 8 "Core/Inc/main.h"
 208              		.file 9 "Core/Inc/debug.h"
 209              		.file 10 "d:\\3.tools\\arm_gcc_toolchain\\arm-none-eabi\\include\\string.h"
ARM GAS  C:\Users\jisu8\AppData\Local\Temp\ccFvmDWJ.s 			page 6

