ARM GAS  C:\Users\jisu8\AppData\Local\Temp\cc49UglZ.s 			page 1


   1              		.cpu cortex-m4
   2              		.arch armv7e-m
   3              		.fpu fpv4-sp-d16
   4              		.eabi_attribute 27, 1
   5              		.eabi_attribute 28, 1
   6              		.eabi_attribute 20, 1
   7              		.eabi_attribute 21, 1
   8              		.eabi_attribute 23, 3
   9              		.eabi_attribute 24, 1
  10              		.eabi_attribute 25, 1
  11              		.eabi_attribute 26, 1
  12              		.eabi_attribute 30, 1
  13              		.eabi_attribute 34, 1
  14              		.eabi_attribute 18, 4
  15              		.file	"lte.c"
  16              		.text
  17              	.Ltext0:
  18              		.cfi_sections	.debug_frame
  19              		.section	.text.LTE_Delay,"ax",%progbits
  20              		.align	1
  21              		.syntax unified
  22              		.thumb
  23              		.thumb_func
  25              	LTE_Delay:
  26              	.LVL0:
  27              	.LFB140:
  28              		.file 1 "Core/Src/lte.c"
   1:Core/Src/lte.c **** #include "lte.h"
   2:Core/Src/lte.c **** #include "dht11.h"
   3:Core/Src/lte.c **** #include "lidar.h"
   4:Core/Src/lte.c **** #include "device.h"
   5:Core/Src/lte.c **** 
   6:Core/Src/lte.c **** uint8_t LTE_Rx_Buffer[LTE_RX_BUFFER_SIZE];
   7:Core/Src/lte.c **** uint8_t LTE_ASCII_Buffer[LTE_RX_BUFFER_SIZE/2];
   8:Core/Src/lte.c **** uint8_t LTE_GPS_Buffer[100];
   9:Core/Src/lte.c **** uint16_t LTE_Rx_Counter;
  10:Core/Src/lte.c **** uint8_t dummy_lte;
  11:Core/Src/lte.c **** 
  12:Core/Src/lte.c **** uint8_t LTE_Status;
  13:Core/Src/lte.c **** uint8_t LTE_GPS_Status;// = LTE_GPS_STEP_FINISH;
  14:Core/Src/lte.c **** uint8_t LTE_ID[] = "SN_FM4_TEST_002";
  15:Core/Src/lte.c **** uint16_t LTE_TEMP_I,LTE_TEMP_D,LTE_HUMI_I,LTE_HUMI_D,LTE_DIST_I,LTE_DIST_D;
  16:Core/Src/lte.c **** uint16_t LTE_CHAR_I,LTE_CHAR_D;
  17:Core/Src/lte.c **** uint16_t LTE_GPS_LAT_I,LTE_GPS_LONG_I;
  18:Core/Src/lte.c **** uint32_t LTE_GPS_LAT_D,LTE_GPS_LONG_D;
  19:Core/Src/lte.c **** uint8_t LTE_DOOR;
  20:Core/Src/lte.c **** 
  21:Core/Src/lte.c **** static void LTE_Transmit(uint8_t * buf);
  22:Core/Src/lte.c **** static uint8_t LTE_OK_Check(void);
  23:Core/Src/lte.c **** static uint8_t LTE_Delay(uint16_t time);
  24:Core/Src/lte.c **** static uint8_t LTE_Receive_Check(uint8_t status);
  25:Core/Src/lte.c **** static void LTE_MQTT_Convert_Buffer(uint8_t *buf);
  26:Core/Src/lte.c **** static uint8_t LTE_GPS_Receive_Data(uint8_t status);
  27:Core/Src/lte.c **** static void LTE_Update_Data(void);
  28:Core/Src/lte.c **** static void LTE_Connect(void);
  29:Core/Src/lte.c **** static void LTE_GPS_Connect(void);
  30:Core/Src/lte.c **** static uint8_t LTE_GPS_Update_Data(uint8_t status);
ARM GAS  C:\Users\jisu8\AppData\Local\Temp\cc49UglZ.s 			page 2


  31:Core/Src/lte.c **** 
  32:Core/Src/lte.c **** void LTE_Init(void)
  33:Core/Src/lte.c **** {
  34:Core/Src/lte.c ****     if ( HAL_UART_Receive_IT(&huart1, &dummy_lte, 1) != HAL_OK)
  35:Core/Src/lte.c ****     {
  36:Core/Src/lte.c ****         Error_Handler();
  37:Core/Src/lte.c ****     }
  38:Core/Src/lte.c ****     
  39:Core/Src/lte.c **** 	//SARA Power On
  40:Core/Src/lte.c **** 	HAL_GPIO_WritePin(POWER_KEY_GPIO_Port, POWER_KEY_Pin, GPIO_PIN_RESET);
  41:Core/Src/lte.c ****     HAL_Delay(1500);
  42:Core/Src/lte.c **** 	//SARA Reset Off
  43:Core/Src/lte.c **** 	HAL_GPIO_WritePin(RESET_ONOFF_GPIO_Port, RESET_ONOFF_Pin, GPIO_PIN_RESET);
  44:Core/Src/lte.c **** }
  45:Core/Src/lte.c **** 
  46:Core/Src/lte.c **** void LTE_Control(void)
  47:Core/Src/lte.c **** {
  48:Core/Src/lte.c ****     LTE_Update_Data();
  49:Core/Src/lte.c ****     if(LTE_GPS_STEP_FINISH == LTE_GPS_Status)
  50:Core/Src/lte.c ****     {
  51:Core/Src/lte.c ****         LTE_Connect();
  52:Core/Src/lte.c ****     }
  53:Core/Src/lte.c ****     else
  54:Core/Src/lte.c ****     {
  55:Core/Src/lte.c ****         LTE_GPS_Connect();
  56:Core/Src/lte.c ****     }
  57:Core/Src/lte.c **** }
  58:Core/Src/lte.c **** 
  59:Core/Src/lte.c **** static void LTE_Update_Data(void)
  60:Core/Src/lte.c **** {
  61:Core/Src/lte.c ****     DHT_Data_t data;
  62:Core/Src/lte.c ****     data = DHT_getData(DHT22);
  63:Core/Src/lte.c ****     if(data.Temperature<0)
  64:Core/Src/lte.c ****     {
  65:Core/Src/lte.c ****         LTE_TEMP_I = (uint16_t)(data.Temperature * -1);
  66:Core/Src/lte.c ****         LTE_TEMP_D = ((uint16_t)((data.Temperature * -1) * 100))%100;        
  67:Core/Src/lte.c ****     }
  68:Core/Src/lte.c ****     else
  69:Core/Src/lte.c ****     {
  70:Core/Src/lte.c ****         LTE_TEMP_I = (uint16_t)data.Temperature;
  71:Core/Src/lte.c ****         LTE_TEMP_D = ((uint16_t)(data.Temperature * 100))%100;
  72:Core/Src/lte.c ****     }
  73:Core/Src/lte.c **** 
  74:Core/Src/lte.c ****     LTE_HUMI_I = (uint16_t)data.Humidity;
  75:Core/Src/lte.c ****     LTE_HUMI_D = ((uint16_t)(data.Humidity * 100))%100;
  76:Core/Src/lte.c ****     LTE_DIST_I = Lidar_Distance;
  77:Core/Src/lte.c ****     LTE_CHAR_I = (Device_Batt_Voltage)/1000;
  78:Core/Src/lte.c ****     LTE_CHAR_D = (Device_Batt_Voltage/10)%100;
  79:Core/Src/lte.c ****     LTE_DOOR = Device_Sensor_Signal;
  80:Core/Src/lte.c ****     
  81:Core/Src/lte.c ****     if(data.Temperature<0)
  82:Core/Src/lte.c ****     {
  83:Core/Src/lte.c ****         sprintf(LTE_ASCII_Buffer,"{\"_ID\":\"%s\",\"_TEMP\":\"-%d.%02d\",\"_HUMI\":\"%d.%02d\",\"_D
  84:Core/Src/lte.c ****             LTE_ID,LTE_TEMP_I,LTE_TEMP_D,LTE_HUMI_I,LTE_HUMI_D,LTE_DIST_I,LTE_DIST_D,LTE_CHAR_I,LTE
  85:Core/Src/lte.c ****     }
  86:Core/Src/lte.c ****     else
  87:Core/Src/lte.c ****     {
ARM GAS  C:\Users\jisu8\AppData\Local\Temp\cc49UglZ.s 			page 3


  88:Core/Src/lte.c ****         sprintf(LTE_ASCII_Buffer,"{\"_ID\":\"%s\",\"_TEMP\":\"%d.%02d\",\"_HUMI\":\"%d.%02d\",\"_DI
  89:Core/Src/lte.c ****             LTE_ID,LTE_TEMP_I,LTE_TEMP_D,LTE_HUMI_I,LTE_HUMI_D,LTE_DIST_I,LTE_DIST_D,LTE_CHAR_I,LTE
  90:Core/Src/lte.c ****     }
  91:Core/Src/lte.c ****     
  92:Core/Src/lte.c **** }
  93:Core/Src/lte.c **** 
  94:Core/Src/lte.c **** static void LTE_Connect(void)
  95:Core/Src/lte.c **** {
  96:Core/Src/lte.c ****     char Tx_Buf[1024] = {0,};
  97:Core/Src/lte.c ****     static LTE_Status_t stDelay;
  98:Core/Src/lte.c ****     static uint8_t uart_status;
  99:Core/Src/lte.c **** 
 100:Core/Src/lte.c ****     switch(LTE_Status)
 101:Core/Src/lte.c ****     {
 102:Core/Src/lte.c ****         case LTE_STEP_ATE0 :
 103:Core/Src/lte.c ****             if(LTE_UART_STATUS_TRANSMIT == uart_status)
 104:Core/Src/lte.c ****             {
 105:Core/Src/lte.c ****                 sprintf(Tx_Buf,"ATE0\r\n");
 106:Core/Src/lte.c ****                 LTE_Transmit(Tx_Buf);
 107:Core/Src/lte.c ****                 uart_status = LTE_UART_STATUS_RECEIVE;
 108:Core/Src/lte.c ****             }
 109:Core/Src/lte.c ****             if(LTE_UART_STATUS_RECEIVE == uart_status)
 110:Core/Src/lte.c ****             {
 111:Core/Src/lte.c ****                 if(OK == stDelay)
 112:Core/Src/lte.c ****                 {
 113:Core/Src/lte.c ****                     LTE_Status = LTE_Receive_Check(LTE_STEP_ATE0);
 114:Core/Src/lte.c ****                     stDelay = FAIL;
 115:Core/Src/lte.c ****                     uart_status = LTE_UART_STATUS_TRANSMIT;
 116:Core/Src/lte.c ****                 }
 117:Core/Src/lte.c ****                 else
 118:Core/Src/lte.c ****                 {
 119:Core/Src/lte.c ****                     stDelay = LTE_Delay(100);
 120:Core/Src/lte.c ****                 }
 121:Core/Src/lte.c ****             }
 122:Core/Src/lte.c ****         break;
 123:Core/Src/lte.c ****         case LTE_STEP_CMEE : 
 124:Core/Src/lte.c ****             if(LTE_UART_STATUS_TRANSMIT == uart_status)
 125:Core/Src/lte.c ****             {
 126:Core/Src/lte.c ****                 sprintf(Tx_Buf,"AT+CMEE=2\r\n");
 127:Core/Src/lte.c ****                 LTE_Transmit(Tx_Buf);
 128:Core/Src/lte.c ****                 uart_status = LTE_UART_STATUS_RECEIVE;
 129:Core/Src/lte.c ****             }
 130:Core/Src/lte.c ****             if(LTE_UART_STATUS_RECEIVE == uart_status)
 131:Core/Src/lte.c ****             {
 132:Core/Src/lte.c ****                 if(OK == stDelay)
 133:Core/Src/lte.c ****                 {
 134:Core/Src/lte.c ****                     LTE_Status = LTE_Receive_Check(LTE_STEP_CMEE);
 135:Core/Src/lte.c ****                     stDelay = FAIL;
 136:Core/Src/lte.c ****                     uart_status = LTE_UART_STATUS_TRANSMIT;
 137:Core/Src/lte.c ****                 }
 138:Core/Src/lte.c ****                 else
 139:Core/Src/lte.c ****                 {
 140:Core/Src/lte.c ****                     stDelay = LTE_Delay(100);
 141:Core/Src/lte.c ****                 }
 142:Core/Src/lte.c ****             }
 143:Core/Src/lte.c ****         break;
 144:Core/Src/lte.c ****         case LTE_STEP_CFUN_DISABLE :
ARM GAS  C:\Users\jisu8\AppData\Local\Temp\cc49UglZ.s 			page 4


 145:Core/Src/lte.c ****             if(LTE_UART_STATUS_TRANSMIT == uart_status)
 146:Core/Src/lte.c ****             {
 147:Core/Src/lte.c ****                 sprintf(Tx_Buf,"AT+CFUN=0\r\n");
 148:Core/Src/lte.c ****                 LTE_Transmit(Tx_Buf);
 149:Core/Src/lte.c ****                 uart_status = LTE_UART_STATUS_RECEIVE;
 150:Core/Src/lte.c ****             }
 151:Core/Src/lte.c ****             if(LTE_UART_STATUS_RECEIVE == uart_status)
 152:Core/Src/lte.c ****             {
 153:Core/Src/lte.c ****                 if(OK == stDelay)
 154:Core/Src/lte.c ****                 {
 155:Core/Src/lte.c ****                     LTE_Status = LTE_Receive_Check(LTE_STEP_CFUN_DISABLE);
 156:Core/Src/lte.c ****                     stDelay = FAIL;
 157:Core/Src/lte.c ****                     uart_status = LTE_UART_STATUS_TRANSMIT;
 158:Core/Src/lte.c ****                 }
 159:Core/Src/lte.c ****                 else
 160:Core/Src/lte.c ****                 {
 161:Core/Src/lte.c ****                     stDelay = LTE_Delay(3000);
 162:Core/Src/lte.c ****                 }
 163:Core/Src/lte.c ****             }        
 164:Core/Src/lte.c ****         break;
 165:Core/Src/lte.c ****         case LTE_STEP_APN :
 166:Core/Src/lte.c ****             if(LTE_UART_STATUS_TRANSMIT == uart_status)
 167:Core/Src/lte.c ****             {
 168:Core/Src/lte.c ****                 sprintf(Tx_Buf,"AT+CGDCONT=1,\"IP\",\"tsudp\"\r\n");
 169:Core/Src/lte.c ****                 LTE_Transmit(Tx_Buf);
 170:Core/Src/lte.c ****                 uart_status = LTE_UART_STATUS_RECEIVE;
 171:Core/Src/lte.c ****             }
 172:Core/Src/lte.c ****             if(LTE_UART_STATUS_RECEIVE == uart_status)
 173:Core/Src/lte.c ****             {
 174:Core/Src/lte.c ****                 if(OK == stDelay)
 175:Core/Src/lte.c ****                 {
 176:Core/Src/lte.c ****                     LTE_Status = LTE_Receive_Check(LTE_STEP_APN);
 177:Core/Src/lte.c ****                     stDelay = FAIL;
 178:Core/Src/lte.c ****                     uart_status = LTE_UART_STATUS_TRANSMIT;
 179:Core/Src/lte.c ****                 }
 180:Core/Src/lte.c ****                 else
 181:Core/Src/lte.c ****                 {
 182:Core/Src/lte.c ****                     stDelay = LTE_Delay(500);
 183:Core/Src/lte.c ****                 }
 184:Core/Src/lte.c ****             }
 185:Core/Src/lte.c ****         break;   
 186:Core/Src/lte.c ****         case LTE_STEP_CFUN_ENABLE :
 187:Core/Src/lte.c ****             if(LTE_UART_STATUS_TRANSMIT == uart_status)
 188:Core/Src/lte.c ****             {
 189:Core/Src/lte.c ****                 sprintf(Tx_Buf,"AT+CFUN=1\r\n");
 190:Core/Src/lte.c ****                 LTE_Transmit(Tx_Buf);
 191:Core/Src/lte.c ****                 uart_status = LTE_UART_STATUS_RECEIVE;
 192:Core/Src/lte.c ****             }
 193:Core/Src/lte.c ****             if(LTE_UART_STATUS_RECEIVE == uart_status)
 194:Core/Src/lte.c ****             {   
 195:Core/Src/lte.c ****                 if(OK == stDelay)
 196:Core/Src/lte.c ****                 {
 197:Core/Src/lte.c ****                     LTE_Status = LTE_Receive_Check(LTE_STEP_CFUN_ENABLE);
 198:Core/Src/lte.c ****                     stDelay = FAIL;
 199:Core/Src/lte.c ****                     uart_status = LTE_UART_STATUS_TRANSMIT;
 200:Core/Src/lte.c ****                 }
 201:Core/Src/lte.c ****                 else
ARM GAS  C:\Users\jisu8\AppData\Local\Temp\cc49UglZ.s 			page 5


 202:Core/Src/lte.c ****                 {
 203:Core/Src/lte.c ****                     stDelay = LTE_Delay(3000);
 204:Core/Src/lte.c ****                 }
 205:Core/Src/lte.c ****             }
 206:Core/Src/lte.c ****         break;
 207:Core/Src/lte.c ****         case LTE_STEP_CESQ :
 208:Core/Src/lte.c ****             if(LTE_UART_STATUS_TRANSMIT == uart_status)
 209:Core/Src/lte.c ****             {
 210:Core/Src/lte.c ****                 sprintf(Tx_Buf,"AT+CESQ\r\n");
 211:Core/Src/lte.c ****                 LTE_Transmit(Tx_Buf);
 212:Core/Src/lte.c ****                 uart_status = LTE_UART_STATUS_RECEIVE;
 213:Core/Src/lte.c ****             }
 214:Core/Src/lte.c ****             if(LTE_UART_STATUS_RECEIVE == uart_status)
 215:Core/Src/lte.c ****             {                
 216:Core/Src/lte.c ****                 if(OK == stDelay)
 217:Core/Src/lte.c ****                 {
 218:Core/Src/lte.c ****                     LTE_Status = LTE_Receive_Check(LTE_STEP_CESQ);
 219:Core/Src/lte.c ****                     stDelay = FAIL;
 220:Core/Src/lte.c ****                     uart_status = LTE_UART_STATUS_TRANSMIT;
 221:Core/Src/lte.c ****                 }
 222:Core/Src/lte.c ****                 else
 223:Core/Src/lte.c ****                 {
 224:Core/Src/lte.c ****                     stDelay = LTE_Delay(100);
 225:Core/Src/lte.c ****                 }
 226:Core/Src/lte.c ****             }
 227:Core/Src/lte.c ****         break;
 228:Core/Src/lte.c ****         case LTE_STEP_CEREG :
 229:Core/Src/lte.c ****             if(LTE_UART_STATUS_TRANSMIT == uart_status)
 230:Core/Src/lte.c ****             {
 231:Core/Src/lte.c ****                 sprintf(Tx_Buf,"AT+CEREG=2\r\n");
 232:Core/Src/lte.c ****                 LTE_Transmit(Tx_Buf);
 233:Core/Src/lte.c ****                 uart_status = LTE_UART_STATUS_RECEIVE;
 234:Core/Src/lte.c ****             }
 235:Core/Src/lte.c ****             if(LTE_UART_STATUS_RECEIVE == uart_status)
 236:Core/Src/lte.c ****             {
 237:Core/Src/lte.c ****                 if(OK == stDelay)
 238:Core/Src/lte.c ****                 {
 239:Core/Src/lte.c ****                     LTE_Status = LTE_Receive_Check(LTE_STEP_CEREG);
 240:Core/Src/lte.c ****                     stDelay = FAIL;
 241:Core/Src/lte.c ****                     uart_status = LTE_UART_STATUS_TRANSMIT;
 242:Core/Src/lte.c ****                 }
 243:Core/Src/lte.c ****                 else
 244:Core/Src/lte.c ****                 {
 245:Core/Src/lte.c ****                     stDelay = LTE_Delay(100);
 246:Core/Src/lte.c ****                 }
 247:Core/Src/lte.c ****             }
 248:Core/Src/lte.c ****         break;
 249:Core/Src/lte.c ****         case LTE_STEP_UPSD_MAP :
 250:Core/Src/lte.c ****             if(LTE_UART_STATUS_TRANSMIT == uart_status)
 251:Core/Src/lte.c ****             {
 252:Core/Src/lte.c ****                 sprintf(Tx_Buf,"AT+UPSD=0,100,1\r\n");
 253:Core/Src/lte.c ****                 LTE_Transmit(Tx_Buf);
 254:Core/Src/lte.c ****                 uart_status = LTE_UART_STATUS_RECEIVE;
 255:Core/Src/lte.c ****             }
 256:Core/Src/lte.c ****             if(LTE_UART_STATUS_RECEIVE == uart_status)
 257:Core/Src/lte.c ****             {                
 258:Core/Src/lte.c ****                 if(OK == stDelay)
ARM GAS  C:\Users\jisu8\AppData\Local\Temp\cc49UglZ.s 			page 6


 259:Core/Src/lte.c ****                 {
 260:Core/Src/lte.c ****                     LTE_Status = LTE_Receive_Check(LTE_STEP_UPSD_MAP);
 261:Core/Src/lte.c ****                     stDelay = FAIL;
 262:Core/Src/lte.c ****                     uart_status = LTE_UART_STATUS_TRANSMIT;
 263:Core/Src/lte.c ****                 }
 264:Core/Src/lte.c ****                 else
 265:Core/Src/lte.c ****                 {
 266:Core/Src/lte.c ****                     stDelay = LTE_Delay(1000);
 267:Core/Src/lte.c ****                 }
 268:Core/Src/lte.c ****             }
 269:Core/Src/lte.c ****         break;
 270:Core/Src/lte.c ****         case LTE_STEP_UPSD_IPV4 :
 271:Core/Src/lte.c ****             if(LTE_UART_STATUS_TRANSMIT == uart_status)
 272:Core/Src/lte.c ****             {
 273:Core/Src/lte.c ****                 sprintf(Tx_Buf,"AT+UPSD=0,0,0\r\n");
 274:Core/Src/lte.c ****                 LTE_Transmit(Tx_Buf);
 275:Core/Src/lte.c ****                 uart_status = LTE_UART_STATUS_RECEIVE;
 276:Core/Src/lte.c ****             }
 277:Core/Src/lte.c ****             if(LTE_UART_STATUS_RECEIVE == uart_status)
 278:Core/Src/lte.c ****             {                
 279:Core/Src/lte.c ****                 if(OK == stDelay)
 280:Core/Src/lte.c ****                 {
 281:Core/Src/lte.c ****                     LTE_Status = LTE_Receive_Check(LTE_STEP_UPSD_IPV4);
 282:Core/Src/lte.c ****                     stDelay = FAIL;
 283:Core/Src/lte.c ****                     uart_status = LTE_UART_STATUS_TRANSMIT;
 284:Core/Src/lte.c ****                 }
 285:Core/Src/lte.c ****                 else
 286:Core/Src/lte.c ****                 {
 287:Core/Src/lte.c ****                     stDelay = LTE_Delay(1000);
 288:Core/Src/lte.c ****                 }
 289:Core/Src/lte.c ****             }
 290:Core/Src/lte.c ****         break;
 291:Core/Src/lte.c ****         case LTE_STEP_UPSDA :           
 292:Core/Src/lte.c ****             if(LTE_UART_STATUS_TRANSMIT == uart_status)
 293:Core/Src/lte.c ****             {
 294:Core/Src/lte.c ****                 sprintf(Tx_Buf,"AT+UPSDA=0,3\r\n");
 295:Core/Src/lte.c ****                 LTE_Transmit(Tx_Buf);
 296:Core/Src/lte.c ****                 uart_status = LTE_UART_STATUS_RECEIVE;
 297:Core/Src/lte.c ****             }
 298:Core/Src/lte.c ****             if(LTE_UART_STATUS_RECEIVE == uart_status)
 299:Core/Src/lte.c ****             {                
 300:Core/Src/lte.c ****                 if(OK == stDelay)
 301:Core/Src/lte.c ****                 {
 302:Core/Src/lte.c ****                     LTE_Status = LTE_Receive_Check(LTE_STEP_UPSDA);
 303:Core/Src/lte.c ****                     stDelay = FAIL;
 304:Core/Src/lte.c ****                     uart_status = LTE_UART_STATUS_TRANSMIT;
 305:Core/Src/lte.c ****                 }
 306:Core/Src/lte.c ****                 else
 307:Core/Src/lte.c ****                 {
 308:Core/Src/lte.c ****                     stDelay = LTE_Delay(8000);
 309:Core/Src/lte.c ****                 }
 310:Core/Src/lte.c ****             }
 311:Core/Src/lte.c ****         break;
 312:Core/Src/lte.c ****         case LTE_STEP_UPSND :           
 313:Core/Src/lte.c ****             if(LTE_UART_STATUS_TRANSMIT == uart_status)
 314:Core/Src/lte.c ****             {
 315:Core/Src/lte.c ****                 sprintf(Tx_Buf,"AT+UPSND=0,0\r\n");
ARM GAS  C:\Users\jisu8\AppData\Local\Temp\cc49UglZ.s 			page 7


 316:Core/Src/lte.c ****                 LTE_Transmit(Tx_Buf);
 317:Core/Src/lte.c ****                 uart_status = LTE_UART_STATUS_RECEIVE;
 318:Core/Src/lte.c ****             }
 319:Core/Src/lte.c ****             if(LTE_UART_STATUS_RECEIVE == uart_status)
 320:Core/Src/lte.c ****             {                
 321:Core/Src/lte.c ****                 if(OK == stDelay)
 322:Core/Src/lte.c ****                 {
 323:Core/Src/lte.c ****                     LTE_Status = LTE_Receive_Check(LTE_STEP_UPSND);
 324:Core/Src/lte.c ****                     stDelay = FAIL;
 325:Core/Src/lte.c ****                     uart_status = LTE_UART_STATUS_TRANSMIT;
 326:Core/Src/lte.c ****                 }
 327:Core/Src/lte.c ****                 else
 328:Core/Src/lte.c ****                 {
 329:Core/Src/lte.c ****                     stDelay = LTE_Delay(1000);
 330:Core/Src/lte.c ****                 }
 331:Core/Src/lte.c ****             }
 332:Core/Src/lte.c ****         break;
 333:Core/Src/lte.c ****         case LTE_STEP_MQTT_IP_SET :           
 334:Core/Src/lte.c ****             if(LTE_UART_STATUS_TRANSMIT == uart_status)
 335:Core/Src/lte.c ****             {
 336:Core/Src/lte.c ****                 sprintf(Tx_Buf,"AT+UMQTTSN=2,\"10.7.0.55\",2442\r\n");
 337:Core/Src/lte.c ****                 LTE_Transmit(Tx_Buf);
 338:Core/Src/lte.c ****                 uart_status = LTE_UART_STATUS_RECEIVE;
 339:Core/Src/lte.c ****             }
 340:Core/Src/lte.c ****             if(LTE_UART_STATUS_RECEIVE == uart_status)
 341:Core/Src/lte.c ****             {                
 342:Core/Src/lte.c ****                 if(OK == stDelay)
 343:Core/Src/lte.c ****                 {
 344:Core/Src/lte.c ****                     LTE_Status = LTE_Receive_Check(LTE_STEP_MQTT_IP_SET);
 345:Core/Src/lte.c ****                     stDelay = FAIL;
 346:Core/Src/lte.c ****                     uart_status = LTE_UART_STATUS_TRANSMIT;
 347:Core/Src/lte.c ****                 }
 348:Core/Src/lte.c ****                 else
 349:Core/Src/lte.c ****                 {
 350:Core/Src/lte.c ****                     stDelay = LTE_Delay(50);
 351:Core/Src/lte.c ****                 }
 352:Core/Src/lte.c ****             }
 353:Core/Src/lte.c ****         break;
 354:Core/Src/lte.c ****         case LTE_STEP_MQTT_DURATION :           
 355:Core/Src/lte.c ****             if(LTE_UART_STATUS_TRANSMIT == uart_status)
 356:Core/Src/lte.c ****             {
 357:Core/Src/lte.c ****                 sprintf(Tx_Buf,"AT+UMQTTSN=8,600\r\n");
 358:Core/Src/lte.c ****                 LTE_Transmit(Tx_Buf);
 359:Core/Src/lte.c ****                 uart_status = LTE_UART_STATUS_RECEIVE;
 360:Core/Src/lte.c ****             }
 361:Core/Src/lte.c ****             if(LTE_UART_STATUS_RECEIVE == uart_status)
 362:Core/Src/lte.c ****             {                
 363:Core/Src/lte.c ****                 if(OK == stDelay)
 364:Core/Src/lte.c ****                 {
 365:Core/Src/lte.c ****                     LTE_Status = LTE_Receive_Check(LTE_STEP_MQTT_DURATION);
 366:Core/Src/lte.c ****                     stDelay = FAIL;
 367:Core/Src/lte.c ****                     uart_status = LTE_UART_STATUS_TRANSMIT;
 368:Core/Src/lte.c ****                 }
 369:Core/Src/lte.c ****                 else
 370:Core/Src/lte.c ****                 {
 371:Core/Src/lte.c ****                     stDelay = LTE_Delay(50);
 372:Core/Src/lte.c ****                 }
ARM GAS  C:\Users\jisu8\AppData\Local\Temp\cc49UglZ.s 			page 8


 373:Core/Src/lte.c ****             }
 374:Core/Src/lte.c ****         break;
 375:Core/Src/lte.c ****         case LTE_STEP_MQTT_SNNV :           
 376:Core/Src/lte.c ****             if(LTE_UART_STATUS_TRANSMIT == uart_status)
 377:Core/Src/lte.c ****             {
 378:Core/Src/lte.c ****                 sprintf(Tx_Buf,"AT+UMQTTSNNV=2\r\n");
 379:Core/Src/lte.c ****                 LTE_Transmit(Tx_Buf);
 380:Core/Src/lte.c ****                 uart_status = LTE_UART_STATUS_RECEIVE;
 381:Core/Src/lte.c ****             }
 382:Core/Src/lte.c ****             if(LTE_UART_STATUS_RECEIVE == uart_status)
 383:Core/Src/lte.c ****             {                
 384:Core/Src/lte.c ****                 if(OK == stDelay)
 385:Core/Src/lte.c ****                 {
 386:Core/Src/lte.c ****                     LTE_Status = LTE_Receive_Check(LTE_STEP_MQTT_SNNV);
 387:Core/Src/lte.c ****                     stDelay = FAIL;
 388:Core/Src/lte.c ****                     uart_status = LTE_UART_STATUS_TRANSMIT;
 389:Core/Src/lte.c ****                 }
 390:Core/Src/lte.c ****                 else
 391:Core/Src/lte.c ****                 {
 392:Core/Src/lte.c ****                     stDelay = LTE_Delay(2000);
 393:Core/Src/lte.c ****                 }
 394:Core/Src/lte.c ****             }
 395:Core/Src/lte.c ****         break;
 396:Core/Src/lte.c ****         case LTE_STEP_MQTT_CONNECT :           
 397:Core/Src/lte.c ****             if(LTE_UART_STATUS_TRANSMIT == uart_status)
 398:Core/Src/lte.c ****             {
 399:Core/Src/lte.c ****                 sprintf(Tx_Buf,"AT+UMQTTSNC=1\r\n");
 400:Core/Src/lte.c ****                 LTE_Transmit(Tx_Buf);
 401:Core/Src/lte.c ****                 uart_status = LTE_UART_STATUS_RECEIVE;
 402:Core/Src/lte.c ****             }
 403:Core/Src/lte.c ****             if(LTE_UART_STATUS_RECEIVE == uart_status)
 404:Core/Src/lte.c ****             {               
 405:Core/Src/lte.c ****                 if(OK == stDelay)
 406:Core/Src/lte.c ****                 {
 407:Core/Src/lte.c ****                     LTE_Status = LTE_Receive_Check(LTE_STEP_MQTT_CONNECT);
 408:Core/Src/lte.c ****                     stDelay = FAIL;
 409:Core/Src/lte.c ****                     uart_status = LTE_UART_STATUS_TRANSMIT;
 410:Core/Src/lte.c ****                 }
 411:Core/Src/lte.c ****                 else
 412:Core/Src/lte.c ****                 {
 413:Core/Src/lte.c ****                     stDelay = LTE_Delay(2000);
 414:Core/Src/lte.c ****                 }
 415:Core/Src/lte.c ****             }
 416:Core/Src/lte.c ****         break;
 417:Core/Src/lte.c ****         case LTE_STEP_MQTT_REGISTER :           
 418:Core/Src/lte.c ****             if(LTE_UART_STATUS_TRANSMIT == uart_status)
 419:Core/Src/lte.c ****             {
 420:Core/Src/lte.c ****                 sprintf(Tx_Buf,"AT+UMQTTSNC=2,\"mqtt_test\"\r\n");
 421:Core/Src/lte.c ****                 LTE_Transmit(Tx_Buf);
 422:Core/Src/lte.c ****                 uart_status = LTE_UART_STATUS_RECEIVE;
 423:Core/Src/lte.c ****             }
 424:Core/Src/lte.c ****             if(LTE_UART_STATUS_RECEIVE == uart_status)
 425:Core/Src/lte.c ****             {                
 426:Core/Src/lte.c ****                 if(OK == stDelay)
 427:Core/Src/lte.c ****                 {
 428:Core/Src/lte.c ****                     LTE_Status = LTE_Receive_Check(LTE_STEP_MQTT_REGISTER);
 429:Core/Src/lte.c ****                     stDelay = FAIL;
ARM GAS  C:\Users\jisu8\AppData\Local\Temp\cc49UglZ.s 			page 9


 430:Core/Src/lte.c ****                     uart_status = LTE_UART_STATUS_TRANSMIT;
 431:Core/Src/lte.c ****                 }
 432:Core/Src/lte.c ****                 else
 433:Core/Src/lte.c ****                 {
 434:Core/Src/lte.c ****                     stDelay = LTE_Delay(2000);
 435:Core/Src/lte.c ****                 }
 436:Core/Src/lte.c ****             }
 437:Core/Src/lte.c ****         break;
 438:Core/Src/lte.c ****         case LTE_STEP_MQTT_SUBSCRIBE :           
 439:Core/Src/lte.c ****             if(LTE_UART_STATUS_TRANSMIT == uart_status)
 440:Core/Src/lte.c ****             {
 441:Core/Src/lte.c ****                 sprintf(Tx_Buf,"AT+UMQTTSNC=5,1,0,\"mqtt_test\"\r\n");
 442:Core/Src/lte.c ****                 LTE_Transmit(Tx_Buf);
 443:Core/Src/lte.c ****                 uart_status = LTE_UART_STATUS_RECEIVE;
 444:Core/Src/lte.c ****             }
 445:Core/Src/lte.c ****             if(LTE_UART_STATUS_RECEIVE == uart_status)
 446:Core/Src/lte.c ****             {                
 447:Core/Src/lte.c ****                 if(OK == stDelay)
 448:Core/Src/lte.c ****                 {
 449:Core/Src/lte.c ****                     LTE_Status = LTE_Receive_Check(LTE_STEP_MQTT_SUBSCRIBE);
 450:Core/Src/lte.c ****                     stDelay = FAIL;
 451:Core/Src/lte.c ****                     uart_status = LTE_UART_STATUS_TRANSMIT;
 452:Core/Src/lte.c ****                 }
 453:Core/Src/lte.c ****                 else
 454:Core/Src/lte.c ****                 {
 455:Core/Src/lte.c ****                     stDelay = LTE_Delay(2000);
 456:Core/Src/lte.c ****                 }
 457:Core/Src/lte.c ****             }
 458:Core/Src/lte.c ****         break;
 459:Core/Src/lte.c ****         case LTE_STEP_MQTT_PUBLISH :           
 460:Core/Src/lte.c ****             if(LTE_UART_STATUS_TRANSMIT == uart_status)
 461:Core/Src/lte.c ****             {
 462:Core/Src/lte.c ****                 LTE_MQTT_Convert_Buffer(Tx_Buf);
 463:Core/Src/lte.c ****                 LTE_Transmit(Tx_Buf);
 464:Core/Src/lte.c ****                 uart_status = LTE_UART_STATUS_RECEIVE;
 465:Core/Src/lte.c ****             }
 466:Core/Src/lte.c ****             if(LTE_UART_STATUS_RECEIVE == uart_status)
 467:Core/Src/lte.c ****             {
 468:Core/Src/lte.c ****                 if(OK == stDelay)
 469:Core/Src/lte.c ****                 {
 470:Core/Src/lte.c ****                     //LTE_Status = LTE_Receive_Check(LTE_STEP_MQTT_PUBLISH);
 471:Core/Src/lte.c ****                     stDelay = FAIL;
 472:Core/Src/lte.c ****                     uart_status = LTE_UART_STATUS_TRANSMIT;
 473:Core/Src/lte.c ****                 }
 474:Core/Src/lte.c ****                 else
 475:Core/Src/lte.c ****                 {
 476:Core/Src/lte.c ****                     stDelay = LTE_Delay(10000);
 477:Core/Src/lte.c ****                 }
 478:Core/Src/lte.c ****             }
 479:Core/Src/lte.c ****         break;
 480:Core/Src/lte.c ****     }
 481:Core/Src/lte.c **** }
 482:Core/Src/lte.c **** 
 483:Core/Src/lte.c **** static void LTE_GPS_Connect(void)
 484:Core/Src/lte.c **** {
 485:Core/Src/lte.c ****     char Tx_Buf[100] = {0,};
 486:Core/Src/lte.c ****     static LTE_Status_t stDelay;
ARM GAS  C:\Users\jisu8\AppData\Local\Temp\cc49UglZ.s 			page 10


 487:Core/Src/lte.c ****     static uint8_t uart_status;
 488:Core/Src/lte.c **** 
 489:Core/Src/lte.c ****     switch(LTE_GPS_Status)
 490:Core/Src/lte.c ****     {
 491:Core/Src/lte.c ****         case LTE_GPS_STEP_ULOCCELL :
 492:Core/Src/lte.c ****             if(LTE_UART_STATUS_TRANSMIT == uart_status)
 493:Core/Src/lte.c ****             {
 494:Core/Src/lte.c ****                 sprintf(Tx_Buf,"AT+ULOCCELL=0\r\n");
 495:Core/Src/lte.c ****                 LTE_Transmit(Tx_Buf);
 496:Core/Src/lte.c ****                 uart_status = LTE_UART_STATUS_RECEIVE;
 497:Core/Src/lte.c ****             }
 498:Core/Src/lte.c ****             if(LTE_UART_STATUS_RECEIVE == uart_status)
 499:Core/Src/lte.c ****             {
 500:Core/Src/lte.c ****                 if(OK == stDelay)
 501:Core/Src/lte.c ****                 {
 502:Core/Src/lte.c ****                     LTE_GPS_Status = LTE_Receive_Check(LTE_GPS_STEP_ULOCCELL);
 503:Core/Src/lte.c ****                     stDelay = FAIL;
 504:Core/Src/lte.c ****                     uart_status = LTE_UART_STATUS_TRANSMIT;
 505:Core/Src/lte.c ****                 }
 506:Core/Src/lte.c ****                 else
 507:Core/Src/lte.c ****                 {
 508:Core/Src/lte.c ****                     stDelay = LTE_Delay(1000);
 509:Core/Src/lte.c ****                 }
 510:Core/Src/lte.c ****             }
 511:Core/Src/lte.c ****         break;        
 512:Core/Src/lte.c ****         case LTE_GPS_STEP_ULOC :
 513:Core/Src/lte.c ****             if(LTE_UART_STATUS_TRANSMIT == uart_status)
 514:Core/Src/lte.c ****             {
 515:Core/Src/lte.c ****                 sprintf(Tx_Buf,"AT+ULOC=2,3,1,100,5000\r\n");
 516:Core/Src/lte.c ****                 LTE_Transmit(Tx_Buf);
 517:Core/Src/lte.c ****                 uart_status = LTE_UART_STATUS_RECEIVE;
 518:Core/Src/lte.c ****             }
 519:Core/Src/lte.c ****             if(LTE_UART_STATUS_RECEIVE == uart_status)
 520:Core/Src/lte.c ****             {
 521:Core/Src/lte.c ****                 if(OK == stDelay)
 522:Core/Src/lte.c ****                 {
 523:Core/Src/lte.c ****                     LTE_GPS_Status = LTE_GPS_Receive_Data(LTE_GPS_STEP_ULOC);
 524:Core/Src/lte.c ****                     stDelay = FAIL;
 525:Core/Src/lte.c ****                     uart_status = LTE_UART_STATUS_TRANSMIT;
 526:Core/Src/lte.c ****                 }
 527:Core/Src/lte.c ****                 else
 528:Core/Src/lte.c ****                 {
 529:Core/Src/lte.c ****                     stDelay = LTE_Delay(5000);
 530:Core/Src/lte.c ****                 }
 531:Core/Src/lte.c ****             }
 532:Core/Src/lte.c ****         break;        
 533:Core/Src/lte.c ****         case LTE_GPS_STEP_UPDATEDATA :
 534:Core/Src/lte.c ****             LTE_GPS_Status = LTE_GPS_Update_Data(LTE_GPS_STEP_UPDATEDATA);
 535:Core/Src/lte.c ****         break;
 536:Core/Src/lte.c ****         case LTE_GPS_STEP_FINISH :
 537:Core/Src/lte.c ****         break;
 538:Core/Src/lte.c ****     }
 539:Core/Src/lte.c **** }
 540:Core/Src/lte.c **** 
 541:Core/Src/lte.c **** static void LTE_Transmit(uint8_t * buf)
 542:Core/Src/lte.c **** {
 543:Core/Src/lte.c ****     HAL_UART_Transmit(&huart1,buf,strlen(buf),100);                    
ARM GAS  C:\Users\jisu8\AppData\Local\Temp\cc49UglZ.s 			page 11


 544:Core/Src/lte.c ****     HAL_UART_Transmit(&huart3,buf,strlen(buf),100);
 545:Core/Src/lte.c **** }
 546:Core/Src/lte.c **** 
 547:Core/Src/lte.c **** static uint8_t LTE_OK_Check(void)
 548:Core/Src/lte.c **** {
 549:Core/Src/lte.c ****     uint8_t retval = FAIL;
 550:Core/Src/lte.c ****     if(LTE_Rx_Counter>3)
 551:Core/Src/lte.c ****     {
 552:Core/Src/lte.c ****         for(uint16_t i = 0; i < LTE_RX_BUFFER_SIZE; i++)
 553:Core/Src/lte.c ****         {
 554:Core/Src/lte.c ****             if((LTE_Rx_Buffer[i] == 'O') && (LTE_Rx_Buffer[i+1] == 'K') && (LTE_Rx_Buffer[i+2] == '
 555:Core/Src/lte.c ****             {
 556:Core/Src/lte.c ****                 HAL_UART_Transmit(&huart3,&LTE_Rx_Buffer[i],strlen(&LTE_Rx_Buffer[i]),100);
 557:Core/Src/lte.c ****                 memset(LTE_Rx_Buffer,0x00,LTE_Rx_Counter);
 558:Core/Src/lte.c ****                 LTE_Rx_Counter = 0;
 559:Core/Src/lte.c ****                 retval = OK;
 560:Core/Src/lte.c ****                 return retval;
 561:Core/Src/lte.c ****             }
 562:Core/Src/lte.c ****             
 563:Core/Src/lte.c ****             if(LTE_Rx_Buffer[i] == 0x00)
 564:Core/Src/lte.c ****             {
 565:Core/Src/lte.c ****                 memset(LTE_Rx_Buffer,0x00,LTE_Rx_Counter);
 566:Core/Src/lte.c ****                 LTE_Rx_Counter = 0;
 567:Core/Src/lte.c ****                 break;
 568:Core/Src/lte.c ****             }
 569:Core/Src/lte.c ****         }
 570:Core/Src/lte.c ****     }
 571:Core/Src/lte.c **** 
 572:Core/Src/lte.c ****     return retval;
 573:Core/Src/lte.c **** }
 574:Core/Src/lte.c **** 
 575:Core/Src/lte.c **** static uint8_t LTE_Delay(uint16_t time)
 576:Core/Src/lte.c **** {
  29              		.loc 1 576 1 view -0
  30              		.cfi_startproc
  31              		@ args = 0, pretend = 0, frame = 0
  32              		@ frame_needed = 0, uses_anonymous_args = 0
  33              		@ link register save eliminated.
 577:Core/Src/lte.c ****     static uint16_t timer;
  34              		.loc 1 577 5 view .LVU1
 578:Core/Src/lte.c ****     LTE_Status_t retval = FAIL;
  35              		.loc 1 578 5 view .LVU2
 579:Core/Src/lte.c ****     time = time / 100; // [ms] to 100[ms]
  36              		.loc 1 579 5 view .LVU3
  37              		.loc 1 579 10 is_stmt 0 view .LVU4
  38 0000 084B     		ldr	r3, .L4
  39 0002 A3FB0030 		umull	r3, r0, r3, r0
  40              	.LVL1:
 580:Core/Src/lte.c ****     timer++;
  41              		.loc 1 580 5 is_stmt 1 view .LVU5
  42              		.loc 1 580 10 is_stmt 0 view .LVU6
  43 0006 084A     		ldr	r2, .L4+4
  44 0008 1388     		ldrh	r3, [r2]
  45 000a 0133     		adds	r3, r3, #1
  46 000c 9BB2     		uxth	r3, r3
  47 000e 1380     		strh	r3, [r2]	@ movhi
 581:Core/Src/lte.c ****     if(timer>time)
ARM GAS  C:\Users\jisu8\AppData\Local\Temp\cc49UglZ.s 			page 12


  48              		.loc 1 581 5 is_stmt 1 view .LVU7
  49              		.loc 1 581 7 is_stmt 0 view .LVU8
  50 0010 B3EB501F 		cmp	r3, r0, lsr #5
  51 0014 04D9     		bls	.L3
 582:Core/Src/lte.c ****     {
 583:Core/Src/lte.c ****         timer = 0;
  52              		.loc 1 583 9 is_stmt 1 view .LVU9
  53              		.loc 1 583 15 is_stmt 0 view .LVU10
  54 0016 1346     		mov	r3, r2
  55 0018 0022     		movs	r2, #0
  56 001a 1A80     		strh	r2, [r3]	@ movhi
 584:Core/Src/lte.c ****         retval = OK;
  57              		.loc 1 584 9 is_stmt 1 view .LVU11
  58              	.LVL2:
  59              		.loc 1 584 16 is_stmt 0 view .LVU12
  60 001c 0120     		movs	r0, #1
  61              	.LVL3:
  62              		.loc 1 584 16 view .LVU13
  63 001e 7047     		bx	lr
  64              	.LVL4:
  65              	.L3:
 578:Core/Src/lte.c ****     time = time / 100; // [ms] to 100[ms]
  66              		.loc 1 578 18 view .LVU14
  67 0020 0020     		movs	r0, #0
  68              	.LVL5:
 585:Core/Src/lte.c ****     }
 586:Core/Src/lte.c **** 
 587:Core/Src/lte.c ****     return retval;
  69              		.loc 1 587 5 is_stmt 1 view .LVU15
 588:Core/Src/lte.c **** }
  70              		.loc 1 588 1 is_stmt 0 view .LVU16
  71 0022 7047     		bx	lr
  72              	.L5:
  73              		.align	2
  74              	.L4:
  75 0024 1F85EB51 		.word	1374389535
  76 0028 00000000 		.word	.LANCHOR0
  77              		.cfi_endproc
  78              	.LFE140:
  80              		.section	.rodata.LTE_Update_Data.str1.4,"aMS",%progbits,1
  81              		.align	2
  82              	.LC0:
  83 0000 7B225F49 		.ascii	"{\"_ID\":\"%s\",\"_TEMP\":\"-%d.%02d\",\"_HUMI\":\""
  83      44223A22 
  83      2573222C 
  83      225F5445 
  83      4D50223A 
  84 0028 25642E25 		.ascii	"%d.%02d\",\"_DIST\":\"%d.%02d\",\"_CHAR\":\"%d.%02d"
  84      30326422 
  84      2C225F44 
  84      49535422 
  84      3A222564 
  85 0053 222C225F 		.ascii	"\",\"_GPS\":\"%d.%05d,%d.%05d\",\"_DOOR\":\"%d\"}\000"
  85      47505322 
  85      3A222564 
  85      2E253035 
  85      642C2564 
ARM GAS  C:\Users\jisu8\AppData\Local\Temp\cc49UglZ.s 			page 13


  86              		.align	2
  87              	.LC1:
  88 007c 7B225F49 		.ascii	"{\"_ID\":\"%s\",\"_TEMP\":\"%d.%02d\",\"_HUMI\":\"%"
  88      44223A22 
  88      2573222C 
  88      225F5445 
  88      4D50223A 
  89 00a4 642E2530 		.ascii	"d.%02d\",\"_DIST\":\"%d.%02d\",\"_CHAR\":\"%d.%02d\""
  89      3264222C 
  89      225F4449 
  89      5354223A 
  89      2225642E 
  90 00cf 2C225F47 		.ascii	",\"_GPS\":\"%d.%05d,%d.%05d\",\"_DOOR\":\"%d\"}\000"
  90      5053223A 
  90      2225642E 
  90      25303564 
  90      2C25642E 
  91              		.section	.text.LTE_Update_Data,"ax",%progbits
  92              		.align	1
  93              		.syntax unified
  94              		.thumb
  95              		.thumb_func
  97              	LTE_Update_Data:
  98              	.LFB135:
  60:Core/Src/lte.c ****     DHT_Data_t data;
  99              		.loc 1 60 1 is_stmt 1 view -0
 100              		.cfi_startproc
 101              		@ args = 0, pretend = 0, frame = 8
 102              		@ frame_needed = 0, uses_anonymous_args = 0
 103 0000 70B5     		push	{r4, r5, r6, lr}
 104              	.LCFI0:
 105              		.cfi_def_cfa_offset 16
 106              		.cfi_offset 4, -16
 107              		.cfi_offset 5, -12
 108              		.cfi_offset 6, -8
 109              		.cfi_offset 14, -4
 110 0002 8EB0     		sub	sp, sp, #56
 111              	.LCFI1:
 112              		.cfi_def_cfa_offset 72
  61:Core/Src/lte.c ****     data = DHT_getData(DHT22);
 113              		.loc 1 61 5 view .LVU18
  62:Core/Src/lte.c ****     if(data.Temperature<0)
 114              		.loc 1 62 5 view .LVU19
  62:Core/Src/lte.c ****     if(data.Temperature<0)
 115              		.loc 1 62 12 is_stmt 0 view .LVU20
 116 0004 0120     		movs	r0, #1
 117 0006 FFF7FEFF 		bl	DHT_getData
 118              	.LVL6:
 119 000a 8DED0C0A 		vstr.32	s0, [sp, #48]
 120 000e CDED0D0A 		vstr.32	s1, [sp, #52]
  63:Core/Src/lte.c ****     {
 121              		.loc 1 63 5 is_stmt 1 view .LVU21
  63:Core/Src/lte.c ****     {
 122              		.loc 1 63 7 is_stmt 0 view .LVU22
 123 0012 F5EEC00A 		vcmpe.f32	s1, #0
 124 0016 F1EE10FA 		vmrs	APSR_nzcv, FPSCR
 125 001a 76D4     		bmi	.L18
ARM GAS  C:\Users\jisu8\AppData\Local\Temp\cc49UglZ.s 			page 14


  70:Core/Src/lte.c ****         LTE_TEMP_D = ((uint16_t)(data.Temperature * 100))%100;
 126              		.loc 1 70 9 is_stmt 1 view .LVU23
  70:Core/Src/lte.c ****         LTE_TEMP_D = ((uint16_t)(data.Temperature * 100))%100;
 127              		.loc 1 70 20 is_stmt 0 view .LVU24
 128 001c 584A     		ldr	r2, .L20
 129 001e FCEEE07A 		vcvt.u32.f32	s15, s1
 130 0022 17EE903A 		vmov	r3, s15	@ int
 131 0026 1380     		strh	r3, [r2]	@ movhi
  71:Core/Src/lte.c ****     }
 132              		.loc 1 71 9 is_stmt 1 view .LVU25
  71:Core/Src/lte.c ****     }
 133              		.loc 1 71 51 is_stmt 0 view .LVU26
 134 0028 DFED567A 		vldr.32	s15, .L20+4
 135 002c 60EEA77A 		vmul.f32	s15, s1, s15
  71:Core/Src/lte.c ****     }
 136              		.loc 1 71 23 view .LVU27
 137 0030 FCEEE77A 		vcvt.u32.f32	s15, s15
 138 0034 17EE903A 		vmov	r3, s15	@ int
 139 0038 9BB2     		uxth	r3, r3
  71:Core/Src/lte.c ****     }
 140              		.loc 1 71 20 view .LVU28
 141 003a 534A     		ldr	r2, .L20+8
 142 003c A2FB0312 		umull	r1, r2, r2, r3
 143 0040 5209     		lsrs	r2, r2, #5
 144 0042 6421     		movs	r1, #100
 145 0044 01FB1233 		mls	r3, r1, r2, r3
 146 0048 504A     		ldr	r2, .L20+12
 147 004a 1380     		strh	r3, [r2]	@ movhi
 148              	.L9:
  74:Core/Src/lte.c ****     LTE_HUMI_D = ((uint16_t)(data.Humidity * 100))%100;
 149              		.loc 1 74 5 is_stmt 1 view .LVU29
  74:Core/Src/lte.c ****     LTE_HUMI_D = ((uint16_t)(data.Humidity * 100))%100;
 150              		.loc 1 74 32 is_stmt 0 view .LVU30
 151 004c DDED0C7A 		vldr.32	s15, [sp, #48]
  74:Core/Src/lte.c ****     LTE_HUMI_D = ((uint16_t)(data.Humidity * 100))%100;
 152              		.loc 1 74 18 view .LVU31
 153 0050 BCEEE77A 		vcvt.u32.f32	s14, s15
 154 0054 17EE103A 		vmov	r3, s14	@ int
 155 0058 9CB2     		uxth	r4, r3
  74:Core/Src/lte.c ****     LTE_HUMI_D = ((uint16_t)(data.Humidity * 100))%100;
 156              		.loc 1 74 16 view .LVU32
 157 005a 4D4B     		ldr	r3, .L20+16
 158 005c 1C80     		strh	r4, [r3]	@ movhi
  75:Core/Src/lte.c ****     LTE_DIST_I = Lidar_Distance;
 159              		.loc 1 75 5 is_stmt 1 view .LVU33
  75:Core/Src/lte.c ****     LTE_DIST_I = Lidar_Distance;
 160              		.loc 1 75 44 is_stmt 0 view .LVU34
 161 005e 9FED497A 		vldr.32	s14, .L20+4
 162 0062 67EE877A 		vmul.f32	s15, s15, s14
  75:Core/Src/lte.c ****     LTE_DIST_I = Lidar_Distance;
 163              		.loc 1 75 19 view .LVU35
 164 0066 FCEEE77A 		vcvt.u32.f32	s15, s15
 165 006a 17EE903A 		vmov	r3, s15	@ int
 166 006e 9BB2     		uxth	r3, r3
  75:Core/Src/lte.c ****     LTE_DIST_I = Lidar_Distance;
 167              		.loc 1 75 16 view .LVU36
 168 0070 4548     		ldr	r0, .L20+8
ARM GAS  C:\Users\jisu8\AppData\Local\Temp\cc49UglZ.s 			page 15


 169 0072 A0FB0312 		umull	r1, r2, r0, r3
 170 0076 5209     		lsrs	r2, r2, #5
 171 0078 4FF0640C 		mov	ip, #100
 172 007c 0CFB1233 		mls	r3, ip, r2, r3
 173 0080 9BB2     		uxth	r3, r3
 174 0082 444A     		ldr	r2, .L20+20
 175 0084 1380     		strh	r3, [r2]	@ movhi
  76:Core/Src/lte.c ****     LTE_CHAR_I = (Device_Batt_Voltage)/1000;
 176              		.loc 1 76 5 is_stmt 1 view .LVU37
  76:Core/Src/lte.c ****     LTE_CHAR_I = (Device_Batt_Voltage)/1000;
 177              		.loc 1 76 16 is_stmt 0 view .LVU38
 178 0086 444A     		ldr	r2, .L20+24
 179 0088 1588     		ldrh	r5, [r2]
 180 008a 444A     		ldr	r2, .L20+28
 181 008c 1580     		strh	r5, [r2]	@ movhi
  77:Core/Src/lte.c ****     LTE_CHAR_D = (Device_Batt_Voltage/10)%100;
 182              		.loc 1 77 5 is_stmt 1 view .LVU39
  77:Core/Src/lte.c ****     LTE_CHAR_D = (Device_Batt_Voltage/10)%100;
 183              		.loc 1 77 16 is_stmt 0 view .LVU40
 184 008e 444A     		ldr	r2, .L20+32
 185 0090 1288     		ldrh	r2, [r2]
 186 0092 4449     		ldr	r1, .L20+36
 187 0094 A1FB0261 		umull	r6, r1, r1, r2
 188 0098 8909     		lsrs	r1, r1, #6
 189 009a 434E     		ldr	r6, .L20+40
 190 009c 3180     		strh	r1, [r6]	@ movhi
  78:Core/Src/lte.c ****     LTE_DOOR = Device_Sensor_Signal;
 191              		.loc 1 78 5 is_stmt 1 view .LVU41
  78:Core/Src/lte.c ****     LTE_DOOR = Device_Sensor_Signal;
 192              		.loc 1 78 16 is_stmt 0 view .LVU42
 193 009e 434E     		ldr	r6, .L20+44
 194 00a0 A6FB0262 		umull	r6, r2, r6, r2
 195 00a4 D208     		lsrs	r2, r2, #3
 196 00a6 A0FB0260 		umull	r6, r0, r0, r2
 197 00aa 4009     		lsrs	r0, r0, #5
 198 00ac 0CFB1022 		mls	r2, ip, r0, r2
 199 00b0 92B2     		uxth	r2, r2
 200 00b2 3F48     		ldr	r0, .L20+48
 201 00b4 0280     		strh	r2, [r0]	@ movhi
  79:Core/Src/lte.c ****     
 202              		.loc 1 79 5 is_stmt 1 view .LVU43
  79:Core/Src/lte.c ****     
 203              		.loc 1 79 14 is_stmt 0 view .LVU44
 204 00b6 3F48     		ldr	r0, .L20+52
 205 00b8 0078     		ldrb	r0, [r0]	@ zero_extendqisi2
 206 00ba 3F4E     		ldr	r6, .L20+56
 207 00bc 3070     		strb	r0, [r6]
  81:Core/Src/lte.c ****     {
 208              		.loc 1 81 5 is_stmt 1 view .LVU45
  81:Core/Src/lte.c ****     {
 209              		.loc 1 81 7 is_stmt 0 view .LVU46
 210 00be F5EEC00A 		vcmpe.f32	s1, #0
 211 00c2 F1EE10FA 		vmrs	APSR_nzcv, FPSCR
 212 00c6 3BD4     		bmi	.L19
  88:Core/Src/lte.c ****             LTE_ID,LTE_TEMP_I,LTE_TEMP_D,LTE_HUMI_I,LTE_HUMI_D,LTE_DIST_I,LTE_DIST_D,LTE_CHAR_I,LTE
 213              		.loc 1 88 9 is_stmt 1 view .LVU47
 214 00c8 0B90     		str	r0, [sp, #44]
ARM GAS  C:\Users\jisu8\AppData\Local\Temp\cc49UglZ.s 			page 16


 215 00ca 3C48     		ldr	r0, .L20+60
 216 00cc 0068     		ldr	r0, [r0]
 217 00ce 0A90     		str	r0, [sp, #40]
 218 00d0 3B48     		ldr	r0, .L20+64
 219 00d2 0088     		ldrh	r0, [r0]
 220 00d4 0990     		str	r0, [sp, #36]
 221 00d6 3B48     		ldr	r0, .L20+68
 222 00d8 0068     		ldr	r0, [r0]
 223 00da 0890     		str	r0, [sp, #32]
 224 00dc 3A48     		ldr	r0, .L20+72
 225 00de 0088     		ldrh	r0, [r0]
 226 00e0 0790     		str	r0, [sp, #28]
 227 00e2 0692     		str	r2, [sp, #24]
 228 00e4 0591     		str	r1, [sp, #20]
 229 00e6 394A     		ldr	r2, .L20+76
 230 00e8 1288     		ldrh	r2, [r2]
 231 00ea 0492     		str	r2, [sp, #16]
 232 00ec 0395     		str	r5, [sp, #12]
 233 00ee 0293     		str	r3, [sp, #8]
 234 00f0 0194     		str	r4, [sp, #4]
 235 00f2 264B     		ldr	r3, .L20+12
 236 00f4 1B88     		ldrh	r3, [r3]
 237 00f6 0093     		str	r3, [sp]
 238 00f8 214B     		ldr	r3, .L20
 239 00fa 1B88     		ldrh	r3, [r3]
 240 00fc 344A     		ldr	r2, .L20+80
 241 00fe 3549     		ldr	r1, .L20+84
 242 0100 3548     		ldr	r0, .L20+88
 243 0102 FFF7FEFF 		bl	sprintf
 244              	.LVL7:
 245              	.L6:
  92:Core/Src/lte.c **** 
 246              		.loc 1 92 1 is_stmt 0 view .LVU48
 247 0106 0EB0     		add	sp, sp, #56
 248              	.LCFI2:
 249              		.cfi_remember_state
 250              		.cfi_def_cfa_offset 16
 251              		@ sp needed
 252 0108 70BD     		pop	{r4, r5, r6, pc}
 253              	.L18:
 254              	.LCFI3:
 255              		.cfi_restore_state
  65:Core/Src/lte.c ****         LTE_TEMP_D = ((uint16_t)((data.Temperature * -1) * 100))%100;        
 256              		.loc 1 65 9 is_stmt 1 view .LVU49
  65:Core/Src/lte.c ****         LTE_TEMP_D = ((uint16_t)((data.Temperature * -1) * 100))%100;        
 257              		.loc 1 65 50 is_stmt 0 view .LVU50
 258 010a F1EE607A 		vneg.f32	s15, s1
  65:Core/Src/lte.c ****         LTE_TEMP_D = ((uint16_t)((data.Temperature * -1) * 100))%100;        
 259              		.loc 1 65 22 view .LVU51
 260 010e BCEEE77A 		vcvt.u32.f32	s14, s15
 261 0112 17EE102A 		vmov	r2, s14	@ int
  65:Core/Src/lte.c ****         LTE_TEMP_D = ((uint16_t)((data.Temperature * -1) * 100))%100;        
 262              		.loc 1 65 20 view .LVU52
 263 0116 1A4B     		ldr	r3, .L20
 264 0118 1A80     		strh	r2, [r3]	@ movhi
  66:Core/Src/lte.c ****     }
 265              		.loc 1 66 9 is_stmt 1 view .LVU53
ARM GAS  C:\Users\jisu8\AppData\Local\Temp\cc49UglZ.s 			page 17


  66:Core/Src/lte.c ****     }
 266              		.loc 1 66 58 is_stmt 0 view .LVU54
 267 011a 9FED1A7A 		vldr.32	s14, .L20+4
 268 011e 67EE877A 		vmul.f32	s15, s15, s14
  66:Core/Src/lte.c ****     }
 269              		.loc 1 66 23 view .LVU55
 270 0122 FCEEE77A 		vcvt.u32.f32	s15, s15
 271 0126 17EE903A 		vmov	r3, s15	@ int
 272 012a 9BB2     		uxth	r3, r3
  66:Core/Src/lte.c ****     }
 273              		.loc 1 66 20 view .LVU56
 274 012c 164A     		ldr	r2, .L20+8
 275 012e A2FB0312 		umull	r1, r2, r2, r3
 276 0132 5209     		lsrs	r2, r2, #5
 277 0134 6421     		movs	r1, #100
 278 0136 01FB1233 		mls	r3, r1, r2, r3
 279 013a 144A     		ldr	r2, .L20+12
 280 013c 1380     		strh	r3, [r2]	@ movhi
 281 013e 85E7     		b	.L9
 282              	.L19:
  83:Core/Src/lte.c ****             LTE_ID,LTE_TEMP_I,LTE_TEMP_D,LTE_HUMI_I,LTE_HUMI_D,LTE_DIST_I,LTE_DIST_D,LTE_CHAR_I,LTE
 283              		.loc 1 83 9 is_stmt 1 view .LVU57
 284 0140 0B90     		str	r0, [sp, #44]
 285 0142 1E48     		ldr	r0, .L20+60
 286 0144 0068     		ldr	r0, [r0]
 287 0146 0A90     		str	r0, [sp, #40]
 288 0148 1D48     		ldr	r0, .L20+64
 289 014a 0088     		ldrh	r0, [r0]
 290 014c 0990     		str	r0, [sp, #36]
 291 014e 1D48     		ldr	r0, .L20+68
 292 0150 0068     		ldr	r0, [r0]
 293 0152 0890     		str	r0, [sp, #32]
 294 0154 1C48     		ldr	r0, .L20+72
 295 0156 0088     		ldrh	r0, [r0]
 296 0158 0790     		str	r0, [sp, #28]
 297 015a 0692     		str	r2, [sp, #24]
 298 015c 0591     		str	r1, [sp, #20]
 299 015e 1B4A     		ldr	r2, .L20+76
 300 0160 1288     		ldrh	r2, [r2]
 301 0162 0492     		str	r2, [sp, #16]
 302 0164 0395     		str	r5, [sp, #12]
 303 0166 0293     		str	r3, [sp, #8]
 304 0168 0194     		str	r4, [sp, #4]
 305 016a 084B     		ldr	r3, .L20+12
 306 016c 1B88     		ldrh	r3, [r3]
 307 016e 0093     		str	r3, [sp]
 308 0170 034B     		ldr	r3, .L20
 309 0172 1B88     		ldrh	r3, [r3]
 310 0174 164A     		ldr	r2, .L20+80
 311 0176 1949     		ldr	r1, .L20+92
 312 0178 1748     		ldr	r0, .L20+88
 313 017a FFF7FEFF 		bl	sprintf
 314              	.LVL8:
 315 017e C2E7     		b	.L6
 316              	.L21:
 317              		.align	2
 318              	.L20:
ARM GAS  C:\Users\jisu8\AppData\Local\Temp\cc49UglZ.s 			page 18


 319 0180 00000000 		.word	.LANCHOR1
 320 0184 0000C842 		.word	1120403456
 321 0188 1F85EB51 		.word	1374389535
 322 018c 00000000 		.word	.LANCHOR2
 323 0190 00000000 		.word	.LANCHOR3
 324 0194 00000000 		.word	.LANCHOR4
 325 0198 00000000 		.word	Lidar_Distance
 326 019c 00000000 		.word	.LANCHOR5
 327 01a0 00000000 		.word	Device_Batt_Voltage
 328 01a4 D34D6210 		.word	274877907
 329 01a8 00000000 		.word	.LANCHOR6
 330 01ac CDCCCCCC 		.word	-858993459
 331 01b0 00000000 		.word	.LANCHOR7
 332 01b4 00000000 		.word	Device_Sensor_Signal
 333 01b8 00000000 		.word	.LANCHOR8
 334 01bc 00000000 		.word	.LANCHOR11
 335 01c0 00000000 		.word	.LANCHOR12
 336 01c4 00000000 		.word	.LANCHOR13
 337 01c8 00000000 		.word	.LANCHOR14
 338 01cc 00000000 		.word	.LANCHOR15
 339 01d0 00000000 		.word	.LANCHOR9
 340 01d4 7C000000 		.word	.LC1
 341 01d8 00000000 		.word	.LANCHOR10
 342 01dc 00000000 		.word	.LC0
 343              		.cfi_endproc
 344              	.LFE135:
 346              		.section	.text.LTE_Transmit,"ax",%progbits
 347              		.align	1
 348              		.syntax unified
 349              		.thumb
 350              		.thumb_func
 352              	LTE_Transmit:
 353              	.LVL9:
 354              	.LFB138:
 542:Core/Src/lte.c ****     HAL_UART_Transmit(&huart1,buf,strlen(buf),100);                    
 355              		.loc 1 542 1 view -0
 356              		.cfi_startproc
 357              		@ args = 0, pretend = 0, frame = 0
 358              		@ frame_needed = 0, uses_anonymous_args = 0
 542:Core/Src/lte.c ****     HAL_UART_Transmit(&huart1,buf,strlen(buf),100);                    
 359              		.loc 1 542 1 is_stmt 0 view .LVU59
 360 0000 10B5     		push	{r4, lr}
 361              	.LCFI4:
 362              		.cfi_def_cfa_offset 8
 363              		.cfi_offset 4, -8
 364              		.cfi_offset 14, -4
 365 0002 0446     		mov	r4, r0
 543:Core/Src/lte.c ****     HAL_UART_Transmit(&huart3,buf,strlen(buf),100);
 366              		.loc 1 543 5 is_stmt 1 view .LVU60
 543:Core/Src/lte.c ****     HAL_UART_Transmit(&huart3,buf,strlen(buf),100);
 367              		.loc 1 543 35 is_stmt 0 view .LVU61
 368 0004 FFF7FEFF 		bl	strlen
 369              	.LVL10:
 543:Core/Src/lte.c ****     HAL_UART_Transmit(&huart3,buf,strlen(buf),100);
 370              		.loc 1 543 5 view .LVU62
 371 0008 6423     		movs	r3, #100
 372 000a 82B2     		uxth	r2, r0
ARM GAS  C:\Users\jisu8\AppData\Local\Temp\cc49UglZ.s 			page 19


 373 000c 2146     		mov	r1, r4
 374 000e 0648     		ldr	r0, .L24
 375 0010 FFF7FEFF 		bl	HAL_UART_Transmit
 376              	.LVL11:
 544:Core/Src/lte.c **** }
 377              		.loc 1 544 5 is_stmt 1 view .LVU63
 544:Core/Src/lte.c **** }
 378              		.loc 1 544 35 is_stmt 0 view .LVU64
 379 0014 2046     		mov	r0, r4
 380 0016 FFF7FEFF 		bl	strlen
 381              	.LVL12:
 544:Core/Src/lte.c **** }
 382              		.loc 1 544 5 view .LVU65
 383 001a 6423     		movs	r3, #100
 384 001c 82B2     		uxth	r2, r0
 385 001e 2146     		mov	r1, r4
 386 0020 0248     		ldr	r0, .L24+4
 387 0022 FFF7FEFF 		bl	HAL_UART_Transmit
 388              	.LVL13:
 545:Core/Src/lte.c **** 
 389              		.loc 1 545 1 view .LVU66
 390 0026 10BD     		pop	{r4, pc}
 391              	.LVL14:
 392              	.L25:
 545:Core/Src/lte.c **** 
 393              		.loc 1 545 1 view .LVU67
 394              		.align	2
 395              	.L24:
 396 0028 00000000 		.word	huart1
 397 002c 00000000 		.word	huart3
 398              		.cfi_endproc
 399              	.LFE138:
 401              		.section	.text.LTE_OK_Check,"ax",%progbits
 402              		.align	1
 403              		.syntax unified
 404              		.thumb
 405              		.thumb_func
 407              	LTE_OK_Check:
 408              	.LFB139:
 548:Core/Src/lte.c ****     uint8_t retval = FAIL;
 409              		.loc 1 548 1 is_stmt 1 view -0
 410              		.cfi_startproc
 411              		@ args = 0, pretend = 0, frame = 0
 412              		@ frame_needed = 0, uses_anonymous_args = 0
 413 0000 38B5     		push	{r3, r4, r5, lr}
 414              	.LCFI5:
 415              		.cfi_def_cfa_offset 16
 416              		.cfi_offset 3, -16
 417              		.cfi_offset 4, -12
 418              		.cfi_offset 5, -8
 419              		.cfi_offset 14, -4
 549:Core/Src/lte.c ****     if(LTE_Rx_Counter>3)
 420              		.loc 1 549 5 view .LVU69
 421              	.LVL15:
 550:Core/Src/lte.c ****     {
 422              		.loc 1 550 5 view .LVU70
 550:Core/Src/lte.c ****     {
ARM GAS  C:\Users\jisu8\AppData\Local\Temp\cc49UglZ.s 			page 20


 423              		.loc 1 550 22 is_stmt 0 view .LVU71
 424 0002 1F4B     		ldr	r3, .L36
 425 0004 1A88     		ldrh	r2, [r3]
 550:Core/Src/lte.c ****     {
 426              		.loc 1 550 7 view .LVU72
 427 0006 032A     		cmp	r2, #3
 428 0008 35D8     		bhi	.L32
 572:Core/Src/lte.c **** }
 429              		.loc 1 572 12 view .LVU73
 430 000a 0024     		movs	r4, #0
 431              	.LVL16:
 432              	.L28:
 573:Core/Src/lte.c **** 
 433              		.loc 1 573 1 view .LVU74
 434 000c 2046     		mov	r0, r4
 435 000e 38BD     		pop	{r3, r4, r5, pc}
 436              	.LVL17:
 437              	.L29:
 438              	.LBB2:
 563:Core/Src/lte.c ****             {
 439              		.loc 1 563 13 is_stmt 1 view .LVU75
 563:Core/Src/lte.c ****             {
 440              		.loc 1 563 15 is_stmt 0 view .LVU76
 441 0010 4CB3     		cbz	r4, .L34
 552:Core/Src/lte.c ****         {
 442              		.loc 1 552 53 is_stmt 1 discriminator 2 view .LVU77
 552:Core/Src/lte.c ****         {
 443              		.loc 1 552 54 is_stmt 0 discriminator 2 view .LVU78
 444 0012 0133     		adds	r3, r3, #1
 445              	.LVL18:
 552:Core/Src/lte.c ****         {
 446              		.loc 1 552 54 discriminator 2 view .LVU79
 447 0014 9BB2     		uxth	r3, r3
 448              	.LVL19:
 449              	.L27:
 552:Core/Src/lte.c ****         {
 450              		.loc 1 552 29 is_stmt 1 discriminator 1 view .LVU80
 552:Core/Src/lte.c ****         {
 451              		.loc 1 552 9 is_stmt 0 discriminator 1 view .LVU81
 452 0016 B3F5806F 		cmp	r3, #1024
 453 001a 2ED2     		bcs	.L35
 554:Core/Src/lte.c ****             {
 454              		.loc 1 554 13 is_stmt 1 view .LVU82
 554:Core/Src/lte.c ****             {
 455              		.loc 1 554 30 is_stmt 0 view .LVU83
 456 001c 1949     		ldr	r1, .L36+4
 457 001e CC5C     		ldrb	r4, [r1, r3]	@ zero_extendqisi2
 554:Core/Src/lte.c ****             {
 458              		.loc 1 554 15 view .LVU84
 459 0020 4F2C     		cmp	r4, #79
 460 0022 F5D1     		bne	.L29
 554:Core/Src/lte.c ****             {
 461              		.loc 1 554 61 discriminator 1 view .LVU85
 462 0024 591C     		adds	r1, r3, #1
 554:Core/Src/lte.c ****             {
 463              		.loc 1 554 59 discriminator 1 view .LVU86
 464 0026 174D     		ldr	r5, .L36+4
ARM GAS  C:\Users\jisu8\AppData\Local\Temp\cc49UglZ.s 			page 21


 465 0028 695C     		ldrb	r1, [r5, r1]	@ zero_extendqisi2
 554:Core/Src/lte.c ****             {
 466              		.loc 1 554 42 discriminator 1 view .LVU87
 467 002a 4B29     		cmp	r1, #75
 468 002c F0D1     		bne	.L29
 554:Core/Src/lte.c ****             {
 469              		.loc 1 554 92 discriminator 2 view .LVU88
 470 002e 991C     		adds	r1, r3, #2
 554:Core/Src/lte.c ****             {
 471              		.loc 1 554 90 discriminator 2 view .LVU89
 472 0030 695C     		ldrb	r1, [r5, r1]	@ zero_extendqisi2
 554:Core/Src/lte.c ****             {
 473              		.loc 1 554 73 discriminator 2 view .LVU90
 474 0032 0D29     		cmp	r1, #13
 475 0034 ECD1     		bne	.L29
 554:Core/Src/lte.c ****             {
 476              		.loc 1 554 124 discriminator 3 view .LVU91
 477 0036 D91C     		adds	r1, r3, #3
 554:Core/Src/lte.c ****             {
 478              		.loc 1 554 122 discriminator 3 view .LVU92
 479 0038 695C     		ldrb	r1, [r5, r1]	@ zero_extendqisi2
 554:Core/Src/lte.c ****             {
 480              		.loc 1 554 105 discriminator 3 view .LVU93
 481 003a 0A29     		cmp	r1, #10
 482 003c E8D1     		bne	.L29
 556:Core/Src/lte.c ****                 memset(LTE_Rx_Buffer,0x00,LTE_Rx_Counter);
 483              		.loc 1 556 17 is_stmt 1 view .LVU94
 484 003e EC18     		adds	r4, r5, r3
 556:Core/Src/lte.c ****                 memset(LTE_Rx_Buffer,0x00,LTE_Rx_Counter);
 485              		.loc 1 556 61 is_stmt 0 view .LVU95
 486 0040 2046     		mov	r0, r4
 487 0042 FFF7FEFF 		bl	strlen
 488              	.LVL20:
 556:Core/Src/lte.c ****                 memset(LTE_Rx_Buffer,0x00,LTE_Rx_Counter);
 489              		.loc 1 556 17 view .LVU96
 490 0046 6423     		movs	r3, #100
 491 0048 82B2     		uxth	r2, r0
 492 004a 2146     		mov	r1, r4
 493 004c 0E48     		ldr	r0, .L36+8
 494 004e FFF7FEFF 		bl	HAL_UART_Transmit
 495              	.LVL21:
 557:Core/Src/lte.c ****                 LTE_Rx_Counter = 0;
 496              		.loc 1 557 17 is_stmt 1 view .LVU97
 497 0052 0B4C     		ldr	r4, .L36
 498 0054 2288     		ldrh	r2, [r4]
 499 0056 0021     		movs	r1, #0
 500 0058 2846     		mov	r0, r5
 501 005a FFF7FEFF 		bl	memset
 502              	.LVL22:
 558:Core/Src/lte.c ****                 retval = OK;
 503              		.loc 1 558 17 view .LVU98
 558:Core/Src/lte.c ****                 retval = OK;
 504              		.loc 1 558 32 is_stmt 0 view .LVU99
 505 005e 0023     		movs	r3, #0
 506 0060 2380     		strh	r3, [r4]	@ movhi
 559:Core/Src/lte.c ****                 return retval;
 507              		.loc 1 559 17 is_stmt 1 view .LVU100
ARM GAS  C:\Users\jisu8\AppData\Local\Temp\cc49UglZ.s 			page 22


 508              	.LVL23:
 560:Core/Src/lte.c ****             }
 509              		.loc 1 560 17 view .LVU101
 560:Core/Src/lte.c ****             }
 510              		.loc 1 560 24 is_stmt 0 view .LVU102
 511 0062 0124     		movs	r4, #1
 512 0064 D2E7     		b	.L28
 513              	.LVL24:
 514              	.L34:
 565:Core/Src/lte.c ****                 LTE_Rx_Counter = 0;
 515              		.loc 1 565 17 is_stmt 1 view .LVU103
 516 0066 0021     		movs	r1, #0
 517 0068 0648     		ldr	r0, .L36+4
 518 006a FFF7FEFF 		bl	memset
 519              	.LVL25:
 566:Core/Src/lte.c ****                 break;
 520              		.loc 1 566 17 view .LVU104
 566:Core/Src/lte.c ****                 break;
 521              		.loc 1 566 32 is_stmt 0 view .LVU105
 522 006e 044B     		ldr	r3, .L36
 523 0070 0022     		movs	r2, #0
 524 0072 1A80     		strh	r2, [r3]	@ movhi
 567:Core/Src/lte.c ****             }
 525              		.loc 1 567 17 is_stmt 1 view .LVU106
 526 0074 CAE7     		b	.L28
 527              	.L32:
 552:Core/Src/lte.c ****         {
 528              		.loc 1 552 22 is_stmt 0 view .LVU107
 529 0076 0023     		movs	r3, #0
 530 0078 CDE7     		b	.L27
 531              	.LVL26:
 532              	.L35:
 552:Core/Src/lte.c ****         {
 533              		.loc 1 552 22 view .LVU108
 534              	.LBE2:
 572:Core/Src/lte.c **** }
 535              		.loc 1 572 12 view .LVU109
 536 007a 0024     		movs	r4, #0
 537 007c C6E7     		b	.L28
 538              	.L37:
 539 007e 00BF     		.align	2
 540              	.L36:
 541 0080 00000000 		.word	.LANCHOR16
 542 0084 00000000 		.word	.LANCHOR17
 543 0088 00000000 		.word	huart3
 544              		.cfi_endproc
 545              	.LFE139:
 547              		.section	.text.LTE_Receive_Check,"ax",%progbits
 548              		.align	1
 549              		.syntax unified
 550              		.thumb
 551              		.thumb_func
 553              	LTE_Receive_Check:
 554              	.LVL27:
 555              	.LFB141:
 589:Core/Src/lte.c **** 
 590:Core/Src/lte.c **** static uint8_t LTE_Receive_Check(uint8_t status)
ARM GAS  C:\Users\jisu8\AppData\Local\Temp\cc49UglZ.s 			page 23


 591:Core/Src/lte.c **** {
 556              		.loc 1 591 1 is_stmt 1 view -0
 557              		.cfi_startproc
 558              		@ args = 0, pretend = 0, frame = 0
 559              		@ frame_needed = 0, uses_anonymous_args = 0
 560              		.loc 1 591 1 is_stmt 0 view .LVU111
 561 0000 10B5     		push	{r4, lr}
 562              	.LCFI6:
 563              		.cfi_def_cfa_offset 8
 564              		.cfi_offset 4, -8
 565              		.cfi_offset 14, -4
 566 0002 0446     		mov	r4, r0
 592:Core/Src/lte.c ****     LTE_Status_t stReceive = FAIL;
 567              		.loc 1 592 5 is_stmt 1 view .LVU112
 568              	.LVL28:
 593:Core/Src/lte.c ****     static uint8_t fail_counter;
 569              		.loc 1 593 5 view .LVU113
 594:Core/Src/lte.c ****     uint8_t retval = status;
 570              		.loc 1 594 5 view .LVU114
 595:Core/Src/lte.c **** 
 596:Core/Src/lte.c ****     stReceive = LTE_OK_Check();
 571              		.loc 1 596 5 view .LVU115
 572              		.loc 1 596 17 is_stmt 0 view .LVU116
 573 0004 FFF7FEFF 		bl	LTE_OK_Check
 574              	.LVL29:
 597:Core/Src/lte.c **** 
 598:Core/Src/lte.c ****     if(OK == stReceive)    
 575              		.loc 1 598 5 is_stmt 1 view .LVU117
 576              		.loc 1 598 7 is_stmt 0 view .LVU118
 577 0008 0128     		cmp	r0, #1
 578 000a 08D0     		beq	.L42
 599:Core/Src/lte.c ****     {
 600:Core/Src/lte.c ****         retval++;
 601:Core/Src/lte.c ****     }
 602:Core/Src/lte.c ****     else
 603:Core/Src/lte.c ****     {
 604:Core/Src/lte.c ****         /* OK  ,  status  */
 605:Core/Src/lte.c ****         fail_counter++;
 579              		.loc 1 605 9 is_stmt 1 view .LVU119
 580              		.loc 1 605 21 is_stmt 0 view .LVU120
 581 000c 074A     		ldr	r2, .L44
 582 000e 1378     		ldrb	r3, [r2]	@ zero_extendqisi2
 583 0010 0133     		adds	r3, r3, #1
 584 0012 DBB2     		uxtb	r3, r3
 585 0014 1370     		strb	r3, [r2]
 606:Core/Src/lte.c ****         if(fail_counter > 10)
 586              		.loc 1 606 9 is_stmt 1 view .LVU121
 587              		.loc 1 606 11 is_stmt 0 view .LVU122
 588 0016 0A2B     		cmp	r3, #10
 589 0018 04D8     		bhi	.L43
 590              	.LVL30:
 591              	.L40:
 607:Core/Src/lte.c ****         {
 608:Core/Src/lte.c ****             HAL_NVIC_SystemReset();
 609:Core/Src/lte.c ****         }
 610:Core/Src/lte.c ****     }
 611:Core/Src/lte.c **** 
ARM GAS  C:\Users\jisu8\AppData\Local\Temp\cc49UglZ.s 			page 24


 612:Core/Src/lte.c ****     return retval;
 592              		.loc 1 612 5 is_stmt 1 view .LVU123
 613:Core/Src/lte.c **** }
 593              		.loc 1 613 1 is_stmt 0 view .LVU124
 594 001a 2046     		mov	r0, r4
 595 001c 10BD     		pop	{r4, pc}
 596              	.LVL31:
 597              	.L42:
 600:Core/Src/lte.c ****     }
 598              		.loc 1 600 9 is_stmt 1 view .LVU125
 600:Core/Src/lte.c ****     }
 599              		.loc 1 600 15 is_stmt 0 view .LVU126
 600 001e 0134     		adds	r4, r4, #1
 601              	.LVL32:
 600:Core/Src/lte.c ****     }
 602              		.loc 1 600 15 view .LVU127
 603 0020 E4B2     		uxtb	r4, r4
 604              	.LVL33:
 600:Core/Src/lte.c ****     }
 605              		.loc 1 600 15 view .LVU128
 606 0022 FAE7     		b	.L40
 607              	.L43:
 608:Core/Src/lte.c ****         }
 608              		.loc 1 608 13 is_stmt 1 view .LVU129
 609 0024 FFF7FEFF 		bl	HAL_NVIC_SystemReset
 610              	.LVL34:
 608:Core/Src/lte.c ****         }
 611              		.loc 1 608 13 is_stmt 0 view .LVU130
 612 0028 F7E7     		b	.L40
 613              	.L45:
 614 002a 00BF     		.align	2
 615              	.L44:
 616 002c 00000000 		.word	.LANCHOR18
 617              		.cfi_endproc
 618              	.LFE141:
 620              		.section	.rodata.LTE_MQTT_Convert_Buffer.str1.4,"aMS",%progbits,1
 621              		.align	2
 622              	.LC3:
 623 0000 257800   		.ascii	"%x\000"
 624 0003 00       		.align	2
 625              	.LC2:
 626 0004 41542B55 		.ascii	"AT+UMQTTSNC=4,1,0,1,0,\"1\",\"\000"
 626      4D515454 
 626      534E433D 
 626      342C312C 
 626      302C312C 
 627              		.section	.text.LTE_MQTT_Convert_Buffer,"ax",%progbits
 628              		.align	1
 629              		.syntax unified
 630              		.thumb
 631              		.thumb_func
 633              	LTE_MQTT_Convert_Buffer:
 634              	.LVL35:
 635              	.LFB142:
 614:Core/Src/lte.c **** 
 615:Core/Src/lte.c **** static void LTE_MQTT_Convert_Buffer(uint8_t *buf)
 616:Core/Src/lte.c **** {
ARM GAS  C:\Users\jisu8\AppData\Local\Temp\cc49UglZ.s 			page 25


 636              		.loc 1 616 1 is_stmt 1 view -0
 637              		.cfi_startproc
 638              		@ args = 0, pretend = 0, frame = 1056
 639              		@ frame_needed = 0, uses_anonymous_args = 0
 640              		.loc 1 616 1 is_stmt 0 view .LVU132
 641 0000 70B5     		push	{r4, r5, r6, lr}
 642              	.LCFI7:
 643              		.cfi_def_cfa_offset 16
 644              		.cfi_offset 4, -16
 645              		.cfi_offset 5, -12
 646              		.cfi_offset 6, -8
 647              		.cfi_offset 14, -4
 648 0002 ADF5846D 		sub	sp, sp, #1056
 649              	.LCFI8:
 650              		.cfi_def_cfa_offset 1072
 651 0006 0646     		mov	r6, r0
 617:Core/Src/lte.c ****     uint8_t convert_buf[1024] = {0,};
 652              		.loc 1 617 5 is_stmt 1 view .LVU133
 653              		.loc 1 617 13 is_stmt 0 view .LVU134
 654 0008 0024     		movs	r4, #0
 655 000a 0894     		str	r4, [sp, #32]
 656 000c 4FF47F72 		mov	r2, #1020
 657 0010 2146     		mov	r1, r4
 658 0012 09A8     		add	r0, sp, #36
 659              	.LVL36:
 660              		.loc 1 617 13 view .LVU135
 661 0014 FFF7FEFF 		bl	memset
 662              	.LVL37:
 618:Core/Src/lte.c ****     uint8_t header[] = "AT+UMQTTSNC=4,1,0,1,0,\"1\",\"";
 663              		.loc 1 618 5 is_stmt 1 view .LVU136
 664              		.loc 1 618 13 is_stmt 0 view .LVU137
 665 0018 0DF1040C 		add	ip, sp, #4
 666 001c 1E4D     		ldr	r5, .L50
 667 001e 0FCD     		ldmia	r5!, {r0, r1, r2, r3}
 668 0020 ACE80F00 		stmia	ip!, {r0, r1, r2, r3}
 669 0024 95E80700 		ldm	r5, {r0, r1, r2}
 670 0028 8CE80700 		stm	ip, {r0, r1, r2}
 619:Core/Src/lte.c ****     uint8_t end[] = "\"\r\n";
 671              		.loc 1 619 5 is_stmt 1 view .LVU138
 672              		.loc 1 619 13 is_stmt 0 view .LVU139
 673 002c 1B4B     		ldr	r3, .L50+4
 674 002e 0093     		str	r3, [sp]
 620:Core/Src/lte.c ****     
 621:Core/Src/lte.c ****     for(uint16_t i = 0; i < strlen(LTE_ASCII_Buffer); i++)
 675              		.loc 1 621 5 is_stmt 1 view .LVU140
 676              	.LBB3:
 677              		.loc 1 621 9 view .LVU141
 678              	.LVL38:
 679              		.loc 1 621 5 is_stmt 0 view .LVU142
 680 0030 09E0     		b	.L47
 681              	.LVL39:
 682              	.L48:
 622:Core/Src/lte.c ****     {
 623:Core/Src/lte.c ****         sprintf(&convert_buf[2*i],"%x",LTE_ASCII_Buffer[i]);
 683              		.loc 1 623 9 is_stmt 1 discriminator 3 view .LVU143
 684 0032 1B4B     		ldr	r3, .L50+8
 685 0034 1A5D     		ldrb	r2, [r3, r4]	@ zero_extendqisi2
ARM GAS  C:\Users\jisu8\AppData\Local\Temp\cc49UglZ.s 			page 26


 686 0036 1B49     		ldr	r1, .L50+12
 687 0038 08AB     		add	r3, sp, #32
 688 003a 03EB4400 		add	r0, r3, r4, lsl #1
 689 003e FFF7FEFF 		bl	sprintf
 690              	.LVL40:
 621:Core/Src/lte.c ****     {
 691              		.loc 1 621 55 discriminator 3 view .LVU144
 621:Core/Src/lte.c ****     {
 692              		.loc 1 621 56 is_stmt 0 discriminator 3 view .LVU145
 693 0042 0134     		adds	r4, r4, #1
 694              	.LVL41:
 621:Core/Src/lte.c ****     {
 695              		.loc 1 621 56 discriminator 3 view .LVU146
 696 0044 A4B2     		uxth	r4, r4
 697              	.LVL42:
 698              	.L47:
 621:Core/Src/lte.c ****     {
 699              		.loc 1 621 25 is_stmt 1 discriminator 1 view .LVU147
 621:Core/Src/lte.c ****     {
 700              		.loc 1 621 29 is_stmt 0 discriminator 1 view .LVU148
 701 0046 1648     		ldr	r0, .L50+8
 702 0048 FFF7FEFF 		bl	strlen
 703              	.LVL43:
 621:Core/Src/lte.c ****     {
 704              		.loc 1 621 5 discriminator 1 view .LVU149
 705 004c 8442     		cmp	r4, r0
 706 004e F0D3     		bcc	.L48
 707              	.LBE3:
 624:Core/Src/lte.c ****     }
 625:Core/Src/lte.c **** 
 626:Core/Src/lte.c ****     memcpy(buf,header,strlen(header));
 708              		.loc 1 626 5 is_stmt 1 view .LVU150
 709 0050 01A8     		add	r0, sp, #4
 710 0052 FFF7FEFF 		bl	strlen
 711              	.LVL44:
 712 0056 0246     		mov	r2, r0
 713 0058 01A9     		add	r1, sp, #4
 714 005a 3046     		mov	r0, r6
 715 005c FFF7FEFF 		bl	memcpy
 716              	.LVL45:
 627:Core/Src/lte.c ****     memcpy(&buf[strlen(header)],convert_buf,strlen(convert_buf));
 717              		.loc 1 627 5 view .LVU151
 718              		.loc 1 627 17 is_stmt 0 view .LVU152
 719 0060 01A8     		add	r0, sp, #4
 720 0062 FFF7FEFF 		bl	strlen
 721              	.LVL46:
 722              		.loc 1 627 12 view .LVU153
 723 0066 3418     		adds	r4, r6, r0
 724              	.LVL47:
 725              		.loc 1 627 5 view .LVU154
 726 0068 08A8     		add	r0, sp, #32
 727 006a FFF7FEFF 		bl	strlen
 728              	.LVL48:
 729 006e 0246     		mov	r2, r0
 730 0070 08A9     		add	r1, sp, #32
 731 0072 2046     		mov	r0, r4
 732 0074 FFF7FEFF 		bl	memcpy
ARM GAS  C:\Users\jisu8\AppData\Local\Temp\cc49UglZ.s 			page 27


 733              	.LVL49:
 628:Core/Src/lte.c ****     memcpy(&buf[strlen(buf)],end,strlen(end));
 734              		.loc 1 628 5 is_stmt 1 view .LVU155
 735              		.loc 1 628 17 is_stmt 0 view .LVU156
 736 0078 3046     		mov	r0, r6
 737 007a FFF7FEFF 		bl	strlen
 738              	.LVL50:
 739              		.loc 1 628 12 view .LVU157
 740 007e 0644     		add	r6, r6, r0
 741              	.LVL51:
 742              		.loc 1 628 5 view .LVU158
 743 0080 6846     		mov	r0, sp
 744 0082 FFF7FEFF 		bl	strlen
 745              	.LVL52:
 746 0086 0246     		mov	r2, r0
 747 0088 6946     		mov	r1, sp
 748 008a 3046     		mov	r0, r6
 749 008c FFF7FEFF 		bl	memcpy
 750              	.LVL53:
 629:Core/Src/lte.c **** }
 751              		.loc 1 629 1 view .LVU159
 752 0090 0DF5846D 		add	sp, sp, #1056
 753              	.LCFI9:
 754              		.cfi_def_cfa_offset 16
 755              		@ sp needed
 756 0094 70BD     		pop	{r4, r5, r6, pc}
 757              	.L51:
 758 0096 00BF     		.align	2
 759              	.L50:
 760 0098 04000000 		.word	.LC2
 761 009c 220D0A00 		.word	658722
 762 00a0 00000000 		.word	.LANCHOR10
 763 00a4 00000000 		.word	.LC3
 764              		.cfi_endproc
 765              	.LFE142:
 767              		.section	.rodata.LTE_Connect.str1.4,"aMS",%progbits,1
 768              		.align	2
 769              	.LC4:
 770 0000 41544530 		.ascii	"ATE0\015\012\000"
 770      0D0A00
 771 0007 00       		.align	2
 772              	.LC5:
 773 0008 41542B43 		.ascii	"AT+CMEE=2\015\012\000"
 773      4D45453D 
 773      320D0A00 
 774              		.align	2
 775              	.LC6:
 776 0014 41542B43 		.ascii	"AT+CFUN=0\015\012\000"
 776      46554E3D 
 776      300D0A00 
 777              		.align	2
 778              	.LC7:
 779 0020 41542B43 		.ascii	"AT+CGDCONT=1,\"IP\",\"tsudp\"\015\012\000"
 779      4744434F 
 779      4E543D31 
 779      2C224950 
 779      222C2274 
ARM GAS  C:\Users\jisu8\AppData\Local\Temp\cc49UglZ.s 			page 28


 780              		.align	2
 781              	.LC8:
 782 003c 41542B43 		.ascii	"AT+CFUN=1\015\012\000"
 782      46554E3D 
 782      310D0A00 
 783              		.align	2
 784              	.LC9:
 785 0048 41542B43 		.ascii	"AT+CESQ\015\012\000"
 785      4553510D 
 785      0A00
 786 0052 0000     		.align	2
 787              	.LC10:
 788 0054 41542B43 		.ascii	"AT+CEREG=2\015\012\000"
 788      45524547 
 788      3D320D0A 
 788      00
 789 0061 000000   		.align	2
 790              	.LC11:
 791 0064 41542B55 		.ascii	"AT+UPSD=0,100,1\015\012\000"
 791      5053443D 
 791      302C3130 
 791      302C310D 
 791      0A00
 792 0076 0000     		.align	2
 793              	.LC12:
 794 0078 41542B55 		.ascii	"AT+UPSD=0,0,0\015\012\000"
 794      5053443D 
 794      302C302C 
 794      300D0A00 
 795              		.align	2
 796              	.LC13:
 797 0088 41542B55 		.ascii	"AT+UPSDA=0,3\015\012\000"
 797      50534441 
 797      3D302C33 
 797      0D0A00
 798 0097 00       		.align	2
 799              	.LC14:
 800 0098 41542B55 		.ascii	"AT+UPSND=0,0\015\012\000"
 800      50534E44 
 800      3D302C30 
 800      0D0A00
 801 00a7 00       		.align	2
 802              	.LC15:
 803 00a8 41542B55 		.ascii	"AT+UMQTTSN=2,\"10.7.0.55\",2442\015\012\000"
 803      4D515454 
 803      534E3D32 
 803      2C223130 
 803      2E372E30 
 804              		.align	2
 805              	.LC16:
 806 00c8 41542B55 		.ascii	"AT+UMQTTSN=8,600\015\012\000"
 806      4D515454 
 806      534E3D38 
 806      2C363030 
 806      0D0A00
 807 00db 00       		.align	2
 808              	.LC17:
ARM GAS  C:\Users\jisu8\AppData\Local\Temp\cc49UglZ.s 			page 29


 809 00dc 41542B55 		.ascii	"AT+UMQTTSNNV=2\015\012\000"
 809      4D515454 
 809      534E4E56 
 809      3D320D0A 
 809      00
 810 00ed 000000   		.align	2
 811              	.LC18:
 812 00f0 41542B55 		.ascii	"AT+UMQTTSNC=1\015\012\000"
 812      4D515454 
 812      534E433D 
 812      310D0A00 
 813              		.align	2
 814              	.LC19:
 815 0100 41542B55 		.ascii	"AT+UMQTTSNC=2,\"mqtt_test\"\015\012\000"
 815      4D515454 
 815      534E433D 
 815      322C226D 
 815      7174745F 
 816              		.align	2
 817              	.LC20:
 818 011c 41542B55 		.ascii	"AT+UMQTTSNC=5,1,0,\"mqtt_test\"\015\012\000"
 818      4D515454 
 818      534E433D 
 818      352C312C 
 818      302C226D 
 819              		.section	.text.LTE_Connect,"ax",%progbits
 820              		.align	1
 821              		.syntax unified
 822              		.thumb
 823              		.thumb_func
 825              	LTE_Connect:
 826              	.LFB136:
  95:Core/Src/lte.c ****     char Tx_Buf[1024] = {0,};
 827              		.loc 1 95 1 is_stmt 1 view -0
 828              		.cfi_startproc
 829              		@ args = 0, pretend = 0, frame = 1024
 830              		@ frame_needed = 0, uses_anonymous_args = 0
 831 0000 30B5     		push	{r4, r5, lr}
 832              	.LCFI10:
 833              		.cfi_def_cfa_offset 12
 834              		.cfi_offset 4, -12
 835              		.cfi_offset 5, -8
 836              		.cfi_offset 14, -4
 837 0002 ADF2044D 		subw	sp, sp, #1028
 838              	.LCFI11:
 839              		.cfi_def_cfa_offset 1040
  96:Core/Src/lte.c ****     static LTE_Status_t stDelay;
 840              		.loc 1 96 5 view .LVU161
  96:Core/Src/lte.c ****     static LTE_Status_t stDelay;
 841              		.loc 1 96 10 is_stmt 0 view .LVU162
 842 0006 0021     		movs	r1, #0
 843 0008 0091     		str	r1, [sp]
 844 000a 4FF47F72 		mov	r2, #1020
 845 000e 01A8     		add	r0, sp, #4
 846 0010 FFF7FEFF 		bl	memset
 847              	.LVL54:
  97:Core/Src/lte.c ****     static uint8_t uart_status;
ARM GAS  C:\Users\jisu8\AppData\Local\Temp\cc49UglZ.s 			page 30


 848              		.loc 1 97 5 is_stmt 1 view .LVU163
  98:Core/Src/lte.c **** 
 849              		.loc 1 98 5 view .LVU164
 100:Core/Src/lte.c ****     {
 850              		.loc 1 100 5 view .LVU165
 851 0014 A04B     		ldr	r3, .L146
 852 0016 1B78     		ldrb	r3, [r3]	@ zero_extendqisi2
 853 0018 112B     		cmp	r3, #17
 854 001a 1AD8     		bhi	.L52
 855 001c DFE813F0 		tbh	[pc, r3, lsl #1]
 856              	.L55:
 857 0020 1200     		.2byte	(.L72-.L55)/2
 858 0022 4100     		.2byte	(.L71-.L55)/2
 859 0024 6900     		.2byte	(.L70-.L55)/2
 860 0026 9200     		.2byte	(.L69-.L55)/2
 861 0028 BF00     		.2byte	(.L68-.L55)/2
 862 002a E900     		.2byte	(.L67-.L55)/2
 863 002c 1201     		.2byte	(.L66-.L55)/2
 864 002e 5001     		.2byte	(.L65-.L55)/2
 865 0030 7B01     		.2byte	(.L64-.L55)/2
 866 0032 A501     		.2byte	(.L63-.L55)/2
 867 0034 D201     		.2byte	(.L62-.L55)/2
 868 0036 FF01     		.2byte	(.L61-.L55)/2
 869 0038 2B02     		.2byte	(.L60-.L55)/2
 870 003a 5802     		.2byte	(.L59-.L55)/2
 871 003c 8302     		.2byte	(.L58-.L55)/2
 872 003e C102     		.2byte	(.L57-.L55)/2
 873 0040 EE02     		.2byte	(.L56-.L55)/2
 874 0042 1C03     		.2byte	(.L54-.L55)/2
 875              		.p2align 1
 876              	.L72:
 103:Core/Src/lte.c ****             {
 877              		.loc 1 103 13 view .LVU166
 103:Core/Src/lte.c ****             {
 878              		.loc 1 103 41 is_stmt 0 view .LVU167
 879 0044 954B     		ldr	r3, .L146+4
 880 0046 1B78     		ldrb	r3, [r3]	@ zero_extendqisi2
 103:Core/Src/lte.c ****             {
 881              		.loc 1 103 15 view .LVU168
 882 0048 33B1     		cbz	r3, .L110
 883              	.L73:
 109:Core/Src/lte.c ****             {
 884              		.loc 1 109 13 is_stmt 1 view .LVU169
 109:Core/Src/lte.c ****             {
 885              		.loc 1 109 40 is_stmt 0 view .LVU170
 886 004a 944B     		ldr	r3, .L146+4
 887 004c 1B78     		ldrb	r3, [r3]	@ zero_extendqisi2
 109:Core/Src/lte.c ****             {
 888              		.loc 1 109 15 view .LVU171
 889 004e 012B     		cmp	r3, #1
 890 0050 12D0     		beq	.L111
 891              	.L52:
 481:Core/Src/lte.c **** 
 892              		.loc 1 481 1 view .LVU172
 893 0052 0DF2044D 		addw	sp, sp, #1028
 894              	.LCFI12:
 895              		.cfi_remember_state
ARM GAS  C:\Users\jisu8\AppData\Local\Temp\cc49UglZ.s 			page 31


 896              		.cfi_def_cfa_offset 12
 897              		@ sp needed
 898 0056 30BD     		pop	{r4, r5, pc}
 899              	.L110:
 900              	.LCFI13:
 901              		.cfi_restore_state
 105:Core/Src/lte.c ****                 LTE_Transmit(Tx_Buf);
 902              		.loc 1 105 17 is_stmt 1 view .LVU173
 903 0058 914B     		ldr	r3, .L146+8
 904 005a 93E80300 		ldm	r3, {r0, r1}
 905 005e 0090     		str	r0, [sp]
 906 0060 ADF80410 		strh	r1, [sp, #4]	@ movhi
 907 0064 090C     		lsrs	r1, r1, #16
 908 0066 8DF80610 		strb	r1, [sp, #6]
 106:Core/Src/lte.c ****                 uart_status = LTE_UART_STATUS_RECEIVE;
 909              		.loc 1 106 17 view .LVU174
 910 006a 6846     		mov	r0, sp
 911 006c FFF7FEFF 		bl	LTE_Transmit
 912              	.LVL55:
 107:Core/Src/lte.c ****             }
 913              		.loc 1 107 17 view .LVU175
 107:Core/Src/lte.c ****             }
 914              		.loc 1 107 29 is_stmt 0 view .LVU176
 915 0070 8A4B     		ldr	r3, .L146+4
 916 0072 0122     		movs	r2, #1
 917 0074 1A70     		strb	r2, [r3]
 918 0076 E8E7     		b	.L73
 919              	.L111:
 111:Core/Src/lte.c ****                 {
 920              		.loc 1 111 17 is_stmt 1 view .LVU177
 111:Core/Src/lte.c ****                 {
 921              		.loc 1 111 23 is_stmt 0 view .LVU178
 922 0078 8A4B     		ldr	r3, .L146+12
 923 007a 1B78     		ldrb	r3, [r3]	@ zero_extendqisi2
 111:Core/Src/lte.c ****                 {
 924              		.loc 1 111 19 view .LVU179
 925 007c 012B     		cmp	r3, #1
 926 007e 05D0     		beq	.L112
 119:Core/Src/lte.c ****                 }
 927              		.loc 1 119 21 is_stmt 1 view .LVU180
 119:Core/Src/lte.c ****                 }
 928              		.loc 1 119 31 is_stmt 0 view .LVU181
 929 0080 6420     		movs	r0, #100
 930 0082 FFF7FEFF 		bl	LTE_Delay
 931              	.LVL56:
 119:Core/Src/lte.c ****                 }
 932              		.loc 1 119 29 view .LVU182
 933 0086 874B     		ldr	r3, .L146+12
 934 0088 1870     		strb	r0, [r3]
 935 008a E2E7     		b	.L52
 936              	.L112:
 113:Core/Src/lte.c ****                     stDelay = FAIL;
 937              		.loc 1 113 21 is_stmt 1 view .LVU183
 113:Core/Src/lte.c ****                     stDelay = FAIL;
 938              		.loc 1 113 34 is_stmt 0 view .LVU184
 939 008c 0020     		movs	r0, #0
 940 008e FFF7FEFF 		bl	LTE_Receive_Check
ARM GAS  C:\Users\jisu8\AppData\Local\Temp\cc49UglZ.s 			page 32


 941              	.LVL57:
 113:Core/Src/lte.c ****                     stDelay = FAIL;
 942              		.loc 1 113 32 view .LVU185
 943 0092 814B     		ldr	r3, .L146
 944 0094 1870     		strb	r0, [r3]
 114:Core/Src/lte.c ****                     uart_status = LTE_UART_STATUS_TRANSMIT;
 945              		.loc 1 114 21 is_stmt 1 view .LVU186
 114:Core/Src/lte.c ****                     uart_status = LTE_UART_STATUS_TRANSMIT;
 946              		.loc 1 114 29 is_stmt 0 view .LVU187
 947 0096 0023     		movs	r3, #0
 948 0098 824A     		ldr	r2, .L146+12
 949 009a 1370     		strb	r3, [r2]
 115:Core/Src/lte.c ****                 }
 950              		.loc 1 115 21 is_stmt 1 view .LVU188
 115:Core/Src/lte.c ****                 }
 951              		.loc 1 115 33 is_stmt 0 view .LVU189
 952 009c 7F4A     		ldr	r2, .L146+4
 953 009e 1370     		strb	r3, [r2]
 954 00a0 D7E7     		b	.L52
 955              	.L71:
 124:Core/Src/lte.c ****             {
 956              		.loc 1 124 13 is_stmt 1 view .LVU190
 124:Core/Src/lte.c ****             {
 957              		.loc 1 124 41 is_stmt 0 view .LVU191
 958 00a2 7E4B     		ldr	r3, .L146+4
 959 00a4 1B78     		ldrb	r3, [r3]	@ zero_extendqisi2
 124:Core/Src/lte.c ****             {
 960              		.loc 1 124 15 view .LVU192
 961 00a6 6BB1     		cbz	r3, .L113
 962              	.L75:
 130:Core/Src/lte.c ****             {
 963              		.loc 1 130 13 is_stmt 1 view .LVU193
 130:Core/Src/lte.c ****             {
 964              		.loc 1 130 40 is_stmt 0 view .LVU194
 965 00a8 7C4B     		ldr	r3, .L146+4
 966 00aa 1B78     		ldrb	r3, [r3]	@ zero_extendqisi2
 130:Core/Src/lte.c ****             {
 967              		.loc 1 130 15 view .LVU195
 968 00ac 012B     		cmp	r3, #1
 969 00ae D0D1     		bne	.L52
 132:Core/Src/lte.c ****                 {
 970              		.loc 1 132 17 is_stmt 1 view .LVU196
 132:Core/Src/lte.c ****                 {
 971              		.loc 1 132 23 is_stmt 0 view .LVU197
 972 00b0 7C4B     		ldr	r3, .L146+12
 973 00b2 1B78     		ldrb	r3, [r3]	@ zero_extendqisi2
 132:Core/Src/lte.c ****                 {
 974              		.loc 1 132 19 view .LVU198
 975 00b4 012B     		cmp	r3, #1
 976 00b6 11D0     		beq	.L114
 140:Core/Src/lte.c ****                 }
 977              		.loc 1 140 21 is_stmt 1 view .LVU199
 140:Core/Src/lte.c ****                 }
 978              		.loc 1 140 31 is_stmt 0 view .LVU200
 979 00b8 6420     		movs	r0, #100
 980 00ba FFF7FEFF 		bl	LTE_Delay
 981              	.LVL58:
ARM GAS  C:\Users\jisu8\AppData\Local\Temp\cc49UglZ.s 			page 33


 140:Core/Src/lte.c ****                 }
 982              		.loc 1 140 29 view .LVU201
 983 00be 794B     		ldr	r3, .L146+12
 984 00c0 1870     		strb	r0, [r3]
 985 00c2 C6E7     		b	.L52
 986              	.L113:
 126:Core/Src/lte.c ****                 LTE_Transmit(Tx_Buf);
 987              		.loc 1 126 17 is_stmt 1 view .LVU202
 988 00c4 6B46     		mov	r3, sp
 989 00c6 784A     		ldr	r2, .L146+16
 990 00c8 07CA     		ldm	r2, {r0, r1, r2}
 991 00ca 83E80700 		stm	r3, {r0, r1, r2}
 127:Core/Src/lte.c ****                 uart_status = LTE_UART_STATUS_RECEIVE;
 992              		.loc 1 127 17 view .LVU203
 993 00ce 1846     		mov	r0, r3
 994 00d0 FFF7FEFF 		bl	LTE_Transmit
 995              	.LVL59:
 128:Core/Src/lte.c ****             }
 996              		.loc 1 128 17 view .LVU204
 128:Core/Src/lte.c ****             }
 997              		.loc 1 128 29 is_stmt 0 view .LVU205
 998 00d4 714B     		ldr	r3, .L146+4
 999 00d6 0122     		movs	r2, #1
 1000 00d8 1A70     		strb	r2, [r3]
 1001 00da E5E7     		b	.L75
 1002              	.L114:
 134:Core/Src/lte.c ****                     stDelay = FAIL;
 1003              		.loc 1 134 21 is_stmt 1 view .LVU206
 134:Core/Src/lte.c ****                     stDelay = FAIL;
 1004              		.loc 1 134 34 is_stmt 0 view .LVU207
 1005 00dc 0120     		movs	r0, #1
 1006 00de FFF7FEFF 		bl	LTE_Receive_Check
 1007              	.LVL60:
 134:Core/Src/lte.c ****                     stDelay = FAIL;
 1008              		.loc 1 134 32 view .LVU208
 1009 00e2 6D4B     		ldr	r3, .L146
 1010 00e4 1870     		strb	r0, [r3]
 135:Core/Src/lte.c ****                     uart_status = LTE_UART_STATUS_TRANSMIT;
 1011              		.loc 1 135 21 is_stmt 1 view .LVU209
 135:Core/Src/lte.c ****                     uart_status = LTE_UART_STATUS_TRANSMIT;
 1012              		.loc 1 135 29 is_stmt 0 view .LVU210
 1013 00e6 0023     		movs	r3, #0
 1014 00e8 6E4A     		ldr	r2, .L146+12
 1015 00ea 1370     		strb	r3, [r2]
 136:Core/Src/lte.c ****                 }
 1016              		.loc 1 136 21 is_stmt 1 view .LVU211
 136:Core/Src/lte.c ****                 }
 1017              		.loc 1 136 33 is_stmt 0 view .LVU212
 1018 00ec 6B4A     		ldr	r2, .L146+4
 1019 00ee 1370     		strb	r3, [r2]
 1020 00f0 AFE7     		b	.L52
 1021              	.L70:
 145:Core/Src/lte.c ****             {
 1022              		.loc 1 145 13 is_stmt 1 view .LVU213
 145:Core/Src/lte.c ****             {
 1023              		.loc 1 145 41 is_stmt 0 view .LVU214
 1024 00f2 6A4B     		ldr	r3, .L146+4
ARM GAS  C:\Users\jisu8\AppData\Local\Temp\cc49UglZ.s 			page 34


 1025 00f4 1B78     		ldrb	r3, [r3]	@ zero_extendqisi2
 145:Core/Src/lte.c ****             {
 1026              		.loc 1 145 15 view .LVU215
 1027 00f6 73B1     		cbz	r3, .L115
 1028              	.L77:
 151:Core/Src/lte.c ****             {
 1029              		.loc 1 151 13 is_stmt 1 view .LVU216
 151:Core/Src/lte.c ****             {
 1030              		.loc 1 151 40 is_stmt 0 view .LVU217
 1031 00f8 684B     		ldr	r3, .L146+4
 1032 00fa 1B78     		ldrb	r3, [r3]	@ zero_extendqisi2
 151:Core/Src/lte.c ****             {
 1033              		.loc 1 151 15 view .LVU218
 1034 00fc 012B     		cmp	r3, #1
 1035 00fe A8D1     		bne	.L52
 153:Core/Src/lte.c ****                 {
 1036              		.loc 1 153 17 is_stmt 1 view .LVU219
 153:Core/Src/lte.c ****                 {
 1037              		.loc 1 153 23 is_stmt 0 view .LVU220
 1038 0100 684B     		ldr	r3, .L146+12
 1039 0102 1B78     		ldrb	r3, [r3]	@ zero_extendqisi2
 153:Core/Src/lte.c ****                 {
 1040              		.loc 1 153 19 view .LVU221
 1041 0104 012B     		cmp	r3, #1
 1042 0106 12D0     		beq	.L116
 161:Core/Src/lte.c ****                 }
 1043              		.loc 1 161 21 is_stmt 1 view .LVU222
 161:Core/Src/lte.c ****                 }
 1044              		.loc 1 161 31 is_stmt 0 view .LVU223
 1045 0108 40F6B830 		movw	r0, #3000
 1046 010c FFF7FEFF 		bl	LTE_Delay
 1047              	.LVL61:
 161:Core/Src/lte.c ****                 }
 1048              		.loc 1 161 29 view .LVU224
 1049 0110 644B     		ldr	r3, .L146+12
 1050 0112 1870     		strb	r0, [r3]
 1051 0114 9DE7     		b	.L52
 1052              	.L115:
 147:Core/Src/lte.c ****                 LTE_Transmit(Tx_Buf);
 1053              		.loc 1 147 17 is_stmt 1 view .LVU225
 1054 0116 6B46     		mov	r3, sp
 1055 0118 644A     		ldr	r2, .L146+20
 1056 011a 07CA     		ldm	r2, {r0, r1, r2}
 1057 011c 83E80700 		stm	r3, {r0, r1, r2}
 148:Core/Src/lte.c ****                 uart_status = LTE_UART_STATUS_RECEIVE;
 1058              		.loc 1 148 17 view .LVU226
 1059 0120 1846     		mov	r0, r3
 1060 0122 FFF7FEFF 		bl	LTE_Transmit
 1061              	.LVL62:
 149:Core/Src/lte.c ****             }
 1062              		.loc 1 149 17 view .LVU227
 149:Core/Src/lte.c ****             }
 1063              		.loc 1 149 29 is_stmt 0 view .LVU228
 1064 0126 5D4B     		ldr	r3, .L146+4
 1065 0128 0122     		movs	r2, #1
 1066 012a 1A70     		strb	r2, [r3]
 1067 012c E4E7     		b	.L77
ARM GAS  C:\Users\jisu8\AppData\Local\Temp\cc49UglZ.s 			page 35


 1068              	.L116:
 155:Core/Src/lte.c ****                     stDelay = FAIL;
 1069              		.loc 1 155 21 is_stmt 1 view .LVU229
 155:Core/Src/lte.c ****                     stDelay = FAIL;
 1070              		.loc 1 155 34 is_stmt 0 view .LVU230
 1071 012e 0220     		movs	r0, #2
 1072 0130 FFF7FEFF 		bl	LTE_Receive_Check
 1073              	.LVL63:
 155:Core/Src/lte.c ****                     stDelay = FAIL;
 1074              		.loc 1 155 32 view .LVU231
 1075 0134 584B     		ldr	r3, .L146
 1076 0136 1870     		strb	r0, [r3]
 156:Core/Src/lte.c ****                     uart_status = LTE_UART_STATUS_TRANSMIT;
 1077              		.loc 1 156 21 is_stmt 1 view .LVU232
 156:Core/Src/lte.c ****                     uart_status = LTE_UART_STATUS_TRANSMIT;
 1078              		.loc 1 156 29 is_stmt 0 view .LVU233
 1079 0138 0023     		movs	r3, #0
 1080 013a 5A4A     		ldr	r2, .L146+12
 1081 013c 1370     		strb	r3, [r2]
 157:Core/Src/lte.c ****                 }
 1082              		.loc 1 157 21 is_stmt 1 view .LVU234
 157:Core/Src/lte.c ****                 }
 1083              		.loc 1 157 33 is_stmt 0 view .LVU235
 1084 013e 574A     		ldr	r2, .L146+4
 1085 0140 1370     		strb	r3, [r2]
 1086 0142 86E7     		b	.L52
 1087              	.L69:
 166:Core/Src/lte.c ****             {
 1088              		.loc 1 166 13 is_stmt 1 view .LVU236
 166:Core/Src/lte.c ****             {
 1089              		.loc 1 166 41 is_stmt 0 view .LVU237
 1090 0144 554B     		ldr	r3, .L146+4
 1091 0146 1B78     		ldrb	r3, [r3]	@ zero_extendqisi2
 166:Core/Src/lte.c ****             {
 1092              		.loc 1 166 15 view .LVU238
 1093 0148 7BB1     		cbz	r3, .L117
 1094              	.L79:
 172:Core/Src/lte.c ****             {
 1095              		.loc 1 172 13 is_stmt 1 view .LVU239
 172:Core/Src/lte.c ****             {
 1096              		.loc 1 172 40 is_stmt 0 view .LVU240
 1097 014a 544B     		ldr	r3, .L146+4
 1098 014c 1B78     		ldrb	r3, [r3]	@ zero_extendqisi2
 172:Core/Src/lte.c ****             {
 1099              		.loc 1 172 15 view .LVU241
 1100 014e 012B     		cmp	r3, #1
 1101 0150 7FF47FAF 		bne	.L52
 174:Core/Src/lte.c ****                 {
 1102              		.loc 1 174 17 is_stmt 1 view .LVU242
 174:Core/Src/lte.c ****                 {
 1103              		.loc 1 174 23 is_stmt 0 view .LVU243
 1104 0154 534B     		ldr	r3, .L146+12
 1105 0156 1B78     		ldrb	r3, [r3]	@ zero_extendqisi2
 174:Core/Src/lte.c ****                 {
 1106              		.loc 1 174 19 view .LVU244
 1107 0158 012B     		cmp	r3, #1
 1108 015a 15D0     		beq	.L118
ARM GAS  C:\Users\jisu8\AppData\Local\Temp\cc49UglZ.s 			page 36


 182:Core/Src/lte.c ****                 }
 1109              		.loc 1 182 21 is_stmt 1 view .LVU245
 182:Core/Src/lte.c ****                 }
 1110              		.loc 1 182 31 is_stmt 0 view .LVU246
 1111 015c 4FF4FA70 		mov	r0, #500
 1112 0160 FFF7FEFF 		bl	LTE_Delay
 1113              	.LVL64:
 182:Core/Src/lte.c ****                 }
 1114              		.loc 1 182 29 view .LVU247
 1115 0164 4F4B     		ldr	r3, .L146+12
 1116 0166 1870     		strb	r0, [r3]
 1117 0168 73E7     		b	.L52
 1118              	.L117:
 168:Core/Src/lte.c ****                 LTE_Transmit(Tx_Buf);
 1119              		.loc 1 168 17 is_stmt 1 view .LVU248
 1120 016a 6C46     		mov	r4, sp
 1121 016c 504D     		ldr	r5, .L146+24
 1122 016e 0FCD     		ldmia	r5!, {r0, r1, r2, r3}
 1123 0170 0FC4     		stmia	r4!, {r0, r1, r2, r3}
 1124 0172 95E80700 		ldm	r5, {r0, r1, r2}
 1125 0176 84E80700 		stm	r4, {r0, r1, r2}
 169:Core/Src/lte.c ****                 uart_status = LTE_UART_STATUS_RECEIVE;
 1126              		.loc 1 169 17 view .LVU249
 1127 017a 6846     		mov	r0, sp
 1128 017c FFF7FEFF 		bl	LTE_Transmit
 1129              	.LVL65:
 170:Core/Src/lte.c ****             }
 1130              		.loc 1 170 17 view .LVU250
 170:Core/Src/lte.c ****             }
 1131              		.loc 1 170 29 is_stmt 0 view .LVU251
 1132 0180 464B     		ldr	r3, .L146+4
 1133 0182 0122     		movs	r2, #1
 1134 0184 1A70     		strb	r2, [r3]
 1135 0186 E0E7     		b	.L79
 1136              	.L118:
 176:Core/Src/lte.c ****                     stDelay = FAIL;
 1137              		.loc 1 176 21 is_stmt 1 view .LVU252
 176:Core/Src/lte.c ****                     stDelay = FAIL;
 1138              		.loc 1 176 34 is_stmt 0 view .LVU253
 1139 0188 0320     		movs	r0, #3
 1140 018a FFF7FEFF 		bl	LTE_Receive_Check
 1141              	.LVL66:
 176:Core/Src/lte.c ****                     stDelay = FAIL;
 1142              		.loc 1 176 32 view .LVU254
 1143 018e 424B     		ldr	r3, .L146
 1144 0190 1870     		strb	r0, [r3]
 177:Core/Src/lte.c ****                     uart_status = LTE_UART_STATUS_TRANSMIT;
 1145              		.loc 1 177 21 is_stmt 1 view .LVU255
 177:Core/Src/lte.c ****                     uart_status = LTE_UART_STATUS_TRANSMIT;
 1146              		.loc 1 177 29 is_stmt 0 view .LVU256
 1147 0192 0023     		movs	r3, #0
 1148 0194 434A     		ldr	r2, .L146+12
 1149 0196 1370     		strb	r3, [r2]
 178:Core/Src/lte.c ****                 }
 1150              		.loc 1 178 21 is_stmt 1 view .LVU257
 178:Core/Src/lte.c ****                 }
 1151              		.loc 1 178 33 is_stmt 0 view .LVU258
ARM GAS  C:\Users\jisu8\AppData\Local\Temp\cc49UglZ.s 			page 37


 1152 0198 404A     		ldr	r2, .L146+4
 1153 019a 1370     		strb	r3, [r2]
 1154 019c 59E7     		b	.L52
 1155              	.L68:
 187:Core/Src/lte.c ****             {
 1156              		.loc 1 187 13 is_stmt 1 view .LVU259
 187:Core/Src/lte.c ****             {
 1157              		.loc 1 187 41 is_stmt 0 view .LVU260
 1158 019e 3F4B     		ldr	r3, .L146+4
 1159 01a0 1B78     		ldrb	r3, [r3]	@ zero_extendqisi2
 187:Core/Src/lte.c ****             {
 1160              		.loc 1 187 15 view .LVU261
 1161 01a2 7BB1     		cbz	r3, .L119
 1162              	.L81:
 193:Core/Src/lte.c ****             {   
 1163              		.loc 1 193 13 is_stmt 1 view .LVU262
 193:Core/Src/lte.c ****             {   
 1164              		.loc 1 193 40 is_stmt 0 view .LVU263
 1165 01a4 3D4B     		ldr	r3, .L146+4
 1166 01a6 1B78     		ldrb	r3, [r3]	@ zero_extendqisi2
 193:Core/Src/lte.c ****             {   
 1167              		.loc 1 193 15 view .LVU264
 1168 01a8 012B     		cmp	r3, #1
 1169 01aa 7FF452AF 		bne	.L52
 195:Core/Src/lte.c ****                 {
 1170              		.loc 1 195 17 is_stmt 1 view .LVU265
 195:Core/Src/lte.c ****                 {
 1171              		.loc 1 195 23 is_stmt 0 view .LVU266
 1172 01ae 3D4B     		ldr	r3, .L146+12
 1173 01b0 1B78     		ldrb	r3, [r3]	@ zero_extendqisi2
 195:Core/Src/lte.c ****                 {
 1174              		.loc 1 195 19 view .LVU267
 1175 01b2 012B     		cmp	r3, #1
 1176 01b4 12D0     		beq	.L120
 203:Core/Src/lte.c ****                 }
 1177              		.loc 1 203 21 is_stmt 1 view .LVU268
 203:Core/Src/lte.c ****                 }
 1178              		.loc 1 203 31 is_stmt 0 view .LVU269
 1179 01b6 40F6B830 		movw	r0, #3000
 1180 01ba FFF7FEFF 		bl	LTE_Delay
 1181              	.LVL67:
 203:Core/Src/lte.c ****                 }
 1182              		.loc 1 203 29 view .LVU270
 1183 01be 394B     		ldr	r3, .L146+12
 1184 01c0 1870     		strb	r0, [r3]
 1185 01c2 46E7     		b	.L52
 1186              	.L119:
 189:Core/Src/lte.c ****                 LTE_Transmit(Tx_Buf);
 1187              		.loc 1 189 17 is_stmt 1 view .LVU271
 1188 01c4 6B46     		mov	r3, sp
 1189 01c6 3B4A     		ldr	r2, .L146+28
 1190 01c8 07CA     		ldm	r2, {r0, r1, r2}
 1191 01ca 83E80700 		stm	r3, {r0, r1, r2}
 190:Core/Src/lte.c ****                 uart_status = LTE_UART_STATUS_RECEIVE;
 1192              		.loc 1 190 17 view .LVU272
 1193 01ce 1846     		mov	r0, r3
 1194 01d0 FFF7FEFF 		bl	LTE_Transmit
ARM GAS  C:\Users\jisu8\AppData\Local\Temp\cc49UglZ.s 			page 38


 1195              	.LVL68:
 191:Core/Src/lte.c ****             }
 1196              		.loc 1 191 17 view .LVU273
 191:Core/Src/lte.c ****             }
 1197              		.loc 1 191 29 is_stmt 0 view .LVU274
 1198 01d4 314B     		ldr	r3, .L146+4
 1199 01d6 0122     		movs	r2, #1
 1200 01d8 1A70     		strb	r2, [r3]
 1201 01da E3E7     		b	.L81
 1202              	.L120:
 197:Core/Src/lte.c ****                     stDelay = FAIL;
 1203              		.loc 1 197 21 is_stmt 1 view .LVU275
 197:Core/Src/lte.c ****                     stDelay = FAIL;
 1204              		.loc 1 197 34 is_stmt 0 view .LVU276
 1205 01dc 0420     		movs	r0, #4
 1206 01de FFF7FEFF 		bl	LTE_Receive_Check
 1207              	.LVL69:
 197:Core/Src/lte.c ****                     stDelay = FAIL;
 1208              		.loc 1 197 32 view .LVU277
 1209 01e2 2D4B     		ldr	r3, .L146
 1210 01e4 1870     		strb	r0, [r3]
 198:Core/Src/lte.c ****                     uart_status = LTE_UART_STATUS_TRANSMIT;
 1211              		.loc 1 198 21 is_stmt 1 view .LVU278
 198:Core/Src/lte.c ****                     uart_status = LTE_UART_STATUS_TRANSMIT;
 1212              		.loc 1 198 29 is_stmt 0 view .LVU279
 1213 01e6 0023     		movs	r3, #0
 1214 01e8 2E4A     		ldr	r2, .L146+12
 1215 01ea 1370     		strb	r3, [r2]
 199:Core/Src/lte.c ****                 }
 1216              		.loc 1 199 21 is_stmt 1 view .LVU280
 199:Core/Src/lte.c ****                 }
 1217              		.loc 1 199 33 is_stmt 0 view .LVU281
 1218 01ec 2B4A     		ldr	r2, .L146+4
 1219 01ee 1370     		strb	r3, [r2]
 1220 01f0 2FE7     		b	.L52
 1221              	.L67:
 208:Core/Src/lte.c ****             {
 1222              		.loc 1 208 13 is_stmt 1 view .LVU282
 208:Core/Src/lte.c ****             {
 1223              		.loc 1 208 41 is_stmt 0 view .LVU283
 1224 01f2 2A4B     		ldr	r3, .L146+4
 1225 01f4 1B78     		ldrb	r3, [r3]	@ zero_extendqisi2
 208:Core/Src/lte.c ****             {
 1226              		.loc 1 208 15 view .LVU284
 1227 01f6 73B1     		cbz	r3, .L121
 1228              	.L83:
 214:Core/Src/lte.c ****             {                
 1229              		.loc 1 214 13 is_stmt 1 view .LVU285
 214:Core/Src/lte.c ****             {                
 1230              		.loc 1 214 40 is_stmt 0 view .LVU286
 1231 01f8 284B     		ldr	r3, .L146+4
 1232 01fa 1B78     		ldrb	r3, [r3]	@ zero_extendqisi2
 214:Core/Src/lte.c ****             {                
 1233              		.loc 1 214 15 view .LVU287
 1234 01fc 012B     		cmp	r3, #1
 1235 01fe 7FF428AF 		bne	.L52
 216:Core/Src/lte.c ****                 {
ARM GAS  C:\Users\jisu8\AppData\Local\Temp\cc49UglZ.s 			page 39


 1236              		.loc 1 216 17 is_stmt 1 view .LVU288
 216:Core/Src/lte.c ****                 {
 1237              		.loc 1 216 23 is_stmt 0 view .LVU289
 1238 0202 284B     		ldr	r3, .L146+12
 1239 0204 1B78     		ldrb	r3, [r3]	@ zero_extendqisi2
 216:Core/Src/lte.c ****                 {
 1240              		.loc 1 216 19 view .LVU290
 1241 0206 012B     		cmp	r3, #1
 1242 0208 11D0     		beq	.L122
 224:Core/Src/lte.c ****                 }
 1243              		.loc 1 224 21 is_stmt 1 view .LVU291
 224:Core/Src/lte.c ****                 }
 1244              		.loc 1 224 31 is_stmt 0 view .LVU292
 1245 020a 6420     		movs	r0, #100
 1246 020c FFF7FEFF 		bl	LTE_Delay
 1247              	.LVL70:
 224:Core/Src/lte.c ****                 }
 1248              		.loc 1 224 29 view .LVU293
 1249 0210 244B     		ldr	r3, .L146+12
 1250 0212 1870     		strb	r0, [r3]
 1251 0214 1DE7     		b	.L52
 1252              	.L121:
 210:Core/Src/lte.c ****                 LTE_Transmit(Tx_Buf);
 1253              		.loc 1 210 17 is_stmt 1 view .LVU294
 1254 0216 284A     		ldr	r2, .L146+32
 1255 0218 6B46     		mov	r3, sp
 1256 021a 07CA     		ldm	r2, {r0, r1, r2}
 1257 021c 03C3     		stmia	r3!, {r0, r1}
 1258 021e 1A80     		strh	r2, [r3]	@ movhi
 211:Core/Src/lte.c ****                 uart_status = LTE_UART_STATUS_RECEIVE;
 1259              		.loc 1 211 17 view .LVU295
 1260 0220 6846     		mov	r0, sp
 1261 0222 FFF7FEFF 		bl	LTE_Transmit
 1262              	.LVL71:
 212:Core/Src/lte.c ****             }
 1263              		.loc 1 212 17 view .LVU296
 212:Core/Src/lte.c ****             }
 1264              		.loc 1 212 29 is_stmt 0 view .LVU297
 1265 0226 1D4B     		ldr	r3, .L146+4
 1266 0228 0122     		movs	r2, #1
 1267 022a 1A70     		strb	r2, [r3]
 1268 022c E4E7     		b	.L83
 1269              	.L122:
 218:Core/Src/lte.c ****                     stDelay = FAIL;
 1270              		.loc 1 218 21 is_stmt 1 view .LVU298
 218:Core/Src/lte.c ****                     stDelay = FAIL;
 1271              		.loc 1 218 34 is_stmt 0 view .LVU299
 1272 022e 0520     		movs	r0, #5
 1273 0230 FFF7FEFF 		bl	LTE_Receive_Check
 1274              	.LVL72:
 218:Core/Src/lte.c ****                     stDelay = FAIL;
 1275              		.loc 1 218 32 view .LVU300
 1276 0234 184B     		ldr	r3, .L146
 1277 0236 1870     		strb	r0, [r3]
 219:Core/Src/lte.c ****                     uart_status = LTE_UART_STATUS_TRANSMIT;
 1278              		.loc 1 219 21 is_stmt 1 view .LVU301
 219:Core/Src/lte.c ****                     uart_status = LTE_UART_STATUS_TRANSMIT;
ARM GAS  C:\Users\jisu8\AppData\Local\Temp\cc49UglZ.s 			page 40


 1279              		.loc 1 219 29 is_stmt 0 view .LVU302
 1280 0238 0023     		movs	r3, #0
 1281 023a 1A4A     		ldr	r2, .L146+12
 1282 023c 1370     		strb	r3, [r2]
 220:Core/Src/lte.c ****                 }
 1283              		.loc 1 220 21 is_stmt 1 view .LVU303
 220:Core/Src/lte.c ****                 }
 1284              		.loc 1 220 33 is_stmt 0 view .LVU304
 1285 023e 174A     		ldr	r2, .L146+4
 1286 0240 1370     		strb	r3, [r2]
 1287 0242 06E7     		b	.L52
 1288              	.L66:
 229:Core/Src/lte.c ****             {
 1289              		.loc 1 229 13 is_stmt 1 view .LVU305
 229:Core/Src/lte.c ****             {
 1290              		.loc 1 229 41 is_stmt 0 view .LVU306
 1291 0244 154B     		ldr	r3, .L146+4
 1292 0246 1B78     		ldrb	r3, [r3]	@ zero_extendqisi2
 229:Core/Src/lte.c ****             {
 1293              		.loc 1 229 15 view .LVU307
 1294 0248 73B1     		cbz	r3, .L123
 1295              	.L85:
 235:Core/Src/lte.c ****             {
 1296              		.loc 1 235 13 is_stmt 1 view .LVU308
 235:Core/Src/lte.c ****             {
 1297              		.loc 1 235 40 is_stmt 0 view .LVU309
 1298 024a 144B     		ldr	r3, .L146+4
 1299 024c 1B78     		ldrb	r3, [r3]	@ zero_extendqisi2
 235:Core/Src/lte.c ****             {
 1300              		.loc 1 235 15 view .LVU310
 1301 024e 012B     		cmp	r3, #1
 1302 0250 7FF4FFAE 		bne	.L52
 237:Core/Src/lte.c ****                 {
 1303              		.loc 1 237 17 is_stmt 1 view .LVU311
 237:Core/Src/lte.c ****                 {
 1304              		.loc 1 237 23 is_stmt 0 view .LVU312
 1305 0254 134B     		ldr	r3, .L146+12
 1306 0256 1B78     		ldrb	r3, [r3]	@ zero_extendqisi2
 237:Core/Src/lte.c ****                 {
 1307              		.loc 1 237 19 view .LVU313
 1308 0258 012B     		cmp	r3, #1
 1309 025a 11D0     		beq	.L124
 245:Core/Src/lte.c ****                 }
 1310              		.loc 1 245 21 is_stmt 1 view .LVU314
 245:Core/Src/lte.c ****                 }
 1311              		.loc 1 245 31 is_stmt 0 view .LVU315
 1312 025c 6420     		movs	r0, #100
 1313 025e FFF7FEFF 		bl	LTE_Delay
 1314              	.LVL73:
 245:Core/Src/lte.c ****                 }
 1315              		.loc 1 245 29 view .LVU316
 1316 0262 104B     		ldr	r3, .L146+12
 1317 0264 1870     		strb	r0, [r3]
 1318 0266 F4E6     		b	.L52
 1319              	.L123:
 231:Core/Src/lte.c ****                 LTE_Transmit(Tx_Buf);
 1320              		.loc 1 231 17 is_stmt 1 view .LVU317
ARM GAS  C:\Users\jisu8\AppData\Local\Temp\cc49UglZ.s 			page 41


 1321 0268 144B     		ldr	r3, .L146+36
 1322 026a 6C46     		mov	r4, sp
 1323 026c 0FCB     		ldm	r3, {r0, r1, r2, r3}
 1324 026e 07C4     		stmia	r4!, {r0, r1, r2}
 1325 0270 2370     		strb	r3, [r4]
 232:Core/Src/lte.c ****                 uart_status = LTE_UART_STATUS_RECEIVE;
 1326              		.loc 1 232 17 view .LVU318
 1327 0272 6846     		mov	r0, sp
 1328 0274 FFF7FEFF 		bl	LTE_Transmit
 1329              	.LVL74:
 233:Core/Src/lte.c ****             }
 1330              		.loc 1 233 17 view .LVU319
 233:Core/Src/lte.c ****             }
 1331              		.loc 1 233 29 is_stmt 0 view .LVU320
 1332 0278 084B     		ldr	r3, .L146+4
 1333 027a 0122     		movs	r2, #1
 1334 027c 1A70     		strb	r2, [r3]
 1335 027e E4E7     		b	.L85
 1336              	.L124:
 239:Core/Src/lte.c ****                     stDelay = FAIL;
 1337              		.loc 1 239 21 is_stmt 1 view .LVU321
 239:Core/Src/lte.c ****                     stDelay = FAIL;
 1338              		.loc 1 239 34 is_stmt 0 view .LVU322
 1339 0280 0620     		movs	r0, #6
 1340 0282 FFF7FEFF 		bl	LTE_Receive_Check
 1341              	.LVL75:
 239:Core/Src/lte.c ****                     stDelay = FAIL;
 1342              		.loc 1 239 32 view .LVU323
 1343 0286 044B     		ldr	r3, .L146
 1344 0288 1870     		strb	r0, [r3]
 240:Core/Src/lte.c ****                     uart_status = LTE_UART_STATUS_TRANSMIT;
 1345              		.loc 1 240 21 is_stmt 1 view .LVU324
 240:Core/Src/lte.c ****                     uart_status = LTE_UART_STATUS_TRANSMIT;
 1346              		.loc 1 240 29 is_stmt 0 view .LVU325
 1347 028a 0023     		movs	r3, #0
 1348 028c 054A     		ldr	r2, .L146+12
 1349 028e 1370     		strb	r3, [r2]
 241:Core/Src/lte.c ****                 }
 1350              		.loc 1 241 21 is_stmt 1 view .LVU326
 241:Core/Src/lte.c ****                 }
 1351              		.loc 1 241 33 is_stmt 0 view .LVU327
 1352 0290 024A     		ldr	r2, .L146+4
 1353 0292 1370     		strb	r3, [r2]
 1354 0294 DDE6     		b	.L52
 1355              	.L147:
 1356 0296 00BF     		.align	2
 1357              	.L146:
 1358 0298 00000000 		.word	.LANCHOR19
 1359 029c 00000000 		.word	.LANCHOR20
 1360 02a0 00000000 		.word	.LC4
 1361 02a4 00000000 		.word	.LANCHOR21
 1362 02a8 08000000 		.word	.LC5
 1363 02ac 14000000 		.word	.LC6
 1364 02b0 20000000 		.word	.LC7
 1365 02b4 3C000000 		.word	.LC8
 1366 02b8 48000000 		.word	.LC9
 1367 02bc 54000000 		.word	.LC10
ARM GAS  C:\Users\jisu8\AppData\Local\Temp\cc49UglZ.s 			page 42


 1368              	.L65:
 250:Core/Src/lte.c ****             {
 1369              		.loc 1 250 13 is_stmt 1 view .LVU328
 250:Core/Src/lte.c ****             {
 1370              		.loc 1 250 41 is_stmt 0 view .LVU329
 1371 02c0 A24B     		ldr	r3, .L148
 1372 02c2 1B78     		ldrb	r3, [r3]	@ zero_extendqisi2
 250:Core/Src/lte.c ****             {
 1373              		.loc 1 250 15 view .LVU330
 1374 02c4 7BB1     		cbz	r3, .L125
 1375              	.L87:
 256:Core/Src/lte.c ****             {                
 1376              		.loc 1 256 13 is_stmt 1 view .LVU331
 256:Core/Src/lte.c ****             {                
 1377              		.loc 1 256 40 is_stmt 0 view .LVU332
 1378 02c6 A14B     		ldr	r3, .L148
 1379 02c8 1B78     		ldrb	r3, [r3]	@ zero_extendqisi2
 256:Core/Src/lte.c ****             {                
 1380              		.loc 1 256 15 view .LVU333
 1381 02ca 012B     		cmp	r3, #1
 1382 02cc 7FF4C1AE 		bne	.L52
 258:Core/Src/lte.c ****                 {
 1383              		.loc 1 258 17 is_stmt 1 view .LVU334
 258:Core/Src/lte.c ****                 {
 1384              		.loc 1 258 23 is_stmt 0 view .LVU335
 1385 02d0 9F4B     		ldr	r3, .L148+4
 1386 02d2 1B78     		ldrb	r3, [r3]	@ zero_extendqisi2
 258:Core/Src/lte.c ****                 {
 1387              		.loc 1 258 19 view .LVU336
 1388 02d4 012B     		cmp	r3, #1
 1389 02d6 13D0     		beq	.L126
 266:Core/Src/lte.c ****                 }
 1390              		.loc 1 266 21 is_stmt 1 view .LVU337
 266:Core/Src/lte.c ****                 }
 1391              		.loc 1 266 31 is_stmt 0 view .LVU338
 1392 02d8 4FF47A70 		mov	r0, #1000
 1393 02dc FFF7FEFF 		bl	LTE_Delay
 1394              	.LVL76:
 266:Core/Src/lte.c ****                 }
 1395              		.loc 1 266 29 view .LVU339
 1396 02e0 9B4B     		ldr	r3, .L148+4
 1397 02e2 1870     		strb	r0, [r3]
 1398 02e4 B5E6     		b	.L52
 1399              	.L125:
 252:Core/Src/lte.c ****                 LTE_Transmit(Tx_Buf);
 1400              		.loc 1 252 17 is_stmt 1 view .LVU340
 1401 02e6 6C46     		mov	r4, sp
 1402 02e8 9A4D     		ldr	r5, .L148+8
 1403 02ea 0FCD     		ldmia	r5!, {r0, r1, r2, r3}
 1404 02ec 0FC4     		stmia	r4!, {r0, r1, r2, r3}
 1405 02ee 2B68     		ldr	r3, [r5]
 1406 02f0 2380     		strh	r3, [r4]	@ movhi
 253:Core/Src/lte.c ****                 uart_status = LTE_UART_STATUS_RECEIVE;
 1407              		.loc 1 253 17 view .LVU341
 1408 02f2 6846     		mov	r0, sp
 1409 02f4 FFF7FEFF 		bl	LTE_Transmit
 1410              	.LVL77:
ARM GAS  C:\Users\jisu8\AppData\Local\Temp\cc49UglZ.s 			page 43


 254:Core/Src/lte.c ****             }
 1411              		.loc 1 254 17 view .LVU342
 254:Core/Src/lte.c ****             }
 1412              		.loc 1 254 29 is_stmt 0 view .LVU343
 1413 02f8 944B     		ldr	r3, .L148
 1414 02fa 0122     		movs	r2, #1
 1415 02fc 1A70     		strb	r2, [r3]
 1416 02fe E2E7     		b	.L87
 1417              	.L126:
 260:Core/Src/lte.c ****                     stDelay = FAIL;
 1418              		.loc 1 260 21 is_stmt 1 view .LVU344
 260:Core/Src/lte.c ****                     stDelay = FAIL;
 1419              		.loc 1 260 34 is_stmt 0 view .LVU345
 1420 0300 0720     		movs	r0, #7
 1421 0302 FFF7FEFF 		bl	LTE_Receive_Check
 1422              	.LVL78:
 260:Core/Src/lte.c ****                     stDelay = FAIL;
 1423              		.loc 1 260 32 view .LVU346
 1424 0306 944B     		ldr	r3, .L148+12
 1425 0308 1870     		strb	r0, [r3]
 261:Core/Src/lte.c ****                     uart_status = LTE_UART_STATUS_TRANSMIT;
 1426              		.loc 1 261 21 is_stmt 1 view .LVU347
 261:Core/Src/lte.c ****                     uart_status = LTE_UART_STATUS_TRANSMIT;
 1427              		.loc 1 261 29 is_stmt 0 view .LVU348
 1428 030a 0023     		movs	r3, #0
 1429 030c 904A     		ldr	r2, .L148+4
 1430 030e 1370     		strb	r3, [r2]
 262:Core/Src/lte.c ****                 }
 1431              		.loc 1 262 21 is_stmt 1 view .LVU349
 262:Core/Src/lte.c ****                 }
 1432              		.loc 1 262 33 is_stmt 0 view .LVU350
 1433 0310 8E4A     		ldr	r2, .L148
 1434 0312 1370     		strb	r3, [r2]
 1435 0314 9DE6     		b	.L52
 1436              	.L64:
 271:Core/Src/lte.c ****             {
 1437              		.loc 1 271 13 is_stmt 1 view .LVU351
 271:Core/Src/lte.c ****             {
 1438              		.loc 1 271 41 is_stmt 0 view .LVU352
 1439 0316 8D4B     		ldr	r3, .L148
 1440 0318 1B78     		ldrb	r3, [r3]	@ zero_extendqisi2
 271:Core/Src/lte.c ****             {
 1441              		.loc 1 271 15 view .LVU353
 1442 031a 7BB1     		cbz	r3, .L127
 1443              	.L89:
 277:Core/Src/lte.c ****             {                
 1444              		.loc 1 277 13 is_stmt 1 view .LVU354
 277:Core/Src/lte.c ****             {                
 1445              		.loc 1 277 40 is_stmt 0 view .LVU355
 1446 031c 8B4B     		ldr	r3, .L148
 1447 031e 1B78     		ldrb	r3, [r3]	@ zero_extendqisi2
 277:Core/Src/lte.c ****             {                
 1448              		.loc 1 277 15 view .LVU356
 1449 0320 012B     		cmp	r3, #1
 1450 0322 7FF496AE 		bne	.L52
 279:Core/Src/lte.c ****                 {
 1451              		.loc 1 279 17 is_stmt 1 view .LVU357
ARM GAS  C:\Users\jisu8\AppData\Local\Temp\cc49UglZ.s 			page 44


 279:Core/Src/lte.c ****                 {
 1452              		.loc 1 279 23 is_stmt 0 view .LVU358
 1453 0326 8A4B     		ldr	r3, .L148+4
 1454 0328 1B78     		ldrb	r3, [r3]	@ zero_extendqisi2
 279:Core/Src/lte.c ****                 {
 1455              		.loc 1 279 19 view .LVU359
 1456 032a 012B     		cmp	r3, #1
 1457 032c 12D0     		beq	.L128
 287:Core/Src/lte.c ****                 }
 1458              		.loc 1 287 21 is_stmt 1 view .LVU360
 287:Core/Src/lte.c ****                 }
 1459              		.loc 1 287 31 is_stmt 0 view .LVU361
 1460 032e 4FF47A70 		mov	r0, #1000
 1461 0332 FFF7FEFF 		bl	LTE_Delay
 1462              	.LVL79:
 287:Core/Src/lte.c ****                 }
 1463              		.loc 1 287 29 view .LVU362
 1464 0336 864B     		ldr	r3, .L148+4
 1465 0338 1870     		strb	r0, [r3]
 1466 033a 8AE6     		b	.L52
 1467              	.L127:
 273:Core/Src/lte.c ****                 LTE_Transmit(Tx_Buf);
 1468              		.loc 1 273 17 is_stmt 1 view .LVU363
 1469 033c 6C46     		mov	r4, sp
 1470 033e 874B     		ldr	r3, .L148+16
 1471 0340 0FCB     		ldm	r3, {r0, r1, r2, r3}
 1472 0342 84E80F00 		stm	r4, {r0, r1, r2, r3}
 274:Core/Src/lte.c ****                 uart_status = LTE_UART_STATUS_RECEIVE;
 1473              		.loc 1 274 17 view .LVU364
 1474 0346 2046     		mov	r0, r4
 1475 0348 FFF7FEFF 		bl	LTE_Transmit
 1476              	.LVL80:
 275:Core/Src/lte.c ****             }
 1477              		.loc 1 275 17 view .LVU365
 275:Core/Src/lte.c ****             }
 1478              		.loc 1 275 29 is_stmt 0 view .LVU366
 1479 034c 7F4B     		ldr	r3, .L148
 1480 034e 0122     		movs	r2, #1
 1481 0350 1A70     		strb	r2, [r3]
 1482 0352 E3E7     		b	.L89
 1483              	.L128:
 281:Core/Src/lte.c ****                     stDelay = FAIL;
 1484              		.loc 1 281 21 is_stmt 1 view .LVU367
 281:Core/Src/lte.c ****                     stDelay = FAIL;
 1485              		.loc 1 281 34 is_stmt 0 view .LVU368
 1486 0354 0820     		movs	r0, #8
 1487 0356 FFF7FEFF 		bl	LTE_Receive_Check
 1488              	.LVL81:
 281:Core/Src/lte.c ****                     stDelay = FAIL;
 1489              		.loc 1 281 32 view .LVU369
 1490 035a 7F4B     		ldr	r3, .L148+12
 1491 035c 1870     		strb	r0, [r3]
 282:Core/Src/lte.c ****                     uart_status = LTE_UART_STATUS_TRANSMIT;
 1492              		.loc 1 282 21 is_stmt 1 view .LVU370
 282:Core/Src/lte.c ****                     uart_status = LTE_UART_STATUS_TRANSMIT;
 1493              		.loc 1 282 29 is_stmt 0 view .LVU371
 1494 035e 0023     		movs	r3, #0
ARM GAS  C:\Users\jisu8\AppData\Local\Temp\cc49UglZ.s 			page 45


 1495 0360 7B4A     		ldr	r2, .L148+4
 1496 0362 1370     		strb	r3, [r2]
 283:Core/Src/lte.c ****                 }
 1497              		.loc 1 283 21 is_stmt 1 view .LVU372
 283:Core/Src/lte.c ****                 }
 1498              		.loc 1 283 33 is_stmt 0 view .LVU373
 1499 0364 794A     		ldr	r2, .L148
 1500 0366 1370     		strb	r3, [r2]
 1501 0368 73E6     		b	.L52
 1502              	.L63:
 292:Core/Src/lte.c ****             {
 1503              		.loc 1 292 13 is_stmt 1 view .LVU374
 292:Core/Src/lte.c ****             {
 1504              		.loc 1 292 41 is_stmt 0 view .LVU375
 1505 036a 784B     		ldr	r3, .L148
 1506 036c 1B78     		ldrb	r3, [r3]	@ zero_extendqisi2
 292:Core/Src/lte.c ****             {
 1507              		.loc 1 292 15 view .LVU376
 1508 036e 7BB1     		cbz	r3, .L129
 1509              	.L91:
 298:Core/Src/lte.c ****             {                
 1510              		.loc 1 298 13 is_stmt 1 view .LVU377
 298:Core/Src/lte.c ****             {                
 1511              		.loc 1 298 40 is_stmt 0 view .LVU378
 1512 0370 764B     		ldr	r3, .L148
 1513 0372 1B78     		ldrb	r3, [r3]	@ zero_extendqisi2
 298:Core/Src/lte.c ****             {                
 1514              		.loc 1 298 15 view .LVU379
 1515 0374 012B     		cmp	r3, #1
 1516 0376 7FF46CAE 		bne	.L52
 300:Core/Src/lte.c ****                 {
 1517              		.loc 1 300 17 is_stmt 1 view .LVU380
 300:Core/Src/lte.c ****                 {
 1518              		.loc 1 300 23 is_stmt 0 view .LVU381
 1519 037a 754B     		ldr	r3, .L148+4
 1520 037c 1B78     		ldrb	r3, [r3]	@ zero_extendqisi2
 300:Core/Src/lte.c ****                 {
 1521              		.loc 1 300 19 view .LVU382
 1522 037e 012B     		cmp	r3, #1
 1523 0380 15D0     		beq	.L130
 308:Core/Src/lte.c ****                 }
 1524              		.loc 1 308 21 is_stmt 1 view .LVU383
 308:Core/Src/lte.c ****                 }
 1525              		.loc 1 308 31 is_stmt 0 view .LVU384
 1526 0382 4FF4FA50 		mov	r0, #8000
 1527 0386 FFF7FEFF 		bl	LTE_Delay
 1528              	.LVL82:
 308:Core/Src/lte.c ****                 }
 1529              		.loc 1 308 29 view .LVU385
 1530 038a 714B     		ldr	r3, .L148+4
 1531 038c 1870     		strb	r0, [r3]
 1532 038e 60E6     		b	.L52
 1533              	.L129:
 294:Core/Src/lte.c ****                 LTE_Transmit(Tx_Buf);
 1534              		.loc 1 294 17 is_stmt 1 view .LVU386
 1535 0390 734B     		ldr	r3, .L148+20
 1536 0392 6C46     		mov	r4, sp
ARM GAS  C:\Users\jisu8\AppData\Local\Temp\cc49UglZ.s 			page 46


 1537 0394 0FCB     		ldm	r3, {r0, r1, r2, r3}
 1538 0396 07C4     		stmia	r4!, {r0, r1, r2}
 1539 0398 24F8023B 		strh	r3, [r4], #2	@ movhi
 1540 039c 1B0C     		lsrs	r3, r3, #16
 1541 039e 2370     		strb	r3, [r4]
 295:Core/Src/lte.c ****                 uart_status = LTE_UART_STATUS_RECEIVE;
 1542              		.loc 1 295 17 view .LVU387
 1543 03a0 6846     		mov	r0, sp
 1544 03a2 FFF7FEFF 		bl	LTE_Transmit
 1545              	.LVL83:
 296:Core/Src/lte.c ****             }
 1546              		.loc 1 296 17 view .LVU388
 296:Core/Src/lte.c ****             }
 1547              		.loc 1 296 29 is_stmt 0 view .LVU389
 1548 03a6 694B     		ldr	r3, .L148
 1549 03a8 0122     		movs	r2, #1
 1550 03aa 1A70     		strb	r2, [r3]
 1551 03ac E0E7     		b	.L91
 1552              	.L130:
 302:Core/Src/lte.c ****                     stDelay = FAIL;
 1553              		.loc 1 302 21 is_stmt 1 view .LVU390
 302:Core/Src/lte.c ****                     stDelay = FAIL;
 1554              		.loc 1 302 34 is_stmt 0 view .LVU391
 1555 03ae 0920     		movs	r0, #9
 1556 03b0 FFF7FEFF 		bl	LTE_Receive_Check
 1557              	.LVL84:
 302:Core/Src/lte.c ****                     stDelay = FAIL;
 1558              		.loc 1 302 32 view .LVU392
 1559 03b4 684B     		ldr	r3, .L148+12
 1560 03b6 1870     		strb	r0, [r3]
 303:Core/Src/lte.c ****                     uart_status = LTE_UART_STATUS_TRANSMIT;
 1561              		.loc 1 303 21 is_stmt 1 view .LVU393
 303:Core/Src/lte.c ****                     uart_status = LTE_UART_STATUS_TRANSMIT;
 1562              		.loc 1 303 29 is_stmt 0 view .LVU394
 1563 03b8 0023     		movs	r3, #0
 1564 03ba 654A     		ldr	r2, .L148+4
 1565 03bc 1370     		strb	r3, [r2]
 304:Core/Src/lte.c ****                 }
 1566              		.loc 1 304 21 is_stmt 1 view .LVU395
 304:Core/Src/lte.c ****                 }
 1567              		.loc 1 304 33 is_stmt 0 view .LVU396
 1568 03be 634A     		ldr	r2, .L148
 1569 03c0 1370     		strb	r3, [r2]
 1570 03c2 46E6     		b	.L52
 1571              	.L62:
 313:Core/Src/lte.c ****             {
 1572              		.loc 1 313 13 is_stmt 1 view .LVU397
 313:Core/Src/lte.c ****             {
 1573              		.loc 1 313 41 is_stmt 0 view .LVU398
 1574 03c4 614B     		ldr	r3, .L148
 1575 03c6 1B78     		ldrb	r3, [r3]	@ zero_extendqisi2
 313:Core/Src/lte.c ****             {
 1576              		.loc 1 313 15 view .LVU399
 1577 03c8 7BB1     		cbz	r3, .L131
 1578              	.L93:
 319:Core/Src/lte.c ****             {                
 1579              		.loc 1 319 13 is_stmt 1 view .LVU400
ARM GAS  C:\Users\jisu8\AppData\Local\Temp\cc49UglZ.s 			page 47


 319:Core/Src/lte.c ****             {                
 1580              		.loc 1 319 40 is_stmt 0 view .LVU401
 1581 03ca 604B     		ldr	r3, .L148
 1582 03cc 1B78     		ldrb	r3, [r3]	@ zero_extendqisi2
 319:Core/Src/lte.c ****             {                
 1583              		.loc 1 319 15 view .LVU402
 1584 03ce 012B     		cmp	r3, #1
 1585 03d0 7FF43FAE 		bne	.L52
 321:Core/Src/lte.c ****                 {
 1586              		.loc 1 321 17 is_stmt 1 view .LVU403
 321:Core/Src/lte.c ****                 {
 1587              		.loc 1 321 23 is_stmt 0 view .LVU404
 1588 03d4 5E4B     		ldr	r3, .L148+4
 1589 03d6 1B78     		ldrb	r3, [r3]	@ zero_extendqisi2
 321:Core/Src/lte.c ****                 {
 1590              		.loc 1 321 19 view .LVU405
 1591 03d8 012B     		cmp	r3, #1
 1592 03da 15D0     		beq	.L132
 329:Core/Src/lte.c ****                 }
 1593              		.loc 1 329 21 is_stmt 1 view .LVU406
 329:Core/Src/lte.c ****                 }
 1594              		.loc 1 329 31 is_stmt 0 view .LVU407
 1595 03dc 4FF47A70 		mov	r0, #1000
 1596 03e0 FFF7FEFF 		bl	LTE_Delay
 1597              	.LVL85:
 329:Core/Src/lte.c ****                 }
 1598              		.loc 1 329 29 view .LVU408
 1599 03e4 5A4B     		ldr	r3, .L148+4
 1600 03e6 1870     		strb	r0, [r3]
 1601 03e8 33E6     		b	.L52
 1602              	.L131:
 315:Core/Src/lte.c ****                 LTE_Transmit(Tx_Buf);
 1603              		.loc 1 315 17 is_stmt 1 view .LVU409
 1604 03ea 5E4B     		ldr	r3, .L148+24
 1605 03ec 6C46     		mov	r4, sp
 1606 03ee 0FCB     		ldm	r3, {r0, r1, r2, r3}
 1607 03f0 07C4     		stmia	r4!, {r0, r1, r2}
 1608 03f2 24F8023B 		strh	r3, [r4], #2	@ movhi
 1609 03f6 1B0C     		lsrs	r3, r3, #16
 1610 03f8 2370     		strb	r3, [r4]
 316:Core/Src/lte.c ****                 uart_status = LTE_UART_STATUS_RECEIVE;
 1611              		.loc 1 316 17 view .LVU410
 1612 03fa 6846     		mov	r0, sp
 1613 03fc FFF7FEFF 		bl	LTE_Transmit
 1614              	.LVL86:
 317:Core/Src/lte.c ****             }
 1615              		.loc 1 317 17 view .LVU411
 317:Core/Src/lte.c ****             }
 1616              		.loc 1 317 29 is_stmt 0 view .LVU412
 1617 0400 524B     		ldr	r3, .L148
 1618 0402 0122     		movs	r2, #1
 1619 0404 1A70     		strb	r2, [r3]
 1620 0406 E0E7     		b	.L93
 1621              	.L132:
 323:Core/Src/lte.c ****                     stDelay = FAIL;
 1622              		.loc 1 323 21 is_stmt 1 view .LVU413
 323:Core/Src/lte.c ****                     stDelay = FAIL;
ARM GAS  C:\Users\jisu8\AppData\Local\Temp\cc49UglZ.s 			page 48


 1623              		.loc 1 323 34 is_stmt 0 view .LVU414
 1624 0408 0A20     		movs	r0, #10
 1625 040a FFF7FEFF 		bl	LTE_Receive_Check
 1626              	.LVL87:
 323:Core/Src/lte.c ****                     stDelay = FAIL;
 1627              		.loc 1 323 32 view .LVU415
 1628 040e 524B     		ldr	r3, .L148+12
 1629 0410 1870     		strb	r0, [r3]
 324:Core/Src/lte.c ****                     uart_status = LTE_UART_STATUS_TRANSMIT;
 1630              		.loc 1 324 21 is_stmt 1 view .LVU416
 324:Core/Src/lte.c ****                     uart_status = LTE_UART_STATUS_TRANSMIT;
 1631              		.loc 1 324 29 is_stmt 0 view .LVU417
 1632 0412 0023     		movs	r3, #0
 1633 0414 4E4A     		ldr	r2, .L148+4
 1634 0416 1370     		strb	r3, [r2]
 325:Core/Src/lte.c ****                 }
 1635              		.loc 1 325 21 is_stmt 1 view .LVU418
 325:Core/Src/lte.c ****                 }
 1636              		.loc 1 325 33 is_stmt 0 view .LVU419
 1637 0418 4C4A     		ldr	r2, .L148
 1638 041a 1370     		strb	r3, [r2]
 1639 041c 19E6     		b	.L52
 1640              	.L61:
 334:Core/Src/lte.c ****             {
 1641              		.loc 1 334 13 is_stmt 1 view .LVU420
 334:Core/Src/lte.c ****             {
 1642              		.loc 1 334 41 is_stmt 0 view .LVU421
 1643 041e 4B4B     		ldr	r3, .L148
 1644 0420 1B78     		ldrb	r3, [r3]	@ zero_extendqisi2
 334:Core/Src/lte.c ****             {
 1645              		.loc 1 334 15 view .LVU422
 1646 0422 73B1     		cbz	r3, .L133
 1647              	.L95:
 340:Core/Src/lte.c ****             {                
 1648              		.loc 1 340 13 is_stmt 1 view .LVU423
 340:Core/Src/lte.c ****             {                
 1649              		.loc 1 340 40 is_stmt 0 view .LVU424
 1650 0424 494B     		ldr	r3, .L148
 1651 0426 1B78     		ldrb	r3, [r3]	@ zero_extendqisi2
 340:Core/Src/lte.c ****             {                
 1652              		.loc 1 340 15 view .LVU425
 1653 0428 012B     		cmp	r3, #1
 1654 042a 7FF412AE 		bne	.L52
 342:Core/Src/lte.c ****                 {
 1655              		.loc 1 342 17 is_stmt 1 view .LVU426
 342:Core/Src/lte.c ****                 {
 1656              		.loc 1 342 23 is_stmt 0 view .LVU427
 1657 042e 484B     		ldr	r3, .L148+4
 1658 0430 1B78     		ldrb	r3, [r3]	@ zero_extendqisi2
 342:Core/Src/lte.c ****                 {
 1659              		.loc 1 342 19 view .LVU428
 1660 0432 012B     		cmp	r3, #1
 1661 0434 14D0     		beq	.L134
 350:Core/Src/lte.c ****                 }
 1662              		.loc 1 350 21 is_stmt 1 view .LVU429
 350:Core/Src/lte.c ****                 }
 1663              		.loc 1 350 31 is_stmt 0 view .LVU430
ARM GAS  C:\Users\jisu8\AppData\Local\Temp\cc49UglZ.s 			page 49


 1664 0436 3220     		movs	r0, #50
 1665 0438 FFF7FEFF 		bl	LTE_Delay
 1666              	.LVL88:
 350:Core/Src/lte.c ****                 }
 1667              		.loc 1 350 29 view .LVU431
 1668 043c 444B     		ldr	r3, .L148+4
 1669 043e 1870     		strb	r0, [r3]
 1670 0440 07E6     		b	.L52
 1671              	.L133:
 336:Core/Src/lte.c ****                 LTE_Transmit(Tx_Buf);
 1672              		.loc 1 336 17 is_stmt 1 view .LVU432
 1673 0442 6C46     		mov	r4, sp
 1674 0444 484D     		ldr	r5, .L148+28
 1675 0446 0FCD     		ldmia	r5!, {r0, r1, r2, r3}
 1676 0448 0FC4     		stmia	r4!, {r0, r1, r2, r3}
 1677 044a 95E80F00 		ldm	r5, {r0, r1, r2, r3}
 1678 044e 84E80F00 		stm	r4, {r0, r1, r2, r3}
 337:Core/Src/lte.c ****                 uart_status = LTE_UART_STATUS_RECEIVE;
 1679              		.loc 1 337 17 view .LVU433
 1680 0452 6846     		mov	r0, sp
 1681 0454 FFF7FEFF 		bl	LTE_Transmit
 1682              	.LVL89:
 338:Core/Src/lte.c ****             }
 1683              		.loc 1 338 17 view .LVU434
 338:Core/Src/lte.c ****             }
 1684              		.loc 1 338 29 is_stmt 0 view .LVU435
 1685 0458 3C4B     		ldr	r3, .L148
 1686 045a 0122     		movs	r2, #1
 1687 045c 1A70     		strb	r2, [r3]
 1688 045e E1E7     		b	.L95
 1689              	.L134:
 344:Core/Src/lte.c ****                     stDelay = FAIL;
 1690              		.loc 1 344 21 is_stmt 1 view .LVU436
 344:Core/Src/lte.c ****                     stDelay = FAIL;
 1691              		.loc 1 344 34 is_stmt 0 view .LVU437
 1692 0460 0B20     		movs	r0, #11
 1693 0462 FFF7FEFF 		bl	LTE_Receive_Check
 1694              	.LVL90:
 344:Core/Src/lte.c ****                     stDelay = FAIL;
 1695              		.loc 1 344 32 view .LVU438
 1696 0466 3C4B     		ldr	r3, .L148+12
 1697 0468 1870     		strb	r0, [r3]
 345:Core/Src/lte.c ****                     uart_status = LTE_UART_STATUS_TRANSMIT;
 1698              		.loc 1 345 21 is_stmt 1 view .LVU439
 345:Core/Src/lte.c ****                     uart_status = LTE_UART_STATUS_TRANSMIT;
 1699              		.loc 1 345 29 is_stmt 0 view .LVU440
 1700 046a 0023     		movs	r3, #0
 1701 046c 384A     		ldr	r2, .L148+4
 1702 046e 1370     		strb	r3, [r2]
 346:Core/Src/lte.c ****                 }
 1703              		.loc 1 346 21 is_stmt 1 view .LVU441
 346:Core/Src/lte.c ****                 }
 1704              		.loc 1 346 33 is_stmt 0 view .LVU442
 1705 0470 364A     		ldr	r2, .L148
 1706 0472 1370     		strb	r3, [r2]
 1707 0474 EDE5     		b	.L52
 1708              	.L60:
ARM GAS  C:\Users\jisu8\AppData\Local\Temp\cc49UglZ.s 			page 50


 355:Core/Src/lte.c ****             {
 1709              		.loc 1 355 13 is_stmt 1 view .LVU443
 355:Core/Src/lte.c ****             {
 1710              		.loc 1 355 41 is_stmt 0 view .LVU444
 1711 0476 354B     		ldr	r3, .L148
 1712 0478 1B78     		ldrb	r3, [r3]	@ zero_extendqisi2
 355:Core/Src/lte.c ****             {
 1713              		.loc 1 355 15 view .LVU445
 1714 047a 73B1     		cbz	r3, .L135
 1715              	.L97:
 361:Core/Src/lte.c ****             {                
 1716              		.loc 1 361 13 is_stmt 1 view .LVU446
 361:Core/Src/lte.c ****             {                
 1717              		.loc 1 361 40 is_stmt 0 view .LVU447
 1718 047c 334B     		ldr	r3, .L148
 1719 047e 1B78     		ldrb	r3, [r3]	@ zero_extendqisi2
 361:Core/Src/lte.c ****             {                
 1720              		.loc 1 361 15 view .LVU448
 1721 0480 012B     		cmp	r3, #1
 1722 0482 7FF4E6AD 		bne	.L52
 363:Core/Src/lte.c ****                 {
 1723              		.loc 1 363 17 is_stmt 1 view .LVU449
 363:Core/Src/lte.c ****                 {
 1724              		.loc 1 363 23 is_stmt 0 view .LVU450
 1725 0486 324B     		ldr	r3, .L148+4
 1726 0488 1B78     		ldrb	r3, [r3]	@ zero_extendqisi2
 363:Core/Src/lte.c ****                 {
 1727              		.loc 1 363 19 view .LVU451
 1728 048a 012B     		cmp	r3, #1
 1729 048c 15D0     		beq	.L136
 371:Core/Src/lte.c ****                 }
 1730              		.loc 1 371 21 is_stmt 1 view .LVU452
 371:Core/Src/lte.c ****                 }
 1731              		.loc 1 371 31 is_stmt 0 view .LVU453
 1732 048e 3220     		movs	r0, #50
 1733 0490 FFF7FEFF 		bl	LTE_Delay
 1734              	.LVL91:
 371:Core/Src/lte.c ****                 }
 1735              		.loc 1 371 29 view .LVU454
 1736 0494 2E4B     		ldr	r3, .L148+4
 1737 0496 1870     		strb	r0, [r3]
 1738 0498 DBE5     		b	.L52
 1739              	.L135:
 357:Core/Src/lte.c ****                 LTE_Transmit(Tx_Buf);
 1740              		.loc 1 357 17 is_stmt 1 view .LVU455
 1741 049a 6C46     		mov	r4, sp
 1742 049c 334D     		ldr	r5, .L148+32
 1743 049e 0FCD     		ldmia	r5!, {r0, r1, r2, r3}
 1744 04a0 0FC4     		stmia	r4!, {r0, r1, r2, r3}
 1745 04a2 2B68     		ldr	r3, [r5]
 1746 04a4 24F8023B 		strh	r3, [r4], #2	@ movhi
 1747 04a8 1B0C     		lsrs	r3, r3, #16
 1748 04aa 2370     		strb	r3, [r4]
 358:Core/Src/lte.c ****                 uart_status = LTE_UART_STATUS_RECEIVE;
 1749              		.loc 1 358 17 view .LVU456
 1750 04ac 6846     		mov	r0, sp
 1751 04ae FFF7FEFF 		bl	LTE_Transmit
ARM GAS  C:\Users\jisu8\AppData\Local\Temp\cc49UglZ.s 			page 51


 1752              	.LVL92:
 359:Core/Src/lte.c ****             }
 1753              		.loc 1 359 17 view .LVU457
 359:Core/Src/lte.c ****             }
 1754              		.loc 1 359 29 is_stmt 0 view .LVU458
 1755 04b2 264B     		ldr	r3, .L148
 1756 04b4 0122     		movs	r2, #1
 1757 04b6 1A70     		strb	r2, [r3]
 1758 04b8 E0E7     		b	.L97
 1759              	.L136:
 365:Core/Src/lte.c ****                     stDelay = FAIL;
 1760              		.loc 1 365 21 is_stmt 1 view .LVU459
 365:Core/Src/lte.c ****                     stDelay = FAIL;
 1761              		.loc 1 365 34 is_stmt 0 view .LVU460
 1762 04ba 0C20     		movs	r0, #12
 1763 04bc FFF7FEFF 		bl	LTE_Receive_Check
 1764              	.LVL93:
 365:Core/Src/lte.c ****                     stDelay = FAIL;
 1765              		.loc 1 365 32 view .LVU461
 1766 04c0 254B     		ldr	r3, .L148+12
 1767 04c2 1870     		strb	r0, [r3]
 366:Core/Src/lte.c ****                     uart_status = LTE_UART_STATUS_TRANSMIT;
 1768              		.loc 1 366 21 is_stmt 1 view .LVU462
 366:Core/Src/lte.c ****                     uart_status = LTE_UART_STATUS_TRANSMIT;
 1769              		.loc 1 366 29 is_stmt 0 view .LVU463
 1770 04c4 0023     		movs	r3, #0
 1771 04c6 224A     		ldr	r2, .L148+4
 1772 04c8 1370     		strb	r3, [r2]
 367:Core/Src/lte.c ****                 }
 1773              		.loc 1 367 21 is_stmt 1 view .LVU464
 367:Core/Src/lte.c ****                 }
 1774              		.loc 1 367 33 is_stmt 0 view .LVU465
 1775 04ca 204A     		ldr	r2, .L148
 1776 04cc 1370     		strb	r3, [r2]
 1777 04ce C0E5     		b	.L52
 1778              	.L59:
 376:Core/Src/lte.c ****             {
 1779              		.loc 1 376 13 is_stmt 1 view .LVU466
 376:Core/Src/lte.c ****             {
 1780              		.loc 1 376 41 is_stmt 0 view .LVU467
 1781 04d0 1E4B     		ldr	r3, .L148
 1782 04d2 1B78     		ldrb	r3, [r3]	@ zero_extendqisi2
 376:Core/Src/lte.c ****             {
 1783              		.loc 1 376 15 view .LVU468
 1784 04d4 7BB1     		cbz	r3, .L137
 1785              	.L99:
 382:Core/Src/lte.c ****             {                
 1786              		.loc 1 382 13 is_stmt 1 view .LVU469
 382:Core/Src/lte.c ****             {                
 1787              		.loc 1 382 40 is_stmt 0 view .LVU470
 1788 04d6 1D4B     		ldr	r3, .L148
 1789 04d8 1B78     		ldrb	r3, [r3]	@ zero_extendqisi2
 382:Core/Src/lte.c ****             {                
 1790              		.loc 1 382 15 view .LVU471
 1791 04da 012B     		cmp	r3, #1
 1792 04dc 7FF4B9AD 		bne	.L52
 384:Core/Src/lte.c ****                 {
ARM GAS  C:\Users\jisu8\AppData\Local\Temp\cc49UglZ.s 			page 52


 1793              		.loc 1 384 17 is_stmt 1 view .LVU472
 384:Core/Src/lte.c ****                 {
 1794              		.loc 1 384 23 is_stmt 0 view .LVU473
 1795 04e0 1B4B     		ldr	r3, .L148+4
 1796 04e2 1B78     		ldrb	r3, [r3]	@ zero_extendqisi2
 384:Core/Src/lte.c ****                 {
 1797              		.loc 1 384 19 view .LVU474
 1798 04e4 012B     		cmp	r3, #1
 1799 04e6 13D0     		beq	.L138
 392:Core/Src/lte.c ****                 }
 1800              		.loc 1 392 21 is_stmt 1 view .LVU475
 392:Core/Src/lte.c ****                 }
 1801              		.loc 1 392 31 is_stmt 0 view .LVU476
 1802 04e8 4FF4FA60 		mov	r0, #2000
 1803 04ec FFF7FEFF 		bl	LTE_Delay
 1804              	.LVL94:
 392:Core/Src/lte.c ****                 }
 1805              		.loc 1 392 29 view .LVU477
 1806 04f0 174B     		ldr	r3, .L148+4
 1807 04f2 1870     		strb	r0, [r3]
 1808 04f4 ADE5     		b	.L52
 1809              	.L137:
 378:Core/Src/lte.c ****                 LTE_Transmit(Tx_Buf);
 1810              		.loc 1 378 17 is_stmt 1 view .LVU478
 1811 04f6 6C46     		mov	r4, sp
 1812 04f8 1D4D     		ldr	r5, .L148+36
 1813 04fa 0FCD     		ldmia	r5!, {r0, r1, r2, r3}
 1814 04fc 0FC4     		stmia	r4!, {r0, r1, r2, r3}
 1815 04fe 2B68     		ldr	r3, [r5]
 1816 0500 2370     		strb	r3, [r4]
 379:Core/Src/lte.c ****                 uart_status = LTE_UART_STATUS_RECEIVE;
 1817              		.loc 1 379 17 view .LVU479
 1818 0502 6846     		mov	r0, sp
 1819 0504 FFF7FEFF 		bl	LTE_Transmit
 1820              	.LVL95:
 380:Core/Src/lte.c ****             }
 1821              		.loc 1 380 17 view .LVU480
 380:Core/Src/lte.c ****             }
 1822              		.loc 1 380 29 is_stmt 0 view .LVU481
 1823 0508 104B     		ldr	r3, .L148
 1824 050a 0122     		movs	r2, #1
 1825 050c 1A70     		strb	r2, [r3]
 1826 050e E2E7     		b	.L99
 1827              	.L138:
 386:Core/Src/lte.c ****                     stDelay = FAIL;
 1828              		.loc 1 386 21 is_stmt 1 view .LVU482
 386:Core/Src/lte.c ****                     stDelay = FAIL;
 1829              		.loc 1 386 34 is_stmt 0 view .LVU483
 1830 0510 0D20     		movs	r0, #13
 1831 0512 FFF7FEFF 		bl	LTE_Receive_Check
 1832              	.LVL96:
 386:Core/Src/lte.c ****                     stDelay = FAIL;
 1833              		.loc 1 386 32 view .LVU484
 1834 0516 104B     		ldr	r3, .L148+12
 1835 0518 1870     		strb	r0, [r3]
 387:Core/Src/lte.c ****                     uart_status = LTE_UART_STATUS_TRANSMIT;
 1836              		.loc 1 387 21 is_stmt 1 view .LVU485
ARM GAS  C:\Users\jisu8\AppData\Local\Temp\cc49UglZ.s 			page 53


 387:Core/Src/lte.c ****                     uart_status = LTE_UART_STATUS_TRANSMIT;
 1837              		.loc 1 387 29 is_stmt 0 view .LVU486
 1838 051a 0023     		movs	r3, #0
 1839 051c 0C4A     		ldr	r2, .L148+4
 1840 051e 1370     		strb	r3, [r2]
 388:Core/Src/lte.c ****                 }
 1841              		.loc 1 388 21 is_stmt 1 view .LVU487
 388:Core/Src/lte.c ****                 }
 1842              		.loc 1 388 33 is_stmt 0 view .LVU488
 1843 0520 0A4A     		ldr	r2, .L148
 1844 0522 1370     		strb	r3, [r2]
 1845 0524 95E5     		b	.L52
 1846              	.L58:
 397:Core/Src/lte.c ****             {
 1847              		.loc 1 397 13 is_stmt 1 view .LVU489
 397:Core/Src/lte.c ****             {
 1848              		.loc 1 397 41 is_stmt 0 view .LVU490
 1849 0526 094B     		ldr	r3, .L148
 1850 0528 1B78     		ldrb	r3, [r3]	@ zero_extendqisi2
 397:Core/Src/lte.c ****             {
 1851              		.loc 1 397 15 view .LVU491
 1852 052a 1BB3     		cbz	r3, .L139
 1853              	.L101:
 403:Core/Src/lte.c ****             {               
 1854              		.loc 1 403 13 is_stmt 1 view .LVU492
 403:Core/Src/lte.c ****             {               
 1855              		.loc 1 403 40 is_stmt 0 view .LVU493
 1856 052c 074B     		ldr	r3, .L148
 1857 052e 1B78     		ldrb	r3, [r3]	@ zero_extendqisi2
 403:Core/Src/lte.c ****             {               
 1858              		.loc 1 403 15 view .LVU494
 1859 0530 012B     		cmp	r3, #1
 1860 0532 7FF48EAD 		bne	.L52
 405:Core/Src/lte.c ****                 {
 1861              		.loc 1 405 17 is_stmt 1 view .LVU495
 405:Core/Src/lte.c ****                 {
 1862              		.loc 1 405 23 is_stmt 0 view .LVU496
 1863 0536 064B     		ldr	r3, .L148+4
 1864 0538 1B78     		ldrb	r3, [r3]	@ zero_extendqisi2
 405:Core/Src/lte.c ****                 {
 1865              		.loc 1 405 19 view .LVU497
 1866 053a 012B     		cmp	r3, #1
 1867 053c 26D0     		beq	.L140
 413:Core/Src/lte.c ****                 }
 1868              		.loc 1 413 21 is_stmt 1 view .LVU498
 413:Core/Src/lte.c ****                 }
 1869              		.loc 1 413 31 is_stmt 0 view .LVU499
 1870 053e 4FF4FA60 		mov	r0, #2000
 1871 0542 FFF7FEFF 		bl	LTE_Delay
 1872              	.LVL97:
 413:Core/Src/lte.c ****                 }
 1873              		.loc 1 413 29 view .LVU500
 1874 0546 024B     		ldr	r3, .L148+4
 1875 0548 1870     		strb	r0, [r3]
 1876 054a 82E5     		b	.L52
 1877              	.L149:
 1878              		.align	2
ARM GAS  C:\Users\jisu8\AppData\Local\Temp\cc49UglZ.s 			page 54


 1879              	.L148:
 1880 054c 00000000 		.word	.LANCHOR20
 1881 0550 00000000 		.word	.LANCHOR21
 1882 0554 64000000 		.word	.LC11
 1883 0558 00000000 		.word	.LANCHOR19
 1884 055c 78000000 		.word	.LC12
 1885 0560 88000000 		.word	.LC13
 1886 0564 98000000 		.word	.LC14
 1887 0568 A8000000 		.word	.LC15
 1888 056c C8000000 		.word	.LC16
 1889 0570 DC000000 		.word	.LC17
 1890              	.L139:
 399:Core/Src/lte.c ****                 LTE_Transmit(Tx_Buf);
 1891              		.loc 1 399 17 is_stmt 1 view .LVU501
 1892 0574 6C46     		mov	r4, sp
 1893 0576 4A4B     		ldr	r3, .L150
 1894 0578 0FCB     		ldm	r3, {r0, r1, r2, r3}
 1895 057a 84E80F00 		stm	r4, {r0, r1, r2, r3}
 400:Core/Src/lte.c ****                 uart_status = LTE_UART_STATUS_RECEIVE;
 1896              		.loc 1 400 17 view .LVU502
 1897 057e 2046     		mov	r0, r4
 1898 0580 FFF7FEFF 		bl	LTE_Transmit
 1899              	.LVL98:
 401:Core/Src/lte.c ****             }
 1900              		.loc 1 401 17 view .LVU503
 401:Core/Src/lte.c ****             }
 1901              		.loc 1 401 29 is_stmt 0 view .LVU504
 1902 0584 474B     		ldr	r3, .L150+4
 1903 0586 0122     		movs	r2, #1
 1904 0588 1A70     		strb	r2, [r3]
 1905 058a CFE7     		b	.L101
 1906              	.L140:
 407:Core/Src/lte.c ****                     stDelay = FAIL;
 1907              		.loc 1 407 21 is_stmt 1 view .LVU505
 407:Core/Src/lte.c ****                     stDelay = FAIL;
 1908              		.loc 1 407 34 is_stmt 0 view .LVU506
 1909 058c 0E20     		movs	r0, #14
 1910 058e FFF7FEFF 		bl	LTE_Receive_Check
 1911              	.LVL99:
 407:Core/Src/lte.c ****                     stDelay = FAIL;
 1912              		.loc 1 407 32 view .LVU507
 1913 0592 454B     		ldr	r3, .L150+8
 1914 0594 1870     		strb	r0, [r3]
 408:Core/Src/lte.c ****                     uart_status = LTE_UART_STATUS_TRANSMIT;
 1915              		.loc 1 408 21 is_stmt 1 view .LVU508
 408:Core/Src/lte.c ****                     uart_status = LTE_UART_STATUS_TRANSMIT;
 1916              		.loc 1 408 29 is_stmt 0 view .LVU509
 1917 0596 0023     		movs	r3, #0
 1918 0598 444A     		ldr	r2, .L150+12
 1919 059a 1370     		strb	r3, [r2]
 409:Core/Src/lte.c ****                 }
 1920              		.loc 1 409 21 is_stmt 1 view .LVU510
 409:Core/Src/lte.c ****                 }
 1921              		.loc 1 409 33 is_stmt 0 view .LVU511
 1922 059c 414A     		ldr	r2, .L150+4
 1923 059e 1370     		strb	r3, [r2]
 1924 05a0 57E5     		b	.L52
ARM GAS  C:\Users\jisu8\AppData\Local\Temp\cc49UglZ.s 			page 55


 1925              	.L57:
 418:Core/Src/lte.c ****             {
 1926              		.loc 1 418 13 is_stmt 1 view .LVU512
 418:Core/Src/lte.c ****             {
 1927              		.loc 1 418 41 is_stmt 0 view .LVU513
 1928 05a2 404B     		ldr	r3, .L150+4
 1929 05a4 1B78     		ldrb	r3, [r3]	@ zero_extendqisi2
 418:Core/Src/lte.c ****             {
 1930              		.loc 1 418 15 view .LVU514
 1931 05a6 7BB1     		cbz	r3, .L141
 1932              	.L103:
 424:Core/Src/lte.c ****             {                
 1933              		.loc 1 424 13 is_stmt 1 view .LVU515
 424:Core/Src/lte.c ****             {                
 1934              		.loc 1 424 40 is_stmt 0 view .LVU516
 1935 05a8 3E4B     		ldr	r3, .L150+4
 1936 05aa 1B78     		ldrb	r3, [r3]	@ zero_extendqisi2
 424:Core/Src/lte.c ****             {                
 1937              		.loc 1 424 15 view .LVU517
 1938 05ac 012B     		cmp	r3, #1
 1939 05ae 7FF450AD 		bne	.L52
 426:Core/Src/lte.c ****                 {
 1940              		.loc 1 426 17 is_stmt 1 view .LVU518
 426:Core/Src/lte.c ****                 {
 1941              		.loc 1 426 23 is_stmt 0 view .LVU519
 1942 05b2 3E4B     		ldr	r3, .L150+12
 1943 05b4 1B78     		ldrb	r3, [r3]	@ zero_extendqisi2
 426:Core/Src/lte.c ****                 {
 1944              		.loc 1 426 19 view .LVU520
 1945 05b6 012B     		cmp	r3, #1
 1946 05b8 15D0     		beq	.L142
 434:Core/Src/lte.c ****                 }
 1947              		.loc 1 434 21 is_stmt 1 view .LVU521
 434:Core/Src/lte.c ****                 }
 1948              		.loc 1 434 31 is_stmt 0 view .LVU522
 1949 05ba 4FF4FA60 		mov	r0, #2000
 1950 05be FFF7FEFF 		bl	LTE_Delay
 1951              	.LVL100:
 434:Core/Src/lte.c ****                 }
 1952              		.loc 1 434 29 view .LVU523
 1953 05c2 3A4B     		ldr	r3, .L150+12
 1954 05c4 1870     		strb	r0, [r3]
 1955 05c6 44E5     		b	.L52
 1956              	.L141:
 420:Core/Src/lte.c ****                 LTE_Transmit(Tx_Buf);
 1957              		.loc 1 420 17 is_stmt 1 view .LVU524
 1958 05c8 6C46     		mov	r4, sp
 1959 05ca 394D     		ldr	r5, .L150+16
 1960 05cc 0FCD     		ldmia	r5!, {r0, r1, r2, r3}
 1961 05ce 0FC4     		stmia	r4!, {r0, r1, r2, r3}
 1962 05d0 95E80700 		ldm	r5, {r0, r1, r2}
 1963 05d4 84E80700 		stm	r4, {r0, r1, r2}
 421:Core/Src/lte.c ****                 uart_status = LTE_UART_STATUS_RECEIVE;
 1964              		.loc 1 421 17 view .LVU525
 1965 05d8 6846     		mov	r0, sp
 1966 05da FFF7FEFF 		bl	LTE_Transmit
 1967              	.LVL101:
ARM GAS  C:\Users\jisu8\AppData\Local\Temp\cc49UglZ.s 			page 56


 422:Core/Src/lte.c ****             }
 1968              		.loc 1 422 17 view .LVU526
 422:Core/Src/lte.c ****             }
 1969              		.loc 1 422 29 is_stmt 0 view .LVU527
 1970 05de 314B     		ldr	r3, .L150+4
 1971 05e0 0122     		movs	r2, #1
 1972 05e2 1A70     		strb	r2, [r3]
 1973 05e4 E0E7     		b	.L103
 1974              	.L142:
 428:Core/Src/lte.c ****                     stDelay = FAIL;
 1975              		.loc 1 428 21 is_stmt 1 view .LVU528
 428:Core/Src/lte.c ****                     stDelay = FAIL;
 1976              		.loc 1 428 34 is_stmt 0 view .LVU529
 1977 05e6 0F20     		movs	r0, #15
 1978 05e8 FFF7FEFF 		bl	LTE_Receive_Check
 1979              	.LVL102:
 428:Core/Src/lte.c ****                     stDelay = FAIL;
 1980              		.loc 1 428 32 view .LVU530
 1981 05ec 2E4B     		ldr	r3, .L150+8
 1982 05ee 1870     		strb	r0, [r3]
 429:Core/Src/lte.c ****                     uart_status = LTE_UART_STATUS_TRANSMIT;
 1983              		.loc 1 429 21 is_stmt 1 view .LVU531
 429:Core/Src/lte.c ****                     uart_status = LTE_UART_STATUS_TRANSMIT;
 1984              		.loc 1 429 29 is_stmt 0 view .LVU532
 1985 05f0 0023     		movs	r3, #0
 1986 05f2 2E4A     		ldr	r2, .L150+12
 1987 05f4 1370     		strb	r3, [r2]
 430:Core/Src/lte.c ****                 }
 1988              		.loc 1 430 21 is_stmt 1 view .LVU533
 430:Core/Src/lte.c ****                 }
 1989              		.loc 1 430 33 is_stmt 0 view .LVU534
 1990 05f6 2B4A     		ldr	r2, .L150+4
 1991 05f8 1370     		strb	r3, [r2]
 1992 05fa 2AE5     		b	.L52
 1993              	.L56:
 439:Core/Src/lte.c ****             {
 1994              		.loc 1 439 13 is_stmt 1 view .LVU535
 439:Core/Src/lte.c ****             {
 1995              		.loc 1 439 41 is_stmt 0 view .LVU536
 1996 05fc 294B     		ldr	r3, .L150+4
 1997 05fe 1B78     		ldrb	r3, [r3]	@ zero_extendqisi2
 439:Core/Src/lte.c ****             {
 1998              		.loc 1 439 15 view .LVU537
 1999 0600 7BB1     		cbz	r3, .L143
 2000              	.L105:
 445:Core/Src/lte.c ****             {                
 2001              		.loc 1 445 13 is_stmt 1 view .LVU538
 445:Core/Src/lte.c ****             {                
 2002              		.loc 1 445 40 is_stmt 0 view .LVU539
 2003 0602 284B     		ldr	r3, .L150+4
 2004 0604 1B78     		ldrb	r3, [r3]	@ zero_extendqisi2
 445:Core/Src/lte.c ****             {                
 2005              		.loc 1 445 15 view .LVU540
 2006 0606 012B     		cmp	r3, #1
 2007 0608 7FF423AD 		bne	.L52
 447:Core/Src/lte.c ****                 {
 2008              		.loc 1 447 17 is_stmt 1 view .LVU541
ARM GAS  C:\Users\jisu8\AppData\Local\Temp\cc49UglZ.s 			page 57


 447:Core/Src/lte.c ****                 {
 2009              		.loc 1 447 23 is_stmt 0 view .LVU542
 2010 060c 274B     		ldr	r3, .L150+12
 2011 060e 1B78     		ldrb	r3, [r3]	@ zero_extendqisi2
 447:Core/Src/lte.c ****                 {
 2012              		.loc 1 447 19 view .LVU543
 2013 0610 012B     		cmp	r3, #1
 2014 0612 16D0     		beq	.L144
 455:Core/Src/lte.c ****                 }
 2015              		.loc 1 455 21 is_stmt 1 view .LVU544
 455:Core/Src/lte.c ****                 }
 2016              		.loc 1 455 31 is_stmt 0 view .LVU545
 2017 0614 4FF4FA60 		mov	r0, #2000
 2018 0618 FFF7FEFF 		bl	LTE_Delay
 2019              	.LVL103:
 455:Core/Src/lte.c ****                 }
 2020              		.loc 1 455 29 view .LVU546
 2021 061c 234B     		ldr	r3, .L150+12
 2022 061e 1870     		strb	r0, [r3]
 2023 0620 17E5     		b	.L52
 2024              	.L143:
 441:Core/Src/lte.c ****                 LTE_Transmit(Tx_Buf);
 2025              		.loc 1 441 17 is_stmt 1 view .LVU547
 2026 0622 EC46     		mov	ip, sp
 2027 0624 234C     		ldr	r4, .L150+20
 2028 0626 0FCC     		ldmia	r4!, {r0, r1, r2, r3}
 2029 0628 ACE80F00 		stmia	ip!, {r0, r1, r2, r3}
 2030 062c 94E80F00 		ldm	r4, {r0, r1, r2, r3}
 2031 0630 8CE80F00 		stm	ip, {r0, r1, r2, r3}
 442:Core/Src/lte.c ****                 uart_status = LTE_UART_STATUS_RECEIVE;
 2032              		.loc 1 442 17 view .LVU548
 2033 0634 6846     		mov	r0, sp
 2034 0636 FFF7FEFF 		bl	LTE_Transmit
 2035              	.LVL104:
 443:Core/Src/lte.c ****             }
 2036              		.loc 1 443 17 view .LVU549
 443:Core/Src/lte.c ****             }
 2037              		.loc 1 443 29 is_stmt 0 view .LVU550
 2038 063a 1A4B     		ldr	r3, .L150+4
 2039 063c 0122     		movs	r2, #1
 2040 063e 1A70     		strb	r2, [r3]
 2041 0640 DFE7     		b	.L105
 2042              	.L144:
 449:Core/Src/lte.c ****                     stDelay = FAIL;
 2043              		.loc 1 449 21 is_stmt 1 view .LVU551
 449:Core/Src/lte.c ****                     stDelay = FAIL;
 2044              		.loc 1 449 34 is_stmt 0 view .LVU552
 2045 0642 1020     		movs	r0, #16
 2046 0644 FFF7FEFF 		bl	LTE_Receive_Check
 2047              	.LVL105:
 449:Core/Src/lte.c ****                     stDelay = FAIL;
 2048              		.loc 1 449 32 view .LVU553
 2049 0648 174B     		ldr	r3, .L150+8
 2050 064a 1870     		strb	r0, [r3]
 450:Core/Src/lte.c ****                     uart_status = LTE_UART_STATUS_TRANSMIT;
 2051              		.loc 1 450 21 is_stmt 1 view .LVU554
 450:Core/Src/lte.c ****                     uart_status = LTE_UART_STATUS_TRANSMIT;
ARM GAS  C:\Users\jisu8\AppData\Local\Temp\cc49UglZ.s 			page 58


 2052              		.loc 1 450 29 is_stmt 0 view .LVU555
 2053 064c 0023     		movs	r3, #0
 2054 064e 174A     		ldr	r2, .L150+12
 2055 0650 1370     		strb	r3, [r2]
 451:Core/Src/lte.c ****                 }
 2056              		.loc 1 451 21 is_stmt 1 view .LVU556
 451:Core/Src/lte.c ****                 }
 2057              		.loc 1 451 33 is_stmt 0 view .LVU557
 2058 0652 144A     		ldr	r2, .L150+4
 2059 0654 1370     		strb	r3, [r2]
 2060 0656 FCE4     		b	.L52
 2061              	.L54:
 460:Core/Src/lte.c ****             {
 2062              		.loc 1 460 13 is_stmt 1 view .LVU558
 460:Core/Src/lte.c ****             {
 2063              		.loc 1 460 41 is_stmt 0 view .LVU559
 2064 0658 124B     		ldr	r3, .L150+4
 2065 065a 1B78     		ldrb	r3, [r3]	@ zero_extendqisi2
 460:Core/Src/lte.c ****             {
 2066              		.loc 1 460 15 view .LVU560
 2067 065c 73B1     		cbz	r3, .L145
 2068              	.L107:
 466:Core/Src/lte.c ****             {
 2069              		.loc 1 466 13 is_stmt 1 view .LVU561
 466:Core/Src/lte.c ****             {
 2070              		.loc 1 466 40 is_stmt 0 view .LVU562
 2071 065e 114B     		ldr	r3, .L150+4
 2072 0660 1B78     		ldrb	r3, [r3]	@ zero_extendqisi2
 466:Core/Src/lte.c ****             {
 2073              		.loc 1 466 15 view .LVU563
 2074 0662 012B     		cmp	r3, #1
 2075 0664 7FF4F5AC 		bne	.L52
 468:Core/Src/lte.c ****                 {
 2076              		.loc 1 468 17 is_stmt 1 view .LVU564
 468:Core/Src/lte.c ****                 {
 2077              		.loc 1 468 23 is_stmt 0 view .LVU565
 2078 0668 104B     		ldr	r3, .L150+12
 2079 066a 1B78     		ldrb	r3, [r3]	@ zero_extendqisi2
 468:Core/Src/lte.c ****                 {
 2080              		.loc 1 468 19 view .LVU566
 2081 066c 012B     		cmp	r3, #1
 2082 066e 0FD1     		bne	.L108
 471:Core/Src/lte.c ****                     uart_status = LTE_UART_STATUS_TRANSMIT;
 2083              		.loc 1 471 21 is_stmt 1 view .LVU567
 471:Core/Src/lte.c ****                     uart_status = LTE_UART_STATUS_TRANSMIT;
 2084              		.loc 1 471 29 is_stmt 0 view .LVU568
 2085 0670 0023     		movs	r3, #0
 2086 0672 0E4A     		ldr	r2, .L150+12
 2087 0674 1370     		strb	r3, [r2]
 472:Core/Src/lte.c ****                 }
 2088              		.loc 1 472 21 is_stmt 1 view .LVU569
 472:Core/Src/lte.c ****                 }
 2089              		.loc 1 472 33 is_stmt 0 view .LVU570
 2090 0676 0B4A     		ldr	r2, .L150+4
 2091 0678 1370     		strb	r3, [r2]
 2092 067a EAE4     		b	.L52
 2093              	.L145:
ARM GAS  C:\Users\jisu8\AppData\Local\Temp\cc49UglZ.s 			page 59


 462:Core/Src/lte.c ****                 LTE_Transmit(Tx_Buf);
 2094              		.loc 1 462 17 is_stmt 1 view .LVU571
 2095 067c 6846     		mov	r0, sp
 2096 067e FFF7FEFF 		bl	LTE_MQTT_Convert_Buffer
 2097              	.LVL106:
 463:Core/Src/lte.c ****                 uart_status = LTE_UART_STATUS_RECEIVE;
 2098              		.loc 1 463 17 view .LVU572
 2099 0682 6846     		mov	r0, sp
 2100 0684 FFF7FEFF 		bl	LTE_Transmit
 2101              	.LVL107:
 464:Core/Src/lte.c ****             }
 2102              		.loc 1 464 17 view .LVU573
 464:Core/Src/lte.c ****             }
 2103              		.loc 1 464 29 is_stmt 0 view .LVU574
 2104 0688 064B     		ldr	r3, .L150+4
 2105 068a 0122     		movs	r2, #1
 2106 068c 1A70     		strb	r2, [r3]
 2107 068e E6E7     		b	.L107
 2108              	.L108:
 476:Core/Src/lte.c ****                 }
 2109              		.loc 1 476 21 is_stmt 1 view .LVU575
 476:Core/Src/lte.c ****                 }
 2110              		.loc 1 476 31 is_stmt 0 view .LVU576
 2111 0690 42F21070 		movw	r0, #10000
 2112 0694 FFF7FEFF 		bl	LTE_Delay
 2113              	.LVL108:
 476:Core/Src/lte.c ****                 }
 2114              		.loc 1 476 29 view .LVU577
 2115 0698 044B     		ldr	r3, .L150+12
 2116 069a 1870     		strb	r0, [r3]
 481:Core/Src/lte.c **** 
 2117              		.loc 1 481 1 view .LVU578
 2118 069c D9E4     		b	.L52
 2119              	.L151:
 2120 069e 00BF     		.align	2
 2121              	.L150:
 2122 06a0 F0000000 		.word	.LC18
 2123 06a4 00000000 		.word	.LANCHOR20
 2124 06a8 00000000 		.word	.LANCHOR19
 2125 06ac 00000000 		.word	.LANCHOR21
 2126 06b0 00010000 		.word	.LC19
 2127 06b4 1C010000 		.word	.LC20
 2128              		.cfi_endproc
 2129              	.LFE136:
 2131              		.section	.text.LTE_GPS_Receive_Data,"ax",%progbits
 2132              		.align	1
 2133              		.syntax unified
 2134              		.thumb
 2135              		.thumb_func
 2137              	LTE_GPS_Receive_Data:
 2138              	.LVL109:
 2139              	.LFB143:
 630:Core/Src/lte.c **** 
 631:Core/Src/lte.c **** static uint8_t LTE_GPS_Receive_Data(uint8_t status)
 632:Core/Src/lte.c **** {
 2140              		.loc 1 632 1 is_stmt 1 view -0
 2141              		.cfi_startproc
ARM GAS  C:\Users\jisu8\AppData\Local\Temp\cc49UglZ.s 			page 60


 2142              		@ args = 0, pretend = 0, frame = 0
 2143              		@ frame_needed = 0, uses_anonymous_args = 0
 2144              		.loc 1 632 1 is_stmt 0 view .LVU580
 2145 0000 2DE9F041 		push	{r4, r5, r6, r7, r8, lr}
 2146              	.LCFI14:
 2147              		.cfi_def_cfa_offset 24
 2148              		.cfi_offset 4, -24
 2149              		.cfi_offset 5, -20
 2150              		.cfi_offset 6, -16
 2151              		.cfi_offset 7, -12
 2152              		.cfi_offset 8, -8
 2153              		.cfi_offset 14, -4
 2154 0004 0546     		mov	r5, r0
 633:Core/Src/lte.c ****     uint8_t retval = status;
 2155              		.loc 1 633 5 is_stmt 1 view .LVU581
 2156              	.LVL110:
 634:Core/Src/lte.c **** 
 635:Core/Src/lte.c ****     if(LTE_Rx_Counter>0)
 2157              		.loc 1 635 5 view .LVU582
 2158              		.loc 1 635 22 is_stmt 0 view .LVU583
 2159 0006 2B4B     		ldr	r3, .L161
 2160 0008 1A88     		ldrh	r2, [r3]
 2161              		.loc 1 635 7 view .LVU584
 2162 000a 002A     		cmp	r2, #0
 2163 000c 50D1     		bne	.L158
 2164              	.LVL111:
 2165              	.L154:
 636:Core/Src/lte.c ****     {
 637:Core/Src/lte.c ****         for(uint16_t i = 0; i < LTE_RX_BUFFER_SIZE; i++)
 638:Core/Src/lte.c ****         {
 639:Core/Src/lte.c ****             if((LTE_Rx_Buffer[i] == '+') && (LTE_Rx_Buffer[i+1] == 'U') && (LTE_Rx_Buffer[i+2] == '
 640:Core/Src/lte.c ****             {
 641:Core/Src/lte.c ****                 HAL_UART_Transmit(&huart3,&LTE_Rx_Buffer[i],strlen(&LTE_Rx_Buffer[i]),100);
 642:Core/Src/lte.c ****                 memcpy(LTE_GPS_Buffer,&LTE_Rx_Buffer[i+8],(LTE_Rx_Counter - i));
 643:Core/Src/lte.c ****                 memset(LTE_Rx_Buffer,0x00,LTE_Rx_Counter);
 644:Core/Src/lte.c ****                 LTE_Rx_Counter = 0;
 645:Core/Src/lte.c ****                 retval++;
 646:Core/Src/lte.c ****                 break;
 647:Core/Src/lte.c ****             }
 648:Core/Src/lte.c **** 
 649:Core/Src/lte.c ****             if(LTE_Rx_Buffer[i] == 0x00)
 650:Core/Src/lte.c ****             {
 651:Core/Src/lte.c ****                 memset(LTE_Rx_Buffer,0x00,LTE_Rx_Counter);
 652:Core/Src/lte.c ****                 LTE_Rx_Counter = 0;
 653:Core/Src/lte.c ****                 break;
 654:Core/Src/lte.c ****             }
 655:Core/Src/lte.c ****         }    
 656:Core/Src/lte.c ****     }
 657:Core/Src/lte.c **** 
 658:Core/Src/lte.c ****     return retval;
 2166              		.loc 1 658 5 is_stmt 1 view .LVU585
 659:Core/Src/lte.c **** }
 2167              		.loc 1 659 1 is_stmt 0 view .LVU586
 2168 000e 2846     		mov	r0, r5
 2169 0010 BDE8F081 		pop	{r4, r5, r6, r7, r8, pc}
 2170              	.LVL112:
 2171              	.L155:
ARM GAS  C:\Users\jisu8\AppData\Local\Temp\cc49UglZ.s 			page 61


 2172              	.LBB4:
 649:Core/Src/lte.c ****             {
 2173              		.loc 1 649 13 is_stmt 1 view .LVU587
 649:Core/Src/lte.c ****             {
 2174              		.loc 1 649 15 is_stmt 0 view .LVU588
 2175 0014 0029     		cmp	r1, #0
 2176 0016 44D0     		beq	.L160
 637:Core/Src/lte.c ****         {
 2177              		.loc 1 637 53 is_stmt 1 discriminator 2 view .LVU589
 637:Core/Src/lte.c ****         {
 2178              		.loc 1 637 54 is_stmt 0 discriminator 2 view .LVU590
 2179 0018 0133     		adds	r3, r3, #1
 2180              	.LVL113:
 637:Core/Src/lte.c ****         {
 2181              		.loc 1 637 54 discriminator 2 view .LVU591
 2182 001a 9BB2     		uxth	r3, r3
 2183              	.LVL114:
 2184              	.L153:
 637:Core/Src/lte.c ****         {
 2185              		.loc 1 637 29 is_stmt 1 discriminator 1 view .LVU592
 637:Core/Src/lte.c ****         {
 2186              		.loc 1 637 9 is_stmt 0 discriminator 1 view .LVU593
 2187 001c B3F5806F 		cmp	r3, #1024
 2188 0020 F5D2     		bcs	.L154
 639:Core/Src/lte.c ****             {
 2189              		.loc 1 639 13 is_stmt 1 view .LVU594
 639:Core/Src/lte.c ****             {
 2190              		.loc 1 639 30 is_stmt 0 view .LVU595
 2191 0022 1C46     		mov	r4, r3
 2192 0024 2449     		ldr	r1, .L161+4
 2193 0026 C95C     		ldrb	r1, [r1, r3]	@ zero_extendqisi2
 639:Core/Src/lte.c ****             {
 2194              		.loc 1 639 15 view .LVU596
 2195 0028 2B29     		cmp	r1, #43
 2196 002a F3D1     		bne	.L155
 639:Core/Src/lte.c ****             {
 2197              		.loc 1 639 61 discriminator 1 view .LVU597
 2198 002c 03F1010C 		add	ip, r3, #1
 639:Core/Src/lte.c ****             {
 2199              		.loc 1 639 59 discriminator 1 view .LVU598
 2200 0030 2148     		ldr	r0, .L161+4
 2201 0032 10F80C00 		ldrb	r0, [r0, ip]	@ zero_extendqisi2
 639:Core/Src/lte.c ****             {
 2202              		.loc 1 639 42 discriminator 1 view .LVU599
 2203 0036 5528     		cmp	r0, #85
 2204 0038 ECD1     		bne	.L155
 639:Core/Src/lte.c ****             {
 2205              		.loc 1 639 92 discriminator 2 view .LVU600
 2206 003a 981C     		adds	r0, r3, #2
 639:Core/Src/lte.c ****             {
 2207              		.loc 1 639 90 discriminator 2 view .LVU601
 2208 003c 1E4E     		ldr	r6, .L161+4
 2209 003e 305C     		ldrb	r0, [r6, r0]	@ zero_extendqisi2
 639:Core/Src/lte.c ****             {
 2210              		.loc 1 639 73 discriminator 2 view .LVU602
 2211 0040 5528     		cmp	r0, #85
 2212 0042 E7D1     		bne	.L155
ARM GAS  C:\Users\jisu8\AppData\Local\Temp\cc49UglZ.s 			page 62


 639:Core/Src/lte.c ****             {
 2213              		.loc 1 639 123 discriminator 3 view .LVU603
 2214 0044 D81C     		adds	r0, r3, #3
 639:Core/Src/lte.c ****             {
 2215              		.loc 1 639 121 discriminator 3 view .LVU604
 2216 0046 305C     		ldrb	r0, [r6, r0]	@ zero_extendqisi2
 639:Core/Src/lte.c ****             {
 2217              		.loc 1 639 104 discriminator 3 view .LVU605
 2218 0048 4C28     		cmp	r0, #76
 2219 004a E3D1     		bne	.L155
 639:Core/Src/lte.c ****             {
 2220              		.loc 1 639 154 discriminator 4 view .LVU606
 2221 004c 181D     		adds	r0, r3, #4
 639:Core/Src/lte.c ****             {
 2222              		.loc 1 639 152 discriminator 4 view .LVU607
 2223 004e 305C     		ldrb	r0, [r6, r0]	@ zero_extendqisi2
 639:Core/Src/lte.c ****             {
 2224              		.loc 1 639 135 discriminator 4 view .LVU608
 2225 0050 4F28     		cmp	r0, #79
 2226 0052 DFD1     		bne	.L155
 639:Core/Src/lte.c ****             {
 2227              		.loc 1 639 185 discriminator 5 view .LVU609
 2228 0054 581D     		adds	r0, r3, #5
 639:Core/Src/lte.c ****             {
 2229              		.loc 1 639 183 discriminator 5 view .LVU610
 2230 0056 305C     		ldrb	r0, [r6, r0]	@ zero_extendqisi2
 639:Core/Src/lte.c ****             {
 2231              		.loc 1 639 166 discriminator 5 view .LVU611
 2232 0058 4328     		cmp	r0, #67
 2233 005a DBD1     		bne	.L155
 639:Core/Src/lte.c ****             {
 2234              		.loc 1 639 216 discriminator 6 view .LVU612
 2235 005c 981D     		adds	r0, r3, #6
 639:Core/Src/lte.c ****             {
 2236              		.loc 1 639 214 discriminator 6 view .LVU613
 2237 005e 305C     		ldrb	r0, [r6, r0]	@ zero_extendqisi2
 639:Core/Src/lte.c ****             {
 2238              		.loc 1 639 197 discriminator 6 view .LVU614
 2239 0060 3A28     		cmp	r0, #58
 2240 0062 D7D1     		bne	.L155
 641:Core/Src/lte.c ****                 memcpy(LTE_GPS_Buffer,&LTE_Rx_Buffer[i+8],(LTE_Rx_Counter - i));
 2241              		.loc 1 641 17 is_stmt 1 view .LVU615
 2242 0064 F718     		adds	r7, r6, r3
 641:Core/Src/lte.c ****                 memcpy(LTE_GPS_Buffer,&LTE_Rx_Buffer[i+8],(LTE_Rx_Counter - i));
 2243              		.loc 1 641 61 is_stmt 0 view .LVU616
 2244 0066 3846     		mov	r0, r7
 2245 0068 FFF7FEFF 		bl	strlen
 2246              	.LVL115:
 641:Core/Src/lte.c ****                 memcpy(LTE_GPS_Buffer,&LTE_Rx_Buffer[i+8],(LTE_Rx_Counter - i));
 2247              		.loc 1 641 17 view .LVU617
 2248 006c 6423     		movs	r3, #100
 2249 006e 82B2     		uxth	r2, r0
 2250 0070 3946     		mov	r1, r7
 2251 0072 1248     		ldr	r0, .L161+8
 2252 0074 FFF7FEFF 		bl	HAL_UART_Transmit
 2253              	.LVL116:
 642:Core/Src/lte.c ****                 memset(LTE_Rx_Buffer,0x00,LTE_Rx_Counter);
ARM GAS  C:\Users\jisu8\AppData\Local\Temp\cc49UglZ.s 			page 63


 2254              		.loc 1 642 17 is_stmt 1 view .LVU618
 642:Core/Src/lte.c ****                 memset(LTE_Rx_Buffer,0x00,LTE_Rx_Counter);
 2255              		.loc 1 642 55 is_stmt 0 view .LVU619
 2256 0078 04F10801 		add	r1, r4, #8
 642:Core/Src/lte.c ****                 memset(LTE_Rx_Buffer,0x00,LTE_Rx_Counter);
 2257              		.loc 1 642 75 view .LVU620
 2258 007c 0D4F     		ldr	r7, .L161
 2259 007e B7F80080 		ldrh	r8, [r7]
 642:Core/Src/lte.c ****                 memset(LTE_Rx_Buffer,0x00,LTE_Rx_Counter);
 2260              		.loc 1 642 17 view .LVU621
 2261 0082 A8EB0402 		sub	r2, r8, r4
 2262 0086 3144     		add	r1, r1, r6
 2263 0088 0D48     		ldr	r0, .L161+12
 2264 008a FFF7FEFF 		bl	memcpy
 2265              	.LVL117:
 643:Core/Src/lte.c ****                 LTE_Rx_Counter = 0;
 2266              		.loc 1 643 17 is_stmt 1 view .LVU622
 2267 008e 4246     		mov	r2, r8
 2268 0090 0021     		movs	r1, #0
 2269 0092 3046     		mov	r0, r6
 2270 0094 FFF7FEFF 		bl	memset
 2271              	.LVL118:
 644:Core/Src/lte.c ****                 retval++;
 2272              		.loc 1 644 17 view .LVU623
 644:Core/Src/lte.c ****                 retval++;
 2273              		.loc 1 644 32 is_stmt 0 view .LVU624
 2274 0098 0023     		movs	r3, #0
 2275 009a 3B80     		strh	r3, [r7]	@ movhi
 645:Core/Src/lte.c ****                 break;
 2276              		.loc 1 645 17 is_stmt 1 view .LVU625
 645:Core/Src/lte.c ****                 break;
 2277              		.loc 1 645 23 is_stmt 0 view .LVU626
 2278 009c 0135     		adds	r5, r5, #1
 2279              	.LVL119:
 645:Core/Src/lte.c ****                 break;
 2280              		.loc 1 645 23 view .LVU627
 2281 009e EDB2     		uxtb	r5, r5
 2282              	.LVL120:
 646:Core/Src/lte.c ****             }
 2283              		.loc 1 646 17 is_stmt 1 view .LVU628
 2284 00a0 B5E7     		b	.L154
 2285              	.LVL121:
 2286              	.L160:
 651:Core/Src/lte.c ****                 LTE_Rx_Counter = 0;
 2287              		.loc 1 651 17 view .LVU629
 2288 00a2 0548     		ldr	r0, .L161+4
 2289 00a4 FFF7FEFF 		bl	memset
 2290              	.LVL122:
 652:Core/Src/lte.c ****                 break;
 2291              		.loc 1 652 17 view .LVU630
 652:Core/Src/lte.c ****                 break;
 2292              		.loc 1 652 32 is_stmt 0 view .LVU631
 2293 00a8 024B     		ldr	r3, .L161
 2294 00aa 0022     		movs	r2, #0
 2295 00ac 1A80     		strh	r2, [r3]	@ movhi
 653:Core/Src/lte.c ****             }
 2296              		.loc 1 653 17 is_stmt 1 view .LVU632
ARM GAS  C:\Users\jisu8\AppData\Local\Temp\cc49UglZ.s 			page 64


 2297 00ae AEE7     		b	.L154
 2298              	.LVL123:
 2299              	.L158:
 637:Core/Src/lte.c ****         {
 2300              		.loc 1 637 22 is_stmt 0 view .LVU633
 2301 00b0 0023     		movs	r3, #0
 2302 00b2 B3E7     		b	.L153
 2303              	.L162:
 2304              		.align	2
 2305              	.L161:
 2306 00b4 00000000 		.word	.LANCHOR16
 2307 00b8 00000000 		.word	.LANCHOR17
 2308 00bc 00000000 		.word	huart3
 2309 00c0 00000000 		.word	.LANCHOR22
 2310              	.LBE4:
 2311              		.cfi_endproc
 2312              	.LFE143:
 2314              		.section	.text.LTE_GPS_Update_Data,"ax",%progbits
 2315              		.align	1
 2316              		.syntax unified
 2317              		.thumb
 2318              		.thumb_func
 2320              	LTE_GPS_Update_Data:
 2321              	.LVL124:
 2322              	.LFB144:
 660:Core/Src/lte.c **** 
 661:Core/Src/lte.c **** static uint8_t LTE_GPS_Update_Data(uint8_t status)
 662:Core/Src/lte.c **** {
 2323              		.loc 1 662 1 is_stmt 1 view -0
 2324              		.cfi_startproc
 2325              		@ args = 0, pretend = 0, frame = 24
 2326              		@ frame_needed = 0, uses_anonymous_args = 0
 2327              		.loc 1 662 1 is_stmt 0 view .LVU635
 2328 0000 70B5     		push	{r4, r5, r6, lr}
 2329              	.LCFI15:
 2330              		.cfi_def_cfa_offset 16
 2331              		.cfi_offset 4, -16
 2332              		.cfi_offset 5, -12
 2333              		.cfi_offset 6, -8
 2334              		.cfi_offset 14, -4
 2335 0002 86B0     		sub	sp, sp, #24
 2336              	.LCFI16:
 2337              		.cfi_def_cfa_offset 40
 2338 0004 0446     		mov	r4, r0
 663:Core/Src/lte.c ****     uint8_t retval = status;
 2339              		.loc 1 663 5 is_stmt 1 view .LVU636
 2340              	.LVL125:
 664:Core/Src/lte.c ****     uint8_t lat_length=0;
 2341              		.loc 1 664 5 view .LVU637
 665:Core/Src/lte.c ****     uint8_t long_length=0;
 2342              		.loc 1 665 5 view .LVU638
 666:Core/Src/lte.c **** 
 667:Core/Src/lte.c ****     RTC_TimeTypeDef Time;
 2343              		.loc 1 667 5 view .LVU639
 668:Core/Src/lte.c ****     RTC_DateTypeDef Date;
 2344              		.loc 1 668 5 view .LVU640
 669:Core/Src/lte.c ****     Date.Date = ((LTE_GPS_Buffer[0] - 0x30) * 10 + (LTE_GPS_Buffer[1] - 0x30));
ARM GAS  C:\Users\jisu8\AppData\Local\Temp\cc49UglZ.s 			page 65


 2345              		.loc 1 669 5 view .LVU641
 2346              		.loc 1 669 33 is_stmt 0 view .LVU642
 2347 0006 A44B     		ldr	r3, .L186
 2348 0008 1978     		ldrb	r1, [r3]	@ zero_extendqisi2
 2349              		.loc 1 669 67 view .LVU643
 2350 000a 5A78     		ldrb	r2, [r3, #1]	@ zero_extendqisi2
 2351              		.loc 1 669 50 view .LVU644
 2352 000c 01EB8101 		add	r1, r1, r1, lsl #2
 2353 0010 02EB4102 		add	r2, r2, r1, lsl #1
 2354 0014 103A     		subs	r2, r2, #16
 2355              		.loc 1 669 15 view .LVU645
 2356 0016 8DF80220 		strb	r2, [sp, #2]
 670:Core/Src/lte.c ****     Date.Month = ((LTE_GPS_Buffer[3] - 0x30) * 10 + (LTE_GPS_Buffer[4] - 0x30));
 2357              		.loc 1 670 5 is_stmt 1 view .LVU646
 2358              		.loc 1 670 34 is_stmt 0 view .LVU647
 2359 001a D978     		ldrb	r1, [r3, #3]	@ zero_extendqisi2
 2360              		.loc 1 670 68 view .LVU648
 2361 001c 1A79     		ldrb	r2, [r3, #4]	@ zero_extendqisi2
 2362              		.loc 1 670 51 view .LVU649
 2363 001e 01EB8101 		add	r1, r1, r1, lsl #2
 2364 0022 02EB4102 		add	r2, r2, r1, lsl #1
 2365 0026 103A     		subs	r2, r2, #16
 2366              		.loc 1 670 16 view .LVU650
 2367 0028 8DF80120 		strb	r2, [sp, #1]
 671:Core/Src/lte.c ****     Date.Year = ((LTE_GPS_Buffer[8] - 0x30) * 10 + (LTE_GPS_Buffer[9] - 0x30));
 2368              		.loc 1 671 5 is_stmt 1 view .LVU651
 2369              		.loc 1 671 33 is_stmt 0 view .LVU652
 2370 002c 197A     		ldrb	r1, [r3, #8]	@ zero_extendqisi2
 2371              		.loc 1 671 67 view .LVU653
 2372 002e 5A7A     		ldrb	r2, [r3, #9]	@ zero_extendqisi2
 2373              		.loc 1 671 50 view .LVU654
 2374 0030 01EB8101 		add	r1, r1, r1, lsl #2
 2375 0034 02EB4102 		add	r2, r2, r1, lsl #1
 2376 0038 103A     		subs	r2, r2, #16
 2377              		.loc 1 671 15 view .LVU655
 2378 003a 8DF80320 		strb	r2, [sp, #3]
 672:Core/Src/lte.c ****     Time.Hours = ((LTE_GPS_Buffer[11] - 0x30) * 10 + (LTE_GPS_Buffer[12] - 0x30));
 2379              		.loc 1 672 5 is_stmt 1 view .LVU656
 2380              		.loc 1 672 34 is_stmt 0 view .LVU657
 2381 003e D97A     		ldrb	r1, [r3, #11]	@ zero_extendqisi2
 2382              		.loc 1 672 69 view .LVU658
 2383 0040 1A7B     		ldrb	r2, [r3, #12]	@ zero_extendqisi2
 2384              		.loc 1 672 52 view .LVU659
 2385 0042 01EB8101 		add	r1, r1, r1, lsl #2
 2386 0046 02EB4102 		add	r2, r2, r1, lsl #1
 2387 004a 103A     		subs	r2, r2, #16
 2388              		.loc 1 672 16 view .LVU660
 2389 004c 8DF80420 		strb	r2, [sp, #4]
 673:Core/Src/lte.c ****     Time.Minutes = ((LTE_GPS_Buffer[14] - 0x30) * 10 + (LTE_GPS_Buffer[15] - 0x30));
 2390              		.loc 1 673 5 is_stmt 1 view .LVU661
 2391              		.loc 1 673 36 is_stmt 0 view .LVU662
 2392 0050 997B     		ldrb	r1, [r3, #14]	@ zero_extendqisi2
 2393              		.loc 1 673 71 view .LVU663
 2394 0052 DA7B     		ldrb	r2, [r3, #15]	@ zero_extendqisi2
 2395              		.loc 1 673 54 view .LVU664
 2396 0054 01EB8101 		add	r1, r1, r1, lsl #2
 2397 0058 02EB4102 		add	r2, r2, r1, lsl #1
ARM GAS  C:\Users\jisu8\AppData\Local\Temp\cc49UglZ.s 			page 66


 2398 005c 103A     		subs	r2, r2, #16
 2399              		.loc 1 673 18 view .LVU665
 2400 005e 8DF80520 		strb	r2, [sp, #5]
 674:Core/Src/lte.c ****     Time.Seconds = ((LTE_GPS_Buffer[17] - 0x30) * 10 + (LTE_GPS_Buffer[18] - 0x30));
 2401              		.loc 1 674 5 is_stmt 1 view .LVU666
 2402              		.loc 1 674 36 is_stmt 0 view .LVU667
 2403 0062 5A7C     		ldrb	r2, [r3, #17]	@ zero_extendqisi2
 2404              		.loc 1 674 71 view .LVU668
 2405 0064 9B7C     		ldrb	r3, [r3, #18]	@ zero_extendqisi2
 2406              		.loc 1 674 54 view .LVU669
 2407 0066 02EB8202 		add	r2, r2, r2, lsl #2
 2408 006a 03EB4203 		add	r3, r3, r2, lsl #1
 2409 006e 103B     		subs	r3, r3, #16
 2410              		.loc 1 674 18 view .LVU670
 2411 0070 8DF80630 		strb	r3, [sp, #6]
 675:Core/Src/lte.c ****     HAL_RTC_SetTime(&hrtc, &Time, FORMAT_BIN);
 2412              		.loc 1 675 5 is_stmt 1 view .LVU671
 2413 0074 894D     		ldr	r5, .L186+4
 2414 0076 0022     		movs	r2, #0
 2415 0078 01A9     		add	r1, sp, #4
 2416 007a 2846     		mov	r0, r5
 2417              	.LVL126:
 2418              		.loc 1 675 5 is_stmt 0 view .LVU672
 2419 007c FFF7FEFF 		bl	HAL_RTC_SetTime
 2420              	.LVL127:
 676:Core/Src/lte.c ****     HAL_RTC_SetDate(&hrtc, &Date, FORMAT_BIN);
 2421              		.loc 1 676 5 is_stmt 1 view .LVU673
 2422 0080 0022     		movs	r2, #0
 2423 0082 6946     		mov	r1, sp
 2424 0084 2846     		mov	r0, r5
 2425 0086 FFF7FEFF 		bl	HAL_RTC_SetDate
 2426              	.LVL128:
 677:Core/Src/lte.c **** 
 678:Core/Src/lte.c ****     for(uint8_t i = 0; i < 3; i++)
 2427              		.loc 1 678 5 view .LVU674
 2428              	.LBB5:
 2429              		.loc 1 678 9 view .LVU675
 2430              		.loc 1 678 17 is_stmt 0 view .LVU676
 2431 008a 0022     		movs	r2, #0
 2432              	.LBE5:
 664:Core/Src/lte.c ****     uint8_t long_length=0;
 2433              		.loc 1 664 13 view .LVU677
 2434 008c 1346     		mov	r3, r2
 2435              	.LVL129:
 2436              	.L164:
 2437              	.LBB6:
 2438              		.loc 1 678 24 is_stmt 1 discriminator 1 view .LVU678
 2439              		.loc 1 678 5 is_stmt 0 discriminator 1 view .LVU679
 2440 008e 022A     		cmp	r2, #2
 2441 0090 0AD8     		bhi	.L165
 679:Core/Src/lte.c ****     {
 680:Core/Src/lte.c ****         if(LTE_GPS_Buffer[i+24] != '.')
 2442              		.loc 1 680 9 is_stmt 1 view .LVU680
 2443              		.loc 1 680 28 is_stmt 0 view .LVU681
 2444 0092 02F11801 		add	r1, r2, #24
 2445              		.loc 1 680 26 view .LVU682
 2446 0096 8048     		ldr	r0, .L186
ARM GAS  C:\Users\jisu8\AppData\Local\Temp\cc49UglZ.s 			page 67


 2447 0098 415C     		ldrb	r1, [r0, r1]	@ zero_extendqisi2
 2448              		.loc 1 680 11 view .LVU683
 2449 009a 2E29     		cmp	r1, #46
 2450 009c 04D0     		beq	.L165
 681:Core/Src/lte.c ****         {
 682:Core/Src/lte.c ****             lat_length++;
 2451              		.loc 1 682 13 is_stmt 1 discriminator 2 view .LVU684
 2452              		.loc 1 682 23 is_stmt 0 discriminator 2 view .LVU685
 2453 009e 0133     		adds	r3, r3, #1
 2454              	.LVL130:
 2455              		.loc 1 682 23 discriminator 2 view .LVU686
 2456 00a0 DBB2     		uxtb	r3, r3
 2457              	.LVL131:
 678:Core/Src/lte.c ****     {
 2458              		.loc 1 678 31 is_stmt 1 discriminator 2 view .LVU687
 678:Core/Src/lte.c ****     {
 2459              		.loc 1 678 32 is_stmt 0 discriminator 2 view .LVU688
 2460 00a2 0132     		adds	r2, r2, #1
 2461              	.LVL132:
 678:Core/Src/lte.c ****     {
 2462              		.loc 1 678 32 discriminator 2 view .LVU689
 2463 00a4 D2B2     		uxtb	r2, r2
 2464              	.LVL133:
 678:Core/Src/lte.c ****     {
 2465              		.loc 1 678 32 discriminator 2 view .LVU690
 2466 00a6 F2E7     		b	.L164
 2467              	.L165:
 678:Core/Src/lte.c ****     {
 2468              		.loc 1 678 32 discriminator 2 view .LVU691
 2469              	.LBE6:
 683:Core/Src/lte.c ****         }
 684:Core/Src/lte.c ****         else
 685:Core/Src/lte.c ****         {
 686:Core/Src/lte.c ****             break;
 687:Core/Src/lte.c ****         }
 688:Core/Src/lte.c ****     }
 689:Core/Src/lte.c **** 
 690:Core/Src/lte.c ****     if(1 == lat_length)
 2470              		.loc 1 690 5 is_stmt 1 view .LVU692
 2471              		.loc 1 690 7 is_stmt 0 view .LVU693
 2472 00a8 012B     		cmp	r3, #1
 2473 00aa 07D0     		beq	.L179
 691:Core/Src/lte.c ****     {
 692:Core/Src/lte.c ****         LTE_GPS_LAT_I = (LTE_GPS_Buffer[24] - 0x30);
 693:Core/Src/lte.c ****     }
 694:Core/Src/lte.c ****     else if(2 == lat_length)
 2474              		.loc 1 694 10 is_stmt 1 view .LVU694
 2475              		.loc 1 694 12 is_stmt 0 view .LVU695
 2476 00ac 022B     		cmp	r3, #2
 2477 00ae 45D0     		beq	.L180
 695:Core/Src/lte.c ****     {
 696:Core/Src/lte.c ****         LTE_GPS_LAT_I = (LTE_GPS_Buffer[24] - 0x30) * 10 + (LTE_GPS_Buffer[25] - 0x30);  
 697:Core/Src/lte.c ****     }    
 698:Core/Src/lte.c ****     else if(3 == lat_length)
 2478              		.loc 1 698 10 is_stmt 1 view .LVU696
 2479              		.loc 1 698 12 is_stmt 0 view .LVU697
 2480 00b0 032B     		cmp	r3, #3
ARM GAS  C:\Users\jisu8\AppData\Local\Temp\cc49UglZ.s 			page 68


 2481 00b2 4FD0     		beq	.L181
 699:Core/Src/lte.c ****     {
 700:Core/Src/lte.c ****         LTE_GPS_LAT_I = (LTE_GPS_Buffer[24] - 0x30) * 100 + (LTE_GPS_Buffer[25] - 0x30) * 10 + (LTE
 701:Core/Src/lte.c ****     }
 702:Core/Src/lte.c ****     else
 703:Core/Src/lte.c ****     {
 704:Core/Src/lte.c ****         LTE_GPS_LAT_I = 0;
 2482              		.loc 1 704 9 is_stmt 1 view .LVU698
 2483              		.loc 1 704 23 is_stmt 0 view .LVU699
 2484 00b4 7A4A     		ldr	r2, .L186+8
 2485              	.LVL134:
 2486              		.loc 1 704 23 view .LVU700
 2487 00b6 0021     		movs	r1, #0
 2488 00b8 1180     		strh	r1, [r2]	@ movhi
 2489 00ba 04E0     		b	.L168
 2490              	.LVL135:
 2491              	.L179:
 692:Core/Src/lte.c ****     }
 2492              		.loc 1 692 9 is_stmt 1 view .LVU701
 692:Core/Src/lte.c ****     }
 2493              		.loc 1 692 40 is_stmt 0 view .LVU702
 2494 00bc 764A     		ldr	r2, .L186
 2495              	.LVL136:
 692:Core/Src/lte.c ****     }
 2496              		.loc 1 692 40 view .LVU703
 2497 00be 127E     		ldrb	r2, [r2, #24]	@ zero_extendqisi2
 692:Core/Src/lte.c ****     }
 2498              		.loc 1 692 45 view .LVU704
 2499 00c0 303A     		subs	r2, r2, #48
 692:Core/Src/lte.c ****     }
 2500              		.loc 1 692 23 view .LVU705
 2501 00c2 7749     		ldr	r1, .L186+8
 2502 00c4 0A80     		strh	r2, [r1]	@ movhi
 2503              	.L168:
 705:Core/Src/lte.c ****     }
 706:Core/Src/lte.c ****     LTE_GPS_LAT_D = (LTE_GPS_Buffer[25+lat_length] - 0x30) * 1000000 + (LTE_GPS_Buffer[26+lat_lengt
 2504              		.loc 1 706 5 is_stmt 1 view .LVU706
 2505              		.loc 1 706 39 is_stmt 0 view .LVU707
 2506 00c6 1946     		mov	r1, r3
 2507 00c8 03F11902 		add	r2, r3, #25
 2508              		.loc 1 706 36 view .LVU708
 2509 00cc 7248     		ldr	r0, .L186
 2510 00ce 825C     		ldrb	r2, [r0, r2]	@ zero_extendqisi2
 2511              		.loc 1 706 52 view .LVU709
 2512 00d0 A2F13005 		sub	r5, r2, #48
 2513              		.loc 1 706 90 view .LVU710
 2514 00d4 03F11A02 		add	r2, r3, #26
 2515              		.loc 1 706 87 view .LVU711
 2516 00d8 825C     		ldrb	r2, [r0, r2]	@ zero_extendqisi2
 2517              		.loc 1 706 103 view .LVU712
 2518 00da 303A     		subs	r2, r2, #48
 2519              		.loc 1 706 111 view .LVU713
 2520 00dc 714E     		ldr	r6, .L186+12
 2521 00de 06FB02F2 		mul	r2, r6, r2
 2522              		.loc 1 706 70 view .LVU714
 2523 00e2 714E     		ldr	r6, .L186+16
 2524 00e4 06FB0522 		mla	r2, r6, r5, r2
ARM GAS  C:\Users\jisu8\AppData\Local\Temp\cc49UglZ.s 			page 69


 2525              		.loc 1 706 140 view .LVU715
 2526 00e8 03F11B05 		add	r5, r3, #27
 2527              		.loc 1 706 137 view .LVU716
 2528 00ec 455D     		ldrb	r5, [r0, r5]	@ zero_extendqisi2
 2529              		.loc 1 706 153 view .LVU717
 2530 00ee 303D     		subs	r5, r5, #48
 2531              		.loc 1 706 120 view .LVU718
 2532 00f0 42F21076 		movw	r6, #10000
 2533 00f4 06FB0522 		mla	r2, r6, r5, r2
 707:Core/Src/lte.c ****                     (LTE_GPS_Buffer[28+lat_length] - 0x30) * 1000+ (LTE_GPS_Buffer[29+lat_length] -
 2534              		.loc 1 707 39 view .LVU719
 2535 00f8 03F11C05 		add	r5, r3, #28
 2536              		.loc 1 707 36 view .LVU720
 2537 00fc 455D     		ldrb	r5, [r0, r5]	@ zero_extendqisi2
 2538              		.loc 1 707 52 view .LVU721
 2539 00fe 303D     		subs	r5, r5, #48
 706:Core/Src/lte.c ****                     (LTE_GPS_Buffer[28+lat_length] - 0x30) * 1000+ (LTE_GPS_Buffer[29+lat_length] -
 2540              		.loc 1 706 169 view .LVU722
 2541 0100 4FF47A76 		mov	r6, #1000
 2542 0104 06FB0522 		mla	r2, r6, r5, r2
 2543              		.loc 1 707 86 view .LVU723
 2544 0108 03F11D05 		add	r5, r3, #29
 2545              		.loc 1 707 83 view .LVU724
 2546 010c 455D     		ldrb	r5, [r0, r5]	@ zero_extendqisi2
 2547              		.loc 1 707 99 view .LVU725
 2548 010e 303D     		subs	r5, r5, #48
 2549              		.loc 1 707 66 view .LVU726
 2550 0110 6426     		movs	r6, #100
 2551 0112 06FB0522 		mla	r2, r6, r5, r2
 2552              		.loc 1 707 133 view .LVU727
 2553 0116 03F11E05 		add	r5, r3, #30
 2554              		.loc 1 707 130 view .LVU728
 2555 011a 10F805C0 		ldrb	ip, [r0, r5]	@ zero_extendqisi2
 2556              		.loc 1 707 146 view .LVU729
 2557 011e ACF1300C 		sub	ip, ip, #48
 2558              		.loc 1 707 154 view .LVU730
 2559 0122 0CEB8C0C 		add	ip, ip, ip, lsl #2
 2560              		.loc 1 707 113 view .LVU731
 2561 0126 02EB4C02 		add	r2, r2, ip, lsl #1
 2562              		.loc 1 707 179 view .LVU732
 2563 012a 1F33     		adds	r3, r3, #31
 2564              	.LVL137:
 2565              		.loc 1 707 176 view .LVU733
 2566 012c C35C     		ldrb	r3, [r0, r3]	@ zero_extendqisi2
 2567              		.loc 1 707 192 view .LVU734
 2568 012e 303B     		subs	r3, r3, #48
 2569              		.loc 1 707 159 view .LVU735
 2570 0130 1344     		add	r3, r3, r2
 706:Core/Src/lte.c ****                     (LTE_GPS_Buffer[28+lat_length] - 0x30) * 1000+ (LTE_GPS_Buffer[29+lat_length] -
 2571              		.loc 1 706 19 view .LVU736
 2572 0132 5E4A     		ldr	r2, .L186+20
 2573 0134 1360     		str	r3, [r2]
 708:Core/Src/lte.c **** 
 709:Core/Src/lte.c ****     for(uint8_t i = 0; i < 3; i++)
 2574              		.loc 1 709 5 is_stmt 1 view .LVU737
 2575              	.LBB7:
 2576              		.loc 1 709 9 view .LVU738
ARM GAS  C:\Users\jisu8\AppData\Local\Temp\cc49UglZ.s 			page 70


 2577              	.LVL138:
 2578              		.loc 1 709 17 is_stmt 0 view .LVU739
 2579 0136 0023     		movs	r3, #0
 2580              	.LBE7:
 665:Core/Src/lte.c **** 
 2581              		.loc 1 665 13 view .LVU740
 2582 0138 1A46     		mov	r2, r3
 2583              	.LBB8:
 2584              		.loc 1 709 5 view .LVU741
 2585 013a 24E0     		b	.L171
 2586              	.LVL139:
 2587              	.L180:
 2588              		.loc 1 709 5 view .LVU742
 2589              	.LBE8:
 696:Core/Src/lte.c ****     }    
 2590              		.loc 1 696 9 is_stmt 1 view .LVU743
 696:Core/Src/lte.c ****     }    
 2591              		.loc 1 696 40 is_stmt 0 view .LVU744
 2592 013c 5649     		ldr	r1, .L186
 2593 013e 0A7E     		ldrb	r2, [r1, #24]	@ zero_extendqisi2
 2594              	.LVL140:
 696:Core/Src/lte.c ****     }    
 2595              		.loc 1 696 45 view .LVU745
 2596 0140 303A     		subs	r2, r2, #48
 696:Core/Src/lte.c ****     }    
 2597              		.loc 1 696 75 view .LVU746
 2598 0142 497E     		ldrb	r1, [r1, #25]	@ zero_extendqisi2
 696:Core/Src/lte.c ****     }    
 2599              		.loc 1 696 58 view .LVU747
 2600 0144 02EB8202 		add	r2, r2, r2, lsl #2
 2601 0148 01EB4202 		add	r2, r1, r2, lsl #1
 2602 014c 303A     		subs	r2, r2, #48
 696:Core/Src/lte.c ****     }    
 2603              		.loc 1 696 23 view .LVU748
 2604 014e 5449     		ldr	r1, .L186+8
 2605 0150 0A80     		strh	r2, [r1]	@ movhi
 2606 0152 B8E7     		b	.L168
 2607              	.LVL141:
 2608              	.L181:
 700:Core/Src/lte.c ****     }
 2609              		.loc 1 700 9 is_stmt 1 view .LVU749
 700:Core/Src/lte.c ****     }
 2610              		.loc 1 700 40 is_stmt 0 view .LVU750
 2611 0154 5048     		ldr	r0, .L186
 2612 0156 017E     		ldrb	r1, [r0, #24]	@ zero_extendqisi2
 700:Core/Src/lte.c ****     }
 2613              		.loc 1 700 45 view .LVU751
 2614 0158 3039     		subs	r1, r1, #48
 700:Core/Src/lte.c ****     }
 2615              		.loc 1 700 76 view .LVU752
 2616 015a 427E     		ldrb	r2, [r0, #25]	@ zero_extendqisi2
 2617              	.LVL142:
 700:Core/Src/lte.c ****     }
 2618              		.loc 1 700 81 view .LVU753
 2619 015c 303A     		subs	r2, r2, #48
 700:Core/Src/lte.c ****     }
 2620              		.loc 1 700 59 view .LVU754
ARM GAS  C:\Users\jisu8\AppData\Local\Temp\cc49UglZ.s 			page 71


 2621 015e 01EB8101 		add	r1, r1, r1, lsl #2
 2622 0162 01EB8101 		add	r1, r1, r1, lsl #2
 2623 0166 02EB8202 		add	r2, r2, r2, lsl #2
 2624 016a 5200     		lsls	r2, r2, #1
 2625 016c 02EB8102 		add	r2, r2, r1, lsl #2
 2626 0170 92B2     		uxth	r2, r2
 700:Core/Src/lte.c ****     }
 2627              		.loc 1 700 111 view .LVU755
 2628 0172 817E     		ldrb	r1, [r0, #26]	@ zero_extendqisi2
 700:Core/Src/lte.c ****     }
 2629              		.loc 1 700 94 view .LVU756
 2630 0174 0A44     		add	r2, r2, r1
 2631 0176 303A     		subs	r2, r2, #48
 700:Core/Src/lte.c ****     }
 2632              		.loc 1 700 23 view .LVU757
 2633 0178 4949     		ldr	r1, .L186+8
 2634 017a 0A80     		strh	r2, [r1]	@ movhi
 2635 017c A3E7     		b	.L168
 2636              	.LVL143:
 2637              	.L182:
 2638              	.LBB9:
 710:Core/Src/lte.c ****     {
 711:Core/Src/lte.c ****         if(LTE_GPS_Buffer[i+33+lat_length] != '.')
 712:Core/Src/lte.c ****         {
 713:Core/Src/lte.c ****             long_length++;
 2639              		.loc 1 713 13 is_stmt 1 discriminator 2 view .LVU758
 2640              		.loc 1 713 24 is_stmt 0 discriminator 2 view .LVU759
 2641 017e 0132     		adds	r2, r2, #1
 2642              	.LVL144:
 2643              		.loc 1 713 24 discriminator 2 view .LVU760
 2644 0180 D2B2     		uxtb	r2, r2
 2645              	.LVL145:
 709:Core/Src/lte.c ****     {
 2646              		.loc 1 709 31 is_stmt 1 discriminator 2 view .LVU761
 709:Core/Src/lte.c ****     {
 2647              		.loc 1 709 32 is_stmt 0 discriminator 2 view .LVU762
 2648 0182 0133     		adds	r3, r3, #1
 2649              	.LVL146:
 709:Core/Src/lte.c ****     {
 2650              		.loc 1 709 32 discriminator 2 view .LVU763
 2651 0184 DBB2     		uxtb	r3, r3
 2652              	.LVL147:
 2653              	.L171:
 709:Core/Src/lte.c ****     {
 2654              		.loc 1 709 24 is_stmt 1 discriminator 1 view .LVU764
 709:Core/Src/lte.c ****     {
 2655              		.loc 1 709 5 is_stmt 0 discriminator 1 view .LVU765
 2656 0186 022B     		cmp	r3, #2
 2657 0188 06D8     		bhi	.L172
 711:Core/Src/lte.c ****         {
 2658              		.loc 1 711 9 is_stmt 1 view .LVU766
 711:Core/Src/lte.c ****         {
 2659              		.loc 1 711 28 is_stmt 0 view .LVU767
 2660 018a 03F12100 		add	r0, r3, #33
 711:Core/Src/lte.c ****         {
 2661              		.loc 1 711 31 view .LVU768
 2662 018e 0844     		add	r0, r0, r1
ARM GAS  C:\Users\jisu8\AppData\Local\Temp\cc49UglZ.s 			page 72


 711:Core/Src/lte.c ****         {
 2663              		.loc 1 711 26 view .LVU769
 2664 0190 414D     		ldr	r5, .L186
 2665 0192 285C     		ldrb	r0, [r5, r0]	@ zero_extendqisi2
 711:Core/Src/lte.c ****         {
 2666              		.loc 1 711 11 view .LVU770
 2667 0194 2E28     		cmp	r0, #46
 2668 0196 F2D1     		bne	.L182
 2669              	.L172:
 2670              	.LBE9:
 714:Core/Src/lte.c ****         }
 715:Core/Src/lte.c ****         else
 716:Core/Src/lte.c ****         {
 717:Core/Src/lte.c ****             break;
 718:Core/Src/lte.c ****         }
 719:Core/Src/lte.c ****     }
 720:Core/Src/lte.c **** 
 721:Core/Src/lte.c ****     if(1 == long_length)
 2671              		.loc 1 721 5 is_stmt 1 view .LVU771
 2672              		.loc 1 721 7 is_stmt 0 view .LVU772
 2673 0198 012A     		cmp	r2, #1
 2674 019a 07D0     		beq	.L183
 722:Core/Src/lte.c ****     {
 723:Core/Src/lte.c ****         LTE_GPS_LONG_I = (LTE_GPS_Buffer[33+lat_length] - 0x30);
 724:Core/Src/lte.c ****     }
 725:Core/Src/lte.c ****     else if(2 == long_length)
 2675              		.loc 1 725 10 is_stmt 1 view .LVU773
 2676              		.loc 1 725 12 is_stmt 0 view .LVU774
 2677 019c 022A     		cmp	r2, #2
 2678 019e 4FD0     		beq	.L184
 726:Core/Src/lte.c ****     {
 727:Core/Src/lte.c ****         LTE_GPS_LONG_I = (LTE_GPS_Buffer[33+lat_length] - 0x30) * 10 + (LTE_GPS_Buffer[34+lat_lengt
 728:Core/Src/lte.c ****     }    
 729:Core/Src/lte.c ****     else if(3 == long_length)
 2679              		.loc 1 729 10 is_stmt 1 view .LVU775
 2680              		.loc 1 729 12 is_stmt 0 view .LVU776
 2681 01a0 032A     		cmp	r2, #3
 2682 01a2 5DD0     		beq	.L185
 730:Core/Src/lte.c ****     {
 731:Core/Src/lte.c ****         LTE_GPS_LONG_I = (LTE_GPS_Buffer[33+lat_length] - 0x30) * 100 + (LTE_GPS_Buffer[34+lat_leng
 732:Core/Src/lte.c ****     }
 733:Core/Src/lte.c ****     else
 734:Core/Src/lte.c ****     {
 735:Core/Src/lte.c ****         LTE_GPS_LONG_I = 0;
 2683              		.loc 1 735 9 is_stmt 1 view .LVU777
 2684              		.loc 1 735 24 is_stmt 0 view .LVU778
 2685 01a4 424B     		ldr	r3, .L186+24
 2686              	.LVL148:
 2687              		.loc 1 735 24 view .LVU779
 2688 01a6 0020     		movs	r0, #0
 2689 01a8 1880     		strh	r0, [r3]	@ movhi
 2690 01aa 06E0     		b	.L175
 2691              	.LVL149:
 2692              	.L183:
 723:Core/Src/lte.c ****     }
 2693              		.loc 1 723 9 is_stmt 1 view .LVU780
 723:Core/Src/lte.c ****     }
ARM GAS  C:\Users\jisu8\AppData\Local\Temp\cc49UglZ.s 			page 73


 2694              		.loc 1 723 44 is_stmt 0 view .LVU781
 2695 01ac 01F12103 		add	r3, r1, #33
 2696              	.LVL150:
 723:Core/Src/lte.c ****     }
 2697              		.loc 1 723 41 view .LVU782
 2698 01b0 3948     		ldr	r0, .L186
 2699 01b2 C35C     		ldrb	r3, [r0, r3]	@ zero_extendqisi2
 723:Core/Src/lte.c ****     }
 2700              		.loc 1 723 57 view .LVU783
 2701 01b4 303B     		subs	r3, r3, #48
 723:Core/Src/lte.c ****     }
 2702              		.loc 1 723 24 view .LVU784
 2703 01b6 3E48     		ldr	r0, .L186+24
 2704 01b8 0380     		strh	r3, [r0]	@ movhi
 2705              	.L175:
 736:Core/Src/lte.c ****     }
 737:Core/Src/lte.c **** 
 738:Core/Src/lte.c ****     LTE_GPS_LONG_D = (LTE_GPS_Buffer[34+lat_length+long_length] - 0x30) * 1000000 + (LTE_GPS_Buffer
 2706              		.loc 1 738 5 is_stmt 1 view .LVU785
 2707              		.loc 1 738 40 is_stmt 0 view .LVU786
 2708 01ba 01F12203 		add	r3, r1, #34
 2709              		.loc 1 738 51 view .LVU787
 2710 01be 1344     		add	r3, r3, r2
 2711              		.loc 1 738 37 view .LVU788
 2712 01c0 3548     		ldr	r0, .L186
 2713 01c2 C35C     		ldrb	r3, [r0, r3]	@ zero_extendqisi2
 2714              		.loc 1 738 65 view .LVU789
 2715 01c4 A3F13005 		sub	r5, r3, #48
 2716              		.loc 1 738 103 view .LVU790
 2717 01c8 01F12303 		add	r3, r1, #35
 2718              		.loc 1 738 114 view .LVU791
 2719 01cc 1344     		add	r3, r3, r2
 2720              		.loc 1 738 100 view .LVU792
 2721 01ce C35C     		ldrb	r3, [r0, r3]	@ zero_extendqisi2
 2722              		.loc 1 738 128 view .LVU793
 2723 01d0 303B     		subs	r3, r3, #48
 2724              		.loc 1 738 136 view .LVU794
 2725 01d2 344E     		ldr	r6, .L186+12
 2726 01d4 06FB03F3 		mul	r3, r6, r3
 2727              		.loc 1 738 83 view .LVU795
 2728 01d8 334E     		ldr	r6, .L186+16
 2729 01da 06FB0533 		mla	r3, r6, r5, r3
 2730              		.loc 1 738 165 view .LVU796
 2731 01de 01F12405 		add	r5, r1, #36
 2732              		.loc 1 738 176 view .LVU797
 2733 01e2 1544     		add	r5, r5, r2
 2734              		.loc 1 738 162 view .LVU798
 2735 01e4 455D     		ldrb	r5, [r0, r5]	@ zero_extendqisi2
 2736              		.loc 1 738 190 view .LVU799
 2737 01e6 303D     		subs	r5, r5, #48
 2738              		.loc 1 738 145 view .LVU800
 2739 01e8 42F2107C 		movw	ip, #10000
 2740 01ec 0CFB0533 		mla	r3, ip, r5, r3
 739:Core/Src/lte.c ****                      (LTE_GPS_Buffer[37+lat_length+long_length] - 0x30) * 1000 + (LTE_GPS_Buffer[38
 2741              		.loc 1 739 40 view .LVU801
 2742 01f0 01F12505 		add	r5, r1, #37
 2743              		.loc 1 739 51 view .LVU802
ARM GAS  C:\Users\jisu8\AppData\Local\Temp\cc49UglZ.s 			page 74


 2744 01f4 1544     		add	r5, r5, r2
 2745              		.loc 1 739 37 view .LVU803
 2746 01f6 455D     		ldrb	r5, [r0, r5]	@ zero_extendqisi2
 2747              		.loc 1 739 65 view .LVU804
 2748 01f8 303D     		subs	r5, r5, #48
 738:Core/Src/lte.c ****                      (LTE_GPS_Buffer[37+lat_length+long_length] - 0x30) * 1000 + (LTE_GPS_Buffer[38
 2749              		.loc 1 738 206 view .LVU805
 2750 01fa 4FF47A7C 		mov	ip, #1000
 2751 01fe 0CFB0533 		mla	r3, ip, r5, r3
 2752              		.loc 1 739 100 view .LVU806
 2753 0202 01F12605 		add	r5, r1, #38
 2754              		.loc 1 739 111 view .LVU807
 2755 0206 1544     		add	r5, r5, r2
 2756              		.loc 1 739 97 view .LVU808
 2757 0208 455D     		ldrb	r5, [r0, r5]	@ zero_extendqisi2
 2758              		.loc 1 739 125 view .LVU809
 2759 020a 303D     		subs	r5, r5, #48
 2760              		.loc 1 739 80 view .LVU810
 2761 020c 4FF0640C 		mov	ip, #100
 2762 0210 0CFB0533 		mla	r3, ip, r5, r3
 2763              		.loc 1 739 159 view .LVU811
 2764 0214 01F12705 		add	r5, r1, #39
 2765              		.loc 1 739 170 view .LVU812
 2766 0218 1544     		add	r5, r5, r2
 2767              		.loc 1 739 156 view .LVU813
 2768 021a 10F805C0 		ldrb	ip, [r0, r5]	@ zero_extendqisi2
 2769              		.loc 1 739 184 view .LVU814
 2770 021e ACF1300C 		sub	ip, ip, #48
 2771              		.loc 1 739 192 view .LVU815
 2772 0222 0CEB8C0C 		add	ip, ip, ip, lsl #2
 2773              		.loc 1 739 139 view .LVU816
 2774 0226 03EB4C03 		add	r3, r3, ip, lsl #1
 2775              		.loc 1 739 217 view .LVU817
 2776 022a 2831     		adds	r1, r1, #40
 2777              		.loc 1 739 228 view .LVU818
 2778 022c 0A44     		add	r2, r2, r1
 2779              	.LVL151:
 2780              		.loc 1 739 214 view .LVU819
 2781 022e 825C     		ldrb	r2, [r0, r2]	@ zero_extendqisi2
 2782              		.loc 1 739 242 view .LVU820
 2783 0230 303A     		subs	r2, r2, #48
 2784              		.loc 1 739 197 view .LVU821
 2785 0232 1344     		add	r3, r3, r2
 738:Core/Src/lte.c ****                      (LTE_GPS_Buffer[37+lat_length+long_length] - 0x30) * 1000 + (LTE_GPS_Buffer[38
 2786              		.loc 1 738 20 view .LVU822
 2787 0234 1F4A     		ldr	r2, .L186+28
 2788 0236 1360     		str	r3, [r2]
 740:Core/Src/lte.c ****     retval++;
 2789              		.loc 1 740 5 is_stmt 1 view .LVU823
 2790              		.loc 1 740 11 is_stmt 0 view .LVU824
 2791 0238 601C     		adds	r0, r4, #1
 2792              	.LVL152:
 741:Core/Src/lte.c ****     
 742:Core/Src/lte.c ****     return retval;
 2793              		.loc 1 742 5 is_stmt 1 view .LVU825
 743:Core/Src/lte.c **** }...
 2794              		.loc 1 743 1 is_stmt 0 view .LVU826
ARM GAS  C:\Users\jisu8\AppData\Local\Temp\cc49UglZ.s 			page 75


 2795 023a C0B2     		uxtb	r0, r0
 2796              		.loc 1 743 1 view .LVU827
 2797 023c 06B0     		add	sp, sp, #24
 2798              	.LCFI17:
 2799              		.cfi_remember_state
 2800              		.cfi_def_cfa_offset 16
 2801              		@ sp needed
 2802 023e 70BD     		pop	{r4, r5, r6, pc}
 2803              	.LVL153:
 2804              	.L184:
 2805              	.LCFI18:
 2806              		.cfi_restore_state
 727:Core/Src/lte.c ****         LTE_GPS_LONG_I = (LTE_GPS_Buffer[33+lat_length] - 0x30) * 10 + (LTE_GPS_Buffer[34+lat_lengt
 2807              		.loc 1 727 9 is_stmt 1 view .LVU828
 727:Core/Src/lte.c ****         LTE_GPS_LONG_I = (LTE_GPS_Buffer[33+lat_length] - 0x30) * 10 + (LTE_GPS_Buffer[34+lat_lengt
 2808              		.loc 1 727 44 is_stmt 0 view .LVU829
 2809 0240 01F12103 		add	r3, r1, #33
 2810              	.LVL154:
 727:Core/Src/lte.c ****         LTE_GPS_LONG_I = (LTE_GPS_Buffer[33+lat_length] - 0x30) * 10 + (LTE_GPS_Buffer[34+lat_lengt
 2811              		.loc 1 727 41 view .LVU830
 2812 0244 1448     		ldr	r0, .L186
 2813 0246 C35C     		ldrb	r3, [r0, r3]	@ zero_extendqisi2
 727:Core/Src/lte.c ****         LTE_GPS_LONG_I = (LTE_GPS_Buffer[33+lat_length] - 0x30) * 10 + (LTE_GPS_Buffer[34+lat_lengt
 2814              		.loc 1 727 57 view .LVU831
 2815 0248 303B     		subs	r3, r3, #48
 727:Core/Src/lte.c ****         LTE_GPS_LONG_I = (LTE_GPS_Buffer[33+lat_length] - 0x30) * 10 + (LTE_GPS_Buffer[34+lat_lengt
 2816              		.loc 1 727 90 view .LVU832
 2817 024a 01F12205 		add	r5, r1, #34
 727:Core/Src/lte.c ****         LTE_GPS_LONG_I = (LTE_GPS_Buffer[33+lat_length] - 0x30) * 10 + (LTE_GPS_Buffer[34+lat_lengt
 2818              		.loc 1 727 87 view .LVU833
 2819 024e 405D     		ldrb	r0, [r0, r5]	@ zero_extendqisi2
 727:Core/Src/lte.c ****         LTE_GPS_LONG_I = (LTE_GPS_Buffer[33+lat_length] - 0x30) * 10 + (LTE_GPS_Buffer[34+lat_lengt
 2820              		.loc 1 727 70 view .LVU834
 2821 0250 03EB8303 		add	r3, r3, r3, lsl #2
 2822 0254 00EB4303 		add	r3, r0, r3, lsl #1
 2823 0258 303B     		subs	r3, r3, #48
 727:Core/Src/lte.c ****         LTE_GPS_LONG_I = (LTE_GPS_Buffer[33+lat_length] - 0x30) * 10 + (LTE_GPS_Buffer[34+lat_lengt
 2824              		.loc 1 727 24 view .LVU835
 2825 025a 1548     		ldr	r0, .L186+24
 2826 025c 0380     		strh	r3, [r0]	@ movhi
 2827 025e ACE7     		b	.L175
 2828              	.LVL155:
 2829              	.L185:
 731:Core/Src/lte.c ****         LTE_GPS_LONG_I = (LTE_GPS_Buffer[33+lat_length] - 0x30) * 100 + (LTE_GPS_Buffer[34+lat_leng
 2830              		.loc 1 731 9 is_stmt 1 view .LVU836
 731:Core/Src/lte.c ****         LTE_GPS_LONG_I = (LTE_GPS_Buffer[33+lat_length] - 0x30) * 100 + (LTE_GPS_Buffer[34+lat_leng
 2831              		.loc 1 731 44 is_stmt 0 view .LVU837
 2832 0260 01F12103 		add	r3, r1, #33
 2833              	.LVL156:
 731:Core/Src/lte.c ****         LTE_GPS_LONG_I = (LTE_GPS_Buffer[33+lat_length] - 0x30) * 100 + (LTE_GPS_Buffer[34+lat_leng
 2834              		.loc 1 731 41 view .LVU838
 2835 0264 0C4D     		ldr	r5, .L186
 2836 0266 E85C     		ldrb	r0, [r5, r3]	@ zero_extendqisi2
 731:Core/Src/lte.c ****         LTE_GPS_LONG_I = (LTE_GPS_Buffer[33+lat_length] - 0x30) * 100 + (LTE_GPS_Buffer[34+lat_leng
 2837              		.loc 1 731 57 view .LVU839
 2838 0268 3038     		subs	r0, r0, #48
 731:Core/Src/lte.c ****         LTE_GPS_LONG_I = (LTE_GPS_Buffer[33+lat_length] - 0x30) * 100 + (LTE_GPS_Buffer[34+lat_leng
ARM GAS  C:\Users\jisu8\AppData\Local\Temp\cc49UglZ.s 			page 76


 2839              		.loc 1 731 91 view .LVU840
 2840 026a 01F12203 		add	r3, r1, #34
 731:Core/Src/lte.c ****         LTE_GPS_LONG_I = (LTE_GPS_Buffer[33+lat_length] - 0x30) * 100 + (LTE_GPS_Buffer[34+lat_leng
 2841              		.loc 1 731 88 view .LVU841
 2842 026e EB5C     		ldrb	r3, [r5, r3]	@ zero_extendqisi2
 731:Core/Src/lte.c ****         LTE_GPS_LONG_I = (LTE_GPS_Buffer[33+lat_length] - 0x30) * 100 + (LTE_GPS_Buffer[34+lat_leng
 2843              		.loc 1 731 104 view .LVU842
 2844 0270 303B     		subs	r3, r3, #48
 731:Core/Src/lte.c ****         LTE_GPS_LONG_I = (LTE_GPS_Buffer[33+lat_length] - 0x30) * 100 + (LTE_GPS_Buffer[34+lat_leng
 2845              		.loc 1 731 71 view .LVU843
 2846 0272 00EB8000 		add	r0, r0, r0, lsl #2
 2847 0276 00EB8000 		add	r0, r0, r0, lsl #2
 2848 027a 03EB8303 		add	r3, r3, r3, lsl #2
 2849 027e 5B00     		lsls	r3, r3, #1
 2850 0280 03EB8003 		add	r3, r3, r0, lsl #2
 2851 0284 9BB2     		uxth	r3, r3
 731:Core/Src/lte.c ****         LTE_GPS_LONG_I = (LTE_GPS_Buffer[33+lat_length] - 0x30) * 100 + (LTE_GPS_Buffer[34+lat_leng
 2852              		.loc 1 731 137 view .LVU844
 2853 0286 01F12300 		add	r0, r1, #35
 731:Core/Src/lte.c ****         LTE_GPS_LONG_I = (LTE_GPS_Buffer[33+lat_length] - 0x30) * 100 + (LTE_GPS_Buffer[34+lat_leng
 2854              		.loc 1 731 134 view .LVU845
 2855 028a 285C     		ldrb	r0, [r5, r0]	@ zero_extendqisi2
 731:Core/Src/lte.c ****         LTE_GPS_LONG_I = (LTE_GPS_Buffer[33+lat_length] - 0x30) * 100 + (LTE_GPS_Buffer[34+lat_leng
 2856              		.loc 1 731 117 view .LVU846
 2857 028c 0344     		add	r3, r3, r0
 2858 028e 303B     		subs	r3, r3, #48
 731:Core/Src/lte.c ****         LTE_GPS_LONG_I = (LTE_GPS_Buffer[33+lat_length] - 0x30) * 100 + (LTE_GPS_Buffer[34+lat_leng
 2859              		.loc 1 731 24 view .LVU847
 2860 0290 0748     		ldr	r0, .L186+24
 2861 0292 0380     		strh	r3, [r0]	@ movhi
 2862 0294 91E7     		b	.L175
 2863              	.L187:
 2864 0296 00BF     		.align	2
 2865              	.L186:
 2866 0298 00000000 		.word	.LANCHOR22
 2867 029c 00000000 		.word	hrtc
 2868 02a0 00000000 		.word	.LANCHOR14
 2869 02a4 A0860100 		.word	100000
 2870 02a8 40420F00 		.word	1000000
 2871 02ac 00000000 		.word	.LANCHOR13
 2872 02b0 00000000 		.word	.LANCHOR12
 2873 02b4 00000000 		.word	.LANCHOR11
 2874              		.cfi_endproc
 2875              	.LFE144:
 2877              		.section	.rodata.LTE_GPS_Connect.str1.4,"aMS",%progbits,1
 2878              		.align	2
 2879              	.LC21:
 2880 0000 41542B55 		.ascii	"AT+ULOCCELL=0\015\012\000"
 2880      4C4F4343 
 2880      454C4C3D 
 2880      300D0A00 
 2881              		.align	2
 2882              	.LC22:
 2883 0010 41542B55 		.ascii	"AT+ULOC=2,3,1,100,5000\015\012\000"
 2883      4C4F433D 
 2883      322C332C 
 2883      312C3130 
ARM GAS  C:\Users\jisu8\AppData\Local\Temp\cc49UglZ.s 			page 77


 2883      302C3530 
 2884              		.section	.text.LTE_GPS_Connect,"ax",%progbits
 2885              		.align	1
 2886              		.syntax unified
 2887              		.thumb
 2888              		.thumb_func
 2890              	LTE_GPS_Connect:
 2891              	.LFB137:
 484:Core/Src/lte.c **** {
 2892              		.loc 1 484 1 is_stmt 1 view -0
 2893              		.cfi_startproc
 2894              		@ args = 0, pretend = 0, frame = 104
 2895              		@ frame_needed = 0, uses_anonymous_args = 0
 2896 0000 10B5     		push	{r4, lr}
 2897              	.LCFI19:
 2898              		.cfi_def_cfa_offset 8
 2899              		.cfi_offset 4, -8
 2900              		.cfi_offset 14, -4
 2901 0002 9AB0     		sub	sp, sp, #104
 2902              	.LCFI20:
 2903              		.cfi_def_cfa_offset 112
 485:Core/Src/lte.c ****     char Tx_Buf[100] = {0,};
 2904              		.loc 1 485 5 view .LVU849
 485:Core/Src/lte.c ****     char Tx_Buf[100] = {0,};
 2905              		.loc 1 485 10 is_stmt 0 view .LVU850
 2906 0004 0021     		movs	r1, #0
 2907 0006 0191     		str	r1, [sp, #4]
 2908 0008 6022     		movs	r2, #96
 2909 000a 02A8     		add	r0, sp, #8
 2910 000c FFF7FEFF 		bl	memset
 2911              	.LVL157:
 486:Core/Src/lte.c ****     static LTE_Status_t stDelay;
 2912              		.loc 1 486 5 is_stmt 1 view .LVU851
 487:Core/Src/lte.c ****     static uint8_t uart_status;
 2913              		.loc 1 487 5 view .LVU852
 489:Core/Src/lte.c ****     switch(LTE_GPS_Status)
 2914              		.loc 1 489 5 view .LVU853
 2915 0010 334B     		ldr	r3, .L202
 2916 0012 1B78     		ldrb	r3, [r3]	@ zero_extendqisi2
 2917 0014 012B     		cmp	r3, #1
 2918 0016 2DD0     		beq	.L189
 2919 0018 022B     		cmp	r3, #2
 2920 001a 5BD0     		beq	.L190
 2921 001c 0BB1     		cbz	r3, .L197
 2922              	.L188:
 539:Core/Src/lte.c **** }
 2923              		.loc 1 539 1 is_stmt 0 view .LVU854
 2924 001e 1AB0     		add	sp, sp, #104
 2925              	.LCFI21:
 2926              		.cfi_remember_state
 2927              		.cfi_def_cfa_offset 8
 2928              		@ sp needed
 2929 0020 10BD     		pop	{r4, pc}
 2930              	.L197:
 2931              	.LCFI22:
 2932              		.cfi_restore_state
 492:Core/Src/lte.c ****             if(LTE_UART_STATUS_TRANSMIT == uart_status)
ARM GAS  C:\Users\jisu8\AppData\Local\Temp\cc49UglZ.s 			page 78


 2933              		.loc 1 492 13 is_stmt 1 view .LVU855
 492:Core/Src/lte.c ****             if(LTE_UART_STATUS_TRANSMIT == uart_status)
 2934              		.loc 1 492 41 is_stmt 0 view .LVU856
 2935 0022 304B     		ldr	r3, .L202+4
 2936 0024 1B78     		ldrb	r3, [r3]	@ zero_extendqisi2
 492:Core/Src/lte.c ****             if(LTE_UART_STATUS_TRANSMIT == uart_status)
 2937              		.loc 1 492 15 view .LVU857
 2938 0026 73B1     		cbz	r3, .L198
 2939              	.L192:
 498:Core/Src/lte.c ****             if(LTE_UART_STATUS_RECEIVE == uart_status)
 2940              		.loc 1 498 13 is_stmt 1 view .LVU858
 498:Core/Src/lte.c ****             if(LTE_UART_STATUS_RECEIVE == uart_status)
 2941              		.loc 1 498 40 is_stmt 0 view .LVU859
 2942 0028 2E4B     		ldr	r3, .L202+4
 2943 002a 1B78     		ldrb	r3, [r3]	@ zero_extendqisi2
 498:Core/Src/lte.c ****             if(LTE_UART_STATUS_RECEIVE == uart_status)
 2944              		.loc 1 498 15 view .LVU860
 2945 002c 012B     		cmp	r3, #1
 2946 002e F6D1     		bne	.L188
 500:Core/Src/lte.c ****                 if(OK == stDelay)
 2947              		.loc 1 500 17 is_stmt 1 view .LVU861
 500:Core/Src/lte.c ****                 if(OK == stDelay)
 2948              		.loc 1 500 23 is_stmt 0 view .LVU862
 2949 0030 2D4B     		ldr	r3, .L202+8
 2950 0032 1B78     		ldrb	r3, [r3]	@ zero_extendqisi2
 500:Core/Src/lte.c ****                 if(OK == stDelay)
 2951              		.loc 1 500 19 view .LVU863
 2952 0034 012B     		cmp	r3, #1
 2953 0036 12D0     		beq	.L199
 508:Core/Src/lte.c ****                     stDelay = LTE_Delay(1000);
 2954              		.loc 1 508 21 is_stmt 1 view .LVU864
 508:Core/Src/lte.c ****                     stDelay = LTE_Delay(1000);
 2955              		.loc 1 508 31 is_stmt 0 view .LVU865
 2956 0038 4FF47A70 		mov	r0, #1000
 2957 003c FFF7FEFF 		bl	LTE_Delay
 2958              	.LVL158:
 508:Core/Src/lte.c ****                     stDelay = LTE_Delay(1000);
 2959              		.loc 1 508 29 view .LVU866
 2960 0040 294B     		ldr	r3, .L202+8
 2961 0042 1870     		strb	r0, [r3]
 2962 0044 EBE7     		b	.L188
 2963              	.L198:
 494:Core/Src/lte.c ****                 sprintf(Tx_Buf,"AT+ULOCCELL=0\r\n");
 2964              		.loc 1 494 17 is_stmt 1 view .LVU867
 2965 0046 01AC     		add	r4, sp, #4
 2966 0048 284B     		ldr	r3, .L202+12
 2967 004a 0FCB     		ldm	r3, {r0, r1, r2, r3}
 2968 004c 84E80F00 		stm	r4, {r0, r1, r2, r3}
 495:Core/Src/lte.c ****                 LTE_Transmit(Tx_Buf);
 2969              		.loc 1 495 17 view .LVU868
 2970 0050 2046     		mov	r0, r4
 2971 0052 FFF7FEFF 		bl	LTE_Transmit
 2972              	.LVL159:
 496:Core/Src/lte.c ****                 uart_status = LTE_UART_STATUS_RECEIVE;
 2973              		.loc 1 496 17 view .LVU869
 496:Core/Src/lte.c ****                 uart_status = LTE_UART_STATUS_RECEIVE;
 2974              		.loc 1 496 29 is_stmt 0 view .LVU870
ARM GAS  C:\Users\jisu8\AppData\Local\Temp\cc49UglZ.s 			page 79


 2975 0056 234B     		ldr	r3, .L202+4
 2976 0058 0122     		movs	r2, #1
 2977 005a 1A70     		strb	r2, [r3]
 2978 005c E4E7     		b	.L192
 2979              	.L199:
 502:Core/Src/lte.c ****                     LTE_GPS_Status = LTE_Receive_Check(LTE_GPS_STEP_ULOCCELL);
 2980              		.loc 1 502 21 is_stmt 1 view .LVU871
 502:Core/Src/lte.c ****                     LTE_GPS_Status = LTE_Receive_Check(LTE_GPS_STEP_ULOCCELL);
 2981              		.loc 1 502 38 is_stmt 0 view .LVU872
 2982 005e 0020     		movs	r0, #0
 2983 0060 FFF7FEFF 		bl	LTE_Receive_Check
 2984              	.LVL160:
 502:Core/Src/lte.c ****                     LTE_GPS_Status = LTE_Receive_Check(LTE_GPS_STEP_ULOCCELL);
 2985              		.loc 1 502 36 view .LVU873
 2986 0064 1E4B     		ldr	r3, .L202
 2987 0066 1870     		strb	r0, [r3]
 503:Core/Src/lte.c ****                     stDelay = FAIL;
 2988              		.loc 1 503 21 is_stmt 1 view .LVU874
 503:Core/Src/lte.c ****                     stDelay = FAIL;
 2989              		.loc 1 503 29 is_stmt 0 view .LVU875
 2990 0068 0023     		movs	r3, #0
 2991 006a 1F4A     		ldr	r2, .L202+8
 2992 006c 1370     		strb	r3, [r2]
 504:Core/Src/lte.c ****                     uart_status = LTE_UART_STATUS_TRANSMIT;
 2993              		.loc 1 504 21 is_stmt 1 view .LVU876
 504:Core/Src/lte.c ****                     uart_status = LTE_UART_STATUS_TRANSMIT;
 2994              		.loc 1 504 33 is_stmt 0 view .LVU877
 2995 006e 1D4A     		ldr	r2, .L202+4
 2996 0070 1370     		strb	r3, [r2]
 2997 0072 D4E7     		b	.L188
 2998              	.L189:
 513:Core/Src/lte.c ****             if(LTE_UART_STATUS_TRANSMIT == uart_status)
 2999              		.loc 1 513 13 is_stmt 1 view .LVU878
 513:Core/Src/lte.c ****             if(LTE_UART_STATUS_TRANSMIT == uart_status)
 3000              		.loc 1 513 41 is_stmt 0 view .LVU879
 3001 0074 1B4B     		ldr	r3, .L202+4
 3002 0076 1B78     		ldrb	r3, [r3]	@ zero_extendqisi2
 513:Core/Src/lte.c ****             if(LTE_UART_STATUS_TRANSMIT == uart_status)
 3003              		.loc 1 513 15 view .LVU880
 3004 0078 73B1     		cbz	r3, .L200
 3005              	.L194:
 519:Core/Src/lte.c ****             if(LTE_UART_STATUS_RECEIVE == uart_status)
 3006              		.loc 1 519 13 is_stmt 1 view .LVU881
 519:Core/Src/lte.c ****             if(LTE_UART_STATUS_RECEIVE == uart_status)
 3007              		.loc 1 519 40 is_stmt 0 view .LVU882
 3008 007a 1A4B     		ldr	r3, .L202+4
 3009 007c 1B78     		ldrb	r3, [r3]	@ zero_extendqisi2
 519:Core/Src/lte.c ****             if(LTE_UART_STATUS_RECEIVE == uart_status)
 3010              		.loc 1 519 15 view .LVU883
 3011 007e 012B     		cmp	r3, #1
 3012 0080 CDD1     		bne	.L188
 521:Core/Src/lte.c ****                 if(OK == stDelay)
 3013              		.loc 1 521 17 is_stmt 1 view .LVU884
 521:Core/Src/lte.c ****                 if(OK == stDelay)
 3014              		.loc 1 521 23 is_stmt 0 view .LVU885
 3015 0082 194B     		ldr	r3, .L202+8
 3016 0084 1B78     		ldrb	r3, [r3]	@ zero_extendqisi2
ARM GAS  C:\Users\jisu8\AppData\Local\Temp\cc49UglZ.s 			page 80


 521:Core/Src/lte.c ****                 if(OK == stDelay)
 3017              		.loc 1 521 19 view .LVU886
 3018 0086 012B     		cmp	r3, #1
 3019 0088 19D0     		beq	.L201
 529:Core/Src/lte.c ****                     stDelay = LTE_Delay(5000);
 3020              		.loc 1 529 21 is_stmt 1 view .LVU887
 529:Core/Src/lte.c ****                     stDelay = LTE_Delay(5000);
 3021              		.loc 1 529 31 is_stmt 0 view .LVU888
 3022 008a 41F28830 		movw	r0, #5000
 3023 008e FFF7FEFF 		bl	LTE_Delay
 3024              	.LVL161:
 529:Core/Src/lte.c ****                     stDelay = LTE_Delay(5000);
 3025              		.loc 1 529 29 view .LVU889
 3026 0092 154B     		ldr	r3, .L202+8
 3027 0094 1870     		strb	r0, [r3]
 3028 0096 C2E7     		b	.L188
 3029              	.L200:
 515:Core/Src/lte.c ****                 sprintf(Tx_Buf,"AT+ULOC=2,3,1,100,5000\r\n");
 3030              		.loc 1 515 17 is_stmt 1 view .LVU890
 3031 0098 0DF1040C 		add	ip, sp, #4
 3032 009c 144C     		ldr	r4, .L202+16
 3033 009e 0FCC     		ldmia	r4!, {r0, r1, r2, r3}
 3034 00a0 ACE80F00 		stmia	ip!, {r0, r1, r2, r3}
 3035 00a4 94E80700 		ldm	r4, {r0, r1, r2}
 3036 00a8 ACE80300 		stmia	ip!, {r0, r1}
 3037 00ac 8CF80020 		strb	r2, [ip]
 516:Core/Src/lte.c ****                 LTE_Transmit(Tx_Buf);
 3038              		.loc 1 516 17 view .LVU891
 3039 00b0 01A8     		add	r0, sp, #4
 3040 00b2 FFF7FEFF 		bl	LTE_Transmit
 3041              	.LVL162:
 517:Core/Src/lte.c ****                 uart_status = LTE_UART_STATUS_RECEIVE;
 3042              		.loc 1 517 17 view .LVU892
 517:Core/Src/lte.c ****                 uart_status = LTE_UART_STATUS_RECEIVE;
 3043              		.loc 1 517 29 is_stmt 0 view .LVU893
 3044 00b6 0B4B     		ldr	r3, .L202+4
 3045 00b8 0122     		movs	r2, #1
 3046 00ba 1A70     		strb	r2, [r3]
 3047 00bc DDE7     		b	.L194
 3048              	.L201:
 523:Core/Src/lte.c ****                     LTE_GPS_Status = LTE_GPS_Receive_Data(LTE_GPS_STEP_ULOC);
 3049              		.loc 1 523 21 is_stmt 1 view .LVU894
 523:Core/Src/lte.c ****                     LTE_GPS_Status = LTE_GPS_Receive_Data(LTE_GPS_STEP_ULOC);
 3050              		.loc 1 523 38 is_stmt 0 view .LVU895
 3051 00be 0120     		movs	r0, #1
 3052 00c0 FFF7FEFF 		bl	LTE_GPS_Receive_Data
 3053              	.LVL163:
 523:Core/Src/lte.c ****                     LTE_GPS_Status = LTE_GPS_Receive_Data(LTE_GPS_STEP_ULOC);
 3054              		.loc 1 523 36 view .LVU896
 3055 00c4 064B     		ldr	r3, .L202
 3056 00c6 1870     		strb	r0, [r3]
 524:Core/Src/lte.c ****                     stDelay = FAIL;
 3057              		.loc 1 524 21 is_stmt 1 view .LVU897
 524:Core/Src/lte.c ****                     stDelay = FAIL;
 3058              		.loc 1 524 29 is_stmt 0 view .LVU898
 3059 00c8 0023     		movs	r3, #0
 3060 00ca 074A     		ldr	r2, .L202+8
ARM GAS  C:\Users\jisu8\AppData\Local\Temp\cc49UglZ.s 			page 81


 3061 00cc 1370     		strb	r3, [r2]
 525:Core/Src/lte.c ****                     uart_status = LTE_UART_STATUS_TRANSMIT;
 3062              		.loc 1 525 21 is_stmt 1 view .LVU899
 525:Core/Src/lte.c ****                     uart_status = LTE_UART_STATUS_TRANSMIT;
 3063              		.loc 1 525 33 is_stmt 0 view .LVU900
 3064 00ce 054A     		ldr	r2, .L202+4
 3065 00d0 1370     		strb	r3, [r2]
 3066 00d2 A4E7     		b	.L188
 3067              	.L190:
 534:Core/Src/lte.c ****             LTE_GPS_Status = LTE_GPS_Update_Data(LTE_GPS_STEP_UPDATEDATA);
 3068              		.loc 1 534 13 is_stmt 1 view .LVU901
 534:Core/Src/lte.c ****             LTE_GPS_Status = LTE_GPS_Update_Data(LTE_GPS_STEP_UPDATEDATA);
 3069              		.loc 1 534 30 is_stmt 0 view .LVU902
 3070 00d4 0220     		movs	r0, #2
 3071 00d6 FFF7FEFF 		bl	LTE_GPS_Update_Data
 3072              	.LVL164:
 534:Core/Src/lte.c ****             LTE_GPS_Status = LTE_GPS_Update_Data(LTE_GPS_STEP_UPDATEDATA);
 3073              		.loc 1 534 28 view .LVU903
 3074 00da 014B     		ldr	r3, .L202
 3075 00dc 1870     		strb	r0, [r3]
 535:Core/Src/lte.c ****         break;
 3076              		.loc 1 535 9 is_stmt 1 view .LVU904
 539:Core/Src/lte.c **** }
 3077              		.loc 1 539 1 is_stmt 0 view .LVU905
 3078 00de 9EE7     		b	.L188
 3079              	.L203:
 3080              		.align	2
 3081              	.L202:
 3082 00e0 00000000 		.word	.LANCHOR23
 3083 00e4 00000000 		.word	.LANCHOR24
 3084 00e8 00000000 		.word	.LANCHOR25
 3085 00ec 00000000 		.word	.LC21
 3086 00f0 10000000 		.word	.LC22
 3087              		.cfi_endproc
 3088              	.LFE137:
 3090              		.section	.text.LTE_Init,"ax",%progbits
 3091              		.align	1
 3092              		.global	LTE_Init
 3093              		.syntax unified
 3094              		.thumb
 3095              		.thumb_func
 3097              	LTE_Init:
 3098              	.LFB133:
  33:Core/Src/lte.c **** {
 3099              		.loc 1 33 1 is_stmt 1 view -0
 3100              		.cfi_startproc
 3101              		@ args = 0, pretend = 0, frame = 0
 3102              		@ frame_needed = 0, uses_anonymous_args = 0
 3103 0000 10B5     		push	{r4, lr}
 3104              	.LCFI23:
 3105              		.cfi_def_cfa_offset 8
 3106              		.cfi_offset 4, -8
 3107              		.cfi_offset 14, -4
  34:Core/Src/lte.c ****     if ( HAL_UART_Receive_IT(&huart1, &dummy_lte, 1) != HAL_OK)
 3108              		.loc 1 34 5 view .LVU907
  34:Core/Src/lte.c ****     if ( HAL_UART_Receive_IT(&huart1, &dummy_lte, 1) != HAL_OK)
 3109              		.loc 1 34 10 is_stmt 0 view .LVU908
ARM GAS  C:\Users\jisu8\AppData\Local\Temp\cc49UglZ.s 			page 82


 3110 0002 0122     		movs	r2, #1
 3111 0004 0B49     		ldr	r1, .L208
 3112 0006 0C48     		ldr	r0, .L208+4
 3113 0008 FFF7FEFF 		bl	HAL_UART_Receive_IT
 3114              	.LVL165:
  34:Core/Src/lte.c ****     if ( HAL_UART_Receive_IT(&huart1, &dummy_lte, 1) != HAL_OK)
 3115              		.loc 1 34 8 view .LVU909
 3116 000c 78B9     		cbnz	r0, .L207
 3117              	.L205:
  40:Core/Src/lte.c **** 	HAL_GPIO_WritePin(POWER_KEY_GPIO_Port, POWER_KEY_Pin, GPIO_PIN_RESET);
 3118              		.loc 1 40 2 is_stmt 1 view .LVU910
 3119 000e 0B4C     		ldr	r4, .L208+8
 3120 0010 0022     		movs	r2, #0
 3121 0012 2021     		movs	r1, #32
 3122 0014 2046     		mov	r0, r4
 3123 0016 FFF7FEFF 		bl	HAL_GPIO_WritePin
 3124              	.LVL166:
  41:Core/Src/lte.c ****     HAL_Delay(1500);
 3125              		.loc 1 41 5 view .LVU911
 3126 001a 40F2DC50 		movw	r0, #1500
 3127 001e FFF7FEFF 		bl	HAL_Delay
 3128              	.LVL167:
  43:Core/Src/lte.c **** 	HAL_GPIO_WritePin(RESET_ONOFF_GPIO_Port, RESET_ONOFF_Pin, GPIO_PIN_RESET);
 3129              		.loc 1 43 2 view .LVU912
 3130 0022 0022     		movs	r2, #0
 3131 0024 4021     		movs	r1, #64
 3132 0026 2046     		mov	r0, r4
 3133 0028 FFF7FEFF 		bl	HAL_GPIO_WritePin
 3134              	.LVL168:
  44:Core/Src/lte.c **** }
 3135              		.loc 1 44 1 is_stmt 0 view .LVU913
 3136 002c 10BD     		pop	{r4, pc}
 3137              	.L207:
  36:Core/Src/lte.c ****         Error_Handler();
 3138              		.loc 1 36 9 is_stmt 1 view .LVU914
 3139 002e FFF7FEFF 		bl	Error_Handler
 3140              	.LVL169:
 3141 0032 ECE7     		b	.L205
 3142              	.L209:
 3143              		.align	2
 3144              	.L208:
 3145 0034 00000000 		.word	.LANCHOR26
 3146 0038 00000000 		.word	huart1
 3147 003c 00040048 		.word	1207960576
 3148              		.cfi_endproc
 3149              	.LFE133:
 3151              		.section	.text.LTE_Control,"ax",%progbits
 3152              		.align	1
 3153              		.global	LTE_Control
 3154              		.syntax unified
 3155              		.thumb
 3156              		.thumb_func
 3158              	LTE_Control:
 3159              	.LFB134:
  47:Core/Src/lte.c **** {
 3160              		.loc 1 47 1 view -0
 3161              		.cfi_startproc
ARM GAS  C:\Users\jisu8\AppData\Local\Temp\cc49UglZ.s 			page 83


 3162              		@ args = 0, pretend = 0, frame = 0
 3163              		@ frame_needed = 0, uses_anonymous_args = 0
 3164 0000 08B5     		push	{r3, lr}
 3165              	.LCFI24:
 3166              		.cfi_def_cfa_offset 8
 3167              		.cfi_offset 3, -8
 3168              		.cfi_offset 14, -4
  48:Core/Src/lte.c ****     LTE_Update_Data();
 3169              		.loc 1 48 5 view .LVU916
 3170 0002 FFF7FEFF 		bl	LTE_Update_Data
 3171              	.LVL170:
  49:Core/Src/lte.c ****     if(LTE_GPS_STEP_FINISH == LTE_GPS_Status)
 3172              		.loc 1 49 5 view .LVU917
  49:Core/Src/lte.c ****     if(LTE_GPS_STEP_FINISH == LTE_GPS_Status)
 3173              		.loc 1 49 28 is_stmt 0 view .LVU918
 3174 0006 054B     		ldr	r3, .L215
 3175 0008 1B78     		ldrb	r3, [r3]	@ zero_extendqisi2
  49:Core/Src/lte.c ****     if(LTE_GPS_STEP_FINISH == LTE_GPS_Status)
 3176              		.loc 1 49 7 view .LVU919
 3177 000a 032B     		cmp	r3, #3
 3178 000c 02D0     		beq	.L214
  55:Core/Src/lte.c ****         LTE_GPS_Connect();
 3179              		.loc 1 55 9 is_stmt 1 view .LVU920
 3180 000e FFF7FEFF 		bl	LTE_GPS_Connect
 3181              	.LVL171:
 3182              	.L210:
  57:Core/Src/lte.c **** }
 3183              		.loc 1 57 1 is_stmt 0 view .LVU921
 3184 0012 08BD     		pop	{r3, pc}
 3185              	.L214:
  51:Core/Src/lte.c ****         LTE_Connect();
 3186              		.loc 1 51 9 is_stmt 1 view .LVU922
 3187 0014 FFF7FEFF 		bl	LTE_Connect
 3188              	.LVL172:
 3189 0018 FBE7     		b	.L210
 3190              	.L216:
 3191 001a 00BF     		.align	2
 3192              	.L215:
 3193 001c 00000000 		.word	.LANCHOR23
 3194              		.cfi_endproc
 3195              	.LFE134:
 3197              		.global	LTE_DOOR
 3198              		.global	LTE_GPS_LONG_D
 3199              		.global	LTE_GPS_LAT_D
 3200              		.global	LTE_GPS_LONG_I
 3201              		.global	LTE_GPS_LAT_I
 3202              		.global	LTE_CHAR_D
 3203              		.global	LTE_CHAR_I
 3204              		.global	LTE_DIST_D
 3205              		.global	LTE_DIST_I
 3206              		.global	LTE_HUMI_D
 3207              		.global	LTE_HUMI_I
 3208              		.global	LTE_TEMP_D
 3209              		.global	LTE_TEMP_I
 3210              		.global	LTE_ID
 3211              		.global	LTE_GPS_Status
 3212              		.global	LTE_Status
ARM GAS  C:\Users\jisu8\AppData\Local\Temp\cc49UglZ.s 			page 84


 3213              		.global	dummy_lte
 3214              		.global	LTE_Rx_Counter
 3215              		.global	LTE_GPS_Buffer
 3216              		.global	LTE_ASCII_Buffer
 3217              		.global	LTE_Rx_Buffer
 3218              		.section	.bss.LTE_ASCII_Buffer,"aw",%nobits
 3219              		.align	2
 3220              		.set	.LANCHOR10,. + 0
 3223              	LTE_ASCII_Buffer:
 3224 0000 00000000 		.space	512
 3224      00000000 
 3224      00000000 
 3224      00000000 
 3224      00000000 
 3225              		.section	.bss.LTE_CHAR_D,"aw",%nobits
 3226              		.align	1
 3227              		.set	.LANCHOR7,. + 0
 3230              	LTE_CHAR_D:
 3231 0000 0000     		.space	2
 3232              		.section	.bss.LTE_CHAR_I,"aw",%nobits
 3233              		.align	1
 3234              		.set	.LANCHOR6,. + 0
 3237              	LTE_CHAR_I:
 3238 0000 0000     		.space	2
 3239              		.section	.bss.LTE_DIST_D,"aw",%nobits
 3240              		.align	1
 3241              		.set	.LANCHOR15,. + 0
 3244              	LTE_DIST_D:
 3245 0000 0000     		.space	2
 3246              		.section	.bss.LTE_DIST_I,"aw",%nobits
 3247              		.align	1
 3248              		.set	.LANCHOR5,. + 0
 3251              	LTE_DIST_I:
 3252 0000 0000     		.space	2
 3253              		.section	.bss.LTE_DOOR,"aw",%nobits
 3254              		.set	.LANCHOR8,. + 0
 3257              	LTE_DOOR:
 3258 0000 00       		.space	1
 3259              		.section	.bss.LTE_GPS_Buffer,"aw",%nobits
 3260              		.align	2
 3261              		.set	.LANCHOR22,. + 0
 3264              	LTE_GPS_Buffer:
 3265 0000 00000000 		.space	100
 3265      00000000 
 3265      00000000 
 3265      00000000 
 3265      00000000 
 3266              		.section	.bss.LTE_GPS_LAT_D,"aw",%nobits
 3267              		.align	2
 3268              		.set	.LANCHOR13,. + 0
 3271              	LTE_GPS_LAT_D:
 3272 0000 00000000 		.space	4
 3273              		.section	.bss.LTE_GPS_LAT_I,"aw",%nobits
 3274              		.align	1
 3275              		.set	.LANCHOR14,. + 0
 3278              	LTE_GPS_LAT_I:
 3279 0000 0000     		.space	2
ARM GAS  C:\Users\jisu8\AppData\Local\Temp\cc49UglZ.s 			page 85


 3280              		.section	.bss.LTE_GPS_LONG_D,"aw",%nobits
 3281              		.align	2
 3282              		.set	.LANCHOR11,. + 0
 3285              	LTE_GPS_LONG_D:
 3286 0000 00000000 		.space	4
 3287              		.section	.bss.LTE_GPS_LONG_I,"aw",%nobits
 3288              		.align	1
 3289              		.set	.LANCHOR12,. + 0
 3292              	LTE_GPS_LONG_I:
 3293 0000 0000     		.space	2
 3294              		.section	.bss.LTE_GPS_Status,"aw",%nobits
 3295              		.set	.LANCHOR23,. + 0
 3298              	LTE_GPS_Status:
 3299 0000 00       		.space	1
 3300              		.section	.bss.LTE_HUMI_D,"aw",%nobits
 3301              		.align	1
 3302              		.set	.LANCHOR4,. + 0
 3305              	LTE_HUMI_D:
 3306 0000 0000     		.space	2
 3307              		.section	.bss.LTE_HUMI_I,"aw",%nobits
 3308              		.align	1
 3309              		.set	.LANCHOR3,. + 0
 3312              	LTE_HUMI_I:
 3313 0000 0000     		.space	2
 3314              		.section	.bss.LTE_Rx_Buffer,"aw",%nobits
 3315              		.align	2
 3316              		.set	.LANCHOR17,. + 0
 3319              	LTE_Rx_Buffer:
 3320 0000 00000000 		.space	1024
 3320      00000000 
 3320      00000000 
 3320      00000000 
 3320      00000000 
 3321              		.section	.bss.LTE_Rx_Counter,"aw",%nobits
 3322              		.align	1
 3323              		.set	.LANCHOR16,. + 0
 3326              	LTE_Rx_Counter:
 3327 0000 0000     		.space	2
 3328              		.section	.bss.LTE_Status,"aw",%nobits
 3329              		.set	.LANCHOR19,. + 0
 3332              	LTE_Status:
 3333 0000 00       		.space	1
 3334              		.section	.bss.LTE_TEMP_D,"aw",%nobits
 3335              		.align	1
 3336              		.set	.LANCHOR2,. + 0
 3339              	LTE_TEMP_D:
 3340 0000 0000     		.space	2
 3341              		.section	.bss.LTE_TEMP_I,"aw",%nobits
 3342              		.align	1
 3343              		.set	.LANCHOR1,. + 0
 3346              	LTE_TEMP_I:
 3347 0000 0000     		.space	2
 3348              		.section	.bss.dummy_lte,"aw",%nobits
 3349              		.set	.LANCHOR26,. + 0
 3352              	dummy_lte:
 3353 0000 00       		.space	1
 3354              		.section	.bss.fail_counter.3,"aw",%nobits
ARM GAS  C:\Users\jisu8\AppData\Local\Temp\cc49UglZ.s 			page 86


 3355              		.set	.LANCHOR18,. + 0
 3358              	fail_counter.3:
 3359 0000 00       		.space	1
 3360              		.section	.bss.stDelay.0,"aw",%nobits
 3361              		.set	.LANCHOR25,. + 0
 3364              	stDelay.0:
 3365 0000 00       		.space	1
 3366              		.section	.bss.stDelay.4,"aw",%nobits
 3367              		.set	.LANCHOR21,. + 0
 3370              	stDelay.4:
 3371 0000 00       		.space	1
 3372              		.section	.bss.timer.2,"aw",%nobits
 3373              		.align	1
 3374              		.set	.LANCHOR0,. + 0
 3377              	timer.2:
 3378 0000 0000     		.space	2
 3379              		.section	.bss.uart_status.1,"aw",%nobits
 3380              		.set	.LANCHOR24,. + 0
 3383              	uart_status.1:
 3384 0000 00       		.space	1
 3385              		.section	.bss.uart_status.5,"aw",%nobits
 3386              		.set	.LANCHOR20,. + 0
 3389              	uart_status.5:
 3390 0000 00       		.space	1
 3391              		.section	.data.LTE_ID,"aw"
 3392              		.align	2
 3393              		.set	.LANCHOR9,. + 0
 3396              	LTE_ID:
 3397 0000 534E5F46 		.ascii	"SN_FM4_TEST_002\000"
 3397      4D345F54 
 3397      4553545F 
 3397      30303200 
 3398              		.text
 3399              	.Letext0:
 3400              		.file 2 "d:\\3.tools\\arm_gcc_toolchain\\arm-none-eabi\\include\\machine\\_default_types.h"
 3401              		.file 3 "d:\\3.tools\\arm_gcc_toolchain\\arm-none-eabi\\include\\sys\\_stdint.h"
 3402              		.file 4 "Drivers/CMSIS/Device/ST/STM32F3xx/Include/stm32f303xc.h"
 3403              		.file 5 "Drivers/STM32F3xx_HAL_Driver/Inc/stm32f3xx_hal_def.h"
 3404              		.file 6 "Drivers/STM32F3xx_HAL_Driver/Inc/stm32f3xx_hal_gpio.h"
 3405              		.file 7 "Drivers/STM32F3xx_HAL_Driver/Inc/stm32f3xx_hal_dma.h"
 3406              		.file 8 "Drivers/STM32F3xx_HAL_Driver/Inc/stm32f3xx_hal_rtc.h"
 3407              		.file 9 "Drivers/STM32F3xx_HAL_Driver/Inc/stm32f3xx_hal_uart.h"
 3408              		.file 10 "Core/Inc/main.h"
 3409              		.file 11 "Core/Inc/lte.h"
 3410              		.file 12 "Core/Inc/dht11.h"
 3411              		.file 13 "Core/Inc/lidar.h"
 3412              		.file 14 "Core/Inc/device.h"
 3413              		.file 15 "d:\\3.tools\\arm_gcc_toolchain\\arm-none-eabi\\include\\string.h"
 3414              		.file 16 "<built-in>"
 3415              		.file 17 "d:\\3.tools\\arm_gcc_toolchain\\arm-none-eabi\\include\\stdio.h"
 3416              		.file 18 "Drivers/STM32F3xx_HAL_Driver/Inc/stm32f3xx_hal_cortex.h"
 3417              		.file 19 "Drivers/STM32F3xx_HAL_Driver/Inc/stm32f3xx_hal.h"
ARM GAS  C:\Users\jisu8\AppData\Local\Temp\cc49UglZ.s 			page 87

