ARM GAS  C:\Users\jisu8\AppData\Local\Temp\ccJqhSXE.s 			page 1


   1              		.cpu cortex-m4
   2              		.arch armv7e-m
   3              		.fpu fpv4-sp-d16
   4              		.eabi_attribute 27, 1
   5              		.eabi_attribute 28, 1
   6              		.eabi_attribute 20, 1
   7              		.eabi_attribute 21, 1
   8              		.eabi_attribute 23, 3
   9              		.eabi_attribute 24, 1
  10              		.eabi_attribute 25, 1
  11              		.eabi_attribute 26, 1
  12              		.eabi_attribute 30, 1
  13              		.eabi_attribute 34, 1
  14              		.eabi_attribute 18, 4
  15              		.file	"lte.c"
  16              		.text
  17              	.Ltext0:
  18              		.cfi_sections	.debug_frame
  19              		.section	.text.LTE_Delay,"ax",%progbits
  20              		.align	1
  21              		.syntax unified
  22              		.thumb
  23              		.thumb_func
  25              	LTE_Delay:
  26              	.LVL0:
  27              	.LFB140:
  28              		.file 1 "Core/Src/lte.c"
   1:Core/Src/lte.c **** #include "lte.h"
   2:Core/Src/lte.c **** #include "dht11.h"
   3:Core/Src/lte.c **** #include "lidar.h"
   4:Core/Src/lte.c **** #include "device.h"
   5:Core/Src/lte.c **** 
   6:Core/Src/lte.c **** uint8_t LTE_Rx_Buffer[LTE_RX_BUFFER_SIZE];
   7:Core/Src/lte.c **** uint8_t LTE_ASCII_Buffer[LTE_RX_BUFFER_SIZE/2];
   8:Core/Src/lte.c **** uint8_t LTE_GPS_Buffer[100];
   9:Core/Src/lte.c **** uint16_t LTE_Rx_Counter;
  10:Core/Src/lte.c **** uint8_t dummy_lte;
  11:Core/Src/lte.c **** 
  12:Core/Src/lte.c **** uint8_t LTE_Status;
  13:Core/Src/lte.c **** uint8_t LTE_GPS_Status;// = LTE_GPS_STEP_FINISH;
  14:Core/Src/lte.c **** uint8_t LTE_ID[] = "SN_FM4_TEST_002";
  15:Core/Src/lte.c **** uint16_t LTE_TEMP_I,LTE_TEMP_D,LTE_HUMI_I,LTE_HUMI_D,LTE_DIST_I,LTE_DIST_D;
  16:Core/Src/lte.c **** uint16_t LTE_CHAR_I,LTE_CHAR_D;
  17:Core/Src/lte.c **** uint16_t LTE_GPS_LAT_I,LTE_GPS_LONG_I;
  18:Core/Src/lte.c **** uint32_t LTE_GPS_LAT_D,LTE_GPS_LONG_D;
  19:Core/Src/lte.c **** uint8_t LTE_DOOR;
  20:Core/Src/lte.c **** 
  21:Core/Src/lte.c **** 
  22:Core/Src/lte.c **** static void LTE_Transmit(uint8_t * buf);
  23:Core/Src/lte.c **** static uint8_t LTE_OK_Check(void);
  24:Core/Src/lte.c **** static uint8_t LTE_Delay(uint16_t time);
  25:Core/Src/lte.c **** static uint8_t LTE_Receive_Check(uint8_t status);
  26:Core/Src/lte.c **** static void LTE_MQTT_Convert_Buffer(uint8_t *buf);
  27:Core/Src/lte.c **** static uint8_t LTE_GPS_Receive_Data(uint8_t status);
  28:Core/Src/lte.c **** static void LTE_Update_Data(void);
  29:Core/Src/lte.c **** static void LTE_Connect(void);
  30:Core/Src/lte.c **** static void LTE_GPS_Connect(void);
ARM GAS  C:\Users\jisu8\AppData\Local\Temp\ccJqhSXE.s 			page 2


  31:Core/Src/lte.c **** static uint8_t LTE_GPS_Update_Data(uint8_t status);
  32:Core/Src/lte.c **** 
  33:Core/Src/lte.c **** void LTE_Init(void)
  34:Core/Src/lte.c **** {
  35:Core/Src/lte.c ****     if ( HAL_UART_Receive_IT(&huart1, &dummy_lte, 1) != HAL_OK)
  36:Core/Src/lte.c ****     {
  37:Core/Src/lte.c ****         Error_Handler();
  38:Core/Src/lte.c ****     }
  39:Core/Src/lte.c ****     
  40:Core/Src/lte.c **** 	//SARA Power On
  41:Core/Src/lte.c **** 	HAL_GPIO_WritePin(POWER_KEY_GPIO_Port, POWER_KEY_Pin, GPIO_PIN_RESET);
  42:Core/Src/lte.c ****     HAL_Delay(1500);
  43:Core/Src/lte.c **** 	//SARA Reset Off
  44:Core/Src/lte.c **** 	HAL_GPIO_WritePin(RESET_ONOFF_GPIO_Port, RESET_ONOFF_Pin, GPIO_PIN_RESET);
  45:Core/Src/lte.c **** }
  46:Core/Src/lte.c **** 
  47:Core/Src/lte.c **** void LTE_Control(void)
  48:Core/Src/lte.c **** {
  49:Core/Src/lte.c ****     LTE_Update_Data();
  50:Core/Src/lte.c ****     if(LTE_GPS_STEP_FINISH == LTE_GPS_Status)
  51:Core/Src/lte.c ****     {
  52:Core/Src/lte.c ****         //LTE_Connect();
  53:Core/Src/lte.c ****     }
  54:Core/Src/lte.c ****     else
  55:Core/Src/lte.c ****     {
  56:Core/Src/lte.c ****         LTE_GPS_Connect();
  57:Core/Src/lte.c ****     }
  58:Core/Src/lte.c **** }
  59:Core/Src/lte.c **** 
  60:Core/Src/lte.c **** static void LTE_Update_Data(void)
  61:Core/Src/lte.c **** {
  62:Core/Src/lte.c ****     DHT_Data_t data;
  63:Core/Src/lte.c ****     data = DHT_getData(DHT22);
  64:Core/Src/lte.c ****     if(data.Temperature<0)
  65:Core/Src/lte.c ****     {
  66:Core/Src/lte.c ****         LTE_TEMP_I = (uint16_t)(data.Temperature * -1);
  67:Core/Src/lte.c ****         LTE_TEMP_D = ((uint16_t)((data.Temperature * -1) * 100))%100;        
  68:Core/Src/lte.c ****     }
  69:Core/Src/lte.c ****     else
  70:Core/Src/lte.c ****     {
  71:Core/Src/lte.c ****         LTE_TEMP_I = (uint16_t)data.Temperature;
  72:Core/Src/lte.c ****         LTE_TEMP_D = ((uint16_t)(data.Temperature * 100))%100;
  73:Core/Src/lte.c ****     }
  74:Core/Src/lte.c **** 
  75:Core/Src/lte.c ****     LTE_HUMI_I = (uint16_t)data.Humidity;
  76:Core/Src/lte.c ****     LTE_HUMI_D = ((uint16_t)(data.Humidity * 100))%100;
  77:Core/Src/lte.c ****     LTE_DIST_I = Lidar_Distance;
  78:Core/Src/lte.c ****     LTE_CHAR_I = (Device_Batt_Voltage)/1000;
  79:Core/Src/lte.c ****     LTE_CHAR_D = (Device_Batt_Voltage/10)%100;
  80:Core/Src/lte.c ****     LTE_DOOR = Device_Sensor_Signal;
  81:Core/Src/lte.c ****     
  82:Core/Src/lte.c ****     if(data.Temperature<0)
  83:Core/Src/lte.c ****     {
  84:Core/Src/lte.c ****         sprintf(LTE_ASCII_Buffer,"{\"_ID\":\"%s\",\"_TEMP\":\"-%d.%02d\",\"_HUMI\":\"%d.%02d\",\"_D
  85:Core/Src/lte.c ****             LTE_ID,LTE_TEMP_I,LTE_TEMP_D,LTE_HUMI_I,LTE_HUMI_D,LTE_DIST_I,LTE_DIST_D,LTE_CHAR_I,LTE
  86:Core/Src/lte.c ****     }
  87:Core/Src/lte.c ****     else
ARM GAS  C:\Users\jisu8\AppData\Local\Temp\ccJqhSXE.s 			page 3


  88:Core/Src/lte.c ****     {
  89:Core/Src/lte.c ****         sprintf(LTE_ASCII_Buffer,"{\"_ID\":\"%s\",\"_TEMP\":\"%d.%02d\",\"_HUMI\":\"%d.%02d\",\"_DI
  90:Core/Src/lte.c ****             LTE_ID,LTE_TEMP_I,LTE_TEMP_D,LTE_HUMI_I,LTE_HUMI_D,LTE_DIST_I,LTE_DIST_D,LTE_CHAR_I,LTE
  91:Core/Src/lte.c ****     }
  92:Core/Src/lte.c ****     
  93:Core/Src/lte.c **** }
  94:Core/Src/lte.c **** 
  95:Core/Src/lte.c **** static void LTE_Connect(void)
  96:Core/Src/lte.c **** {
  97:Core/Src/lte.c ****     char Tx_Buf[1024] = {0,};
  98:Core/Src/lte.c ****     static LTE_Status_t stDelay;
  99:Core/Src/lte.c ****     static uint8_t uart_status;
 100:Core/Src/lte.c **** 
 101:Core/Src/lte.c ****     switch(LTE_Status)
 102:Core/Src/lte.c ****     {
 103:Core/Src/lte.c ****         case LTE_STEP_ATE0 :
 104:Core/Src/lte.c ****             if(LTE_UART_STATUS_TRANSMIT == uart_status)
 105:Core/Src/lte.c ****             {
 106:Core/Src/lte.c ****                 sprintf(Tx_Buf,"ATE0\r\n");
 107:Core/Src/lte.c ****                 LTE_Transmit(Tx_Buf);
 108:Core/Src/lte.c ****                 uart_status = LTE_UART_STATUS_RECEIVE;
 109:Core/Src/lte.c ****             }
 110:Core/Src/lte.c ****             if(LTE_UART_STATUS_RECEIVE == uart_status)
 111:Core/Src/lte.c ****             {
 112:Core/Src/lte.c ****                 if(OK == stDelay)
 113:Core/Src/lte.c ****                 {
 114:Core/Src/lte.c ****                     LTE_Status = LTE_Receive_Check(LTE_STEP_ATE0);
 115:Core/Src/lte.c ****                     stDelay = FAIL;
 116:Core/Src/lte.c ****                     uart_status = LTE_UART_STATUS_TRANSMIT;
 117:Core/Src/lte.c ****                 }
 118:Core/Src/lte.c ****                 else
 119:Core/Src/lte.c ****                 {
 120:Core/Src/lte.c ****                     stDelay = LTE_Delay(100);
 121:Core/Src/lte.c ****                 }
 122:Core/Src/lte.c ****             }
 123:Core/Src/lte.c ****         break;
 124:Core/Src/lte.c ****         case LTE_STEP_CMEE : 
 125:Core/Src/lte.c ****             if(LTE_UART_STATUS_TRANSMIT == uart_status)
 126:Core/Src/lte.c ****             {
 127:Core/Src/lte.c ****                 sprintf(Tx_Buf,"AT+CMEE=2\r\n");
 128:Core/Src/lte.c ****                 LTE_Transmit(Tx_Buf);
 129:Core/Src/lte.c ****                 uart_status = LTE_UART_STATUS_RECEIVE;
 130:Core/Src/lte.c ****             }
 131:Core/Src/lte.c ****             if(LTE_UART_STATUS_RECEIVE == uart_status)
 132:Core/Src/lte.c ****             {
 133:Core/Src/lte.c ****                 if(OK == stDelay)
 134:Core/Src/lte.c ****                 {
 135:Core/Src/lte.c ****                     LTE_Status = LTE_Receive_Check(LTE_STEP_CMEE);
 136:Core/Src/lte.c ****                     stDelay = FAIL;
 137:Core/Src/lte.c ****                     uart_status = LTE_UART_STATUS_TRANSMIT;
 138:Core/Src/lte.c ****                 }
 139:Core/Src/lte.c ****                 else
 140:Core/Src/lte.c ****                 {
 141:Core/Src/lte.c ****                     stDelay = LTE_Delay(100);
 142:Core/Src/lte.c ****                 }
 143:Core/Src/lte.c ****             }
 144:Core/Src/lte.c ****         break;
ARM GAS  C:\Users\jisu8\AppData\Local\Temp\ccJqhSXE.s 			page 4


 145:Core/Src/lte.c ****         case LTE_STEP_CFUN_DISABLE :
 146:Core/Src/lte.c ****             if(LTE_UART_STATUS_TRANSMIT == uart_status)
 147:Core/Src/lte.c ****             {
 148:Core/Src/lte.c ****                 sprintf(Tx_Buf,"AT+CFUN=0\r\n");
 149:Core/Src/lte.c ****                 LTE_Transmit(Tx_Buf);
 150:Core/Src/lte.c ****                 uart_status = LTE_UART_STATUS_RECEIVE;
 151:Core/Src/lte.c ****             }
 152:Core/Src/lte.c ****             if(LTE_UART_STATUS_RECEIVE == uart_status)
 153:Core/Src/lte.c ****             {
 154:Core/Src/lte.c ****                 if(OK == stDelay)
 155:Core/Src/lte.c ****                 {
 156:Core/Src/lte.c ****                     LTE_Status = LTE_Receive_Check(LTE_STEP_CFUN_DISABLE);
 157:Core/Src/lte.c ****                     stDelay = FAIL;
 158:Core/Src/lte.c ****                     uart_status = LTE_UART_STATUS_TRANSMIT;
 159:Core/Src/lte.c ****                 }
 160:Core/Src/lte.c ****                 else
 161:Core/Src/lte.c ****                 {
 162:Core/Src/lte.c ****                     stDelay = LTE_Delay(3000);
 163:Core/Src/lte.c ****                 }
 164:Core/Src/lte.c ****             }        
 165:Core/Src/lte.c ****         break;
 166:Core/Src/lte.c ****         case LTE_STEP_APN :
 167:Core/Src/lte.c ****             if(LTE_UART_STATUS_TRANSMIT == uart_status)
 168:Core/Src/lte.c ****             {
 169:Core/Src/lte.c ****                 sprintf(Tx_Buf,"AT+CGDCONT=1,\"IP\",\"tsudp\"\r\n");
 170:Core/Src/lte.c ****                 LTE_Transmit(Tx_Buf);
 171:Core/Src/lte.c ****                 uart_status = LTE_UART_STATUS_RECEIVE;
 172:Core/Src/lte.c ****             }
 173:Core/Src/lte.c ****             if(LTE_UART_STATUS_RECEIVE == uart_status)
 174:Core/Src/lte.c ****             {
 175:Core/Src/lte.c ****                 if(OK == stDelay)
 176:Core/Src/lte.c ****                 {
 177:Core/Src/lte.c ****                     LTE_Status = LTE_Receive_Check(LTE_STEP_APN);
 178:Core/Src/lte.c ****                     stDelay = FAIL;
 179:Core/Src/lte.c ****                     uart_status = LTE_UART_STATUS_TRANSMIT;
 180:Core/Src/lte.c ****                 }
 181:Core/Src/lte.c ****                 else
 182:Core/Src/lte.c ****                 {
 183:Core/Src/lte.c ****                     stDelay = LTE_Delay(500);
 184:Core/Src/lte.c ****                 }
 185:Core/Src/lte.c ****             }
 186:Core/Src/lte.c ****         break;   
 187:Core/Src/lte.c ****         case LTE_STEP_CFUN_ENABLE :
 188:Core/Src/lte.c ****             if(LTE_UART_STATUS_TRANSMIT == uart_status)
 189:Core/Src/lte.c ****             {
 190:Core/Src/lte.c ****                 sprintf(Tx_Buf,"AT+CFUN=1\r\n");
 191:Core/Src/lte.c ****                 LTE_Transmit(Tx_Buf);
 192:Core/Src/lte.c ****                 uart_status = LTE_UART_STATUS_RECEIVE;
 193:Core/Src/lte.c ****             }
 194:Core/Src/lte.c ****             if(LTE_UART_STATUS_RECEIVE == uart_status)
 195:Core/Src/lte.c ****             {   
 196:Core/Src/lte.c ****                 if(OK == stDelay)
 197:Core/Src/lte.c ****                 {
 198:Core/Src/lte.c ****                     LTE_Status = LTE_Receive_Check(LTE_STEP_CFUN_ENABLE);
 199:Core/Src/lte.c ****                     stDelay = FAIL;
 200:Core/Src/lte.c ****                     uart_status = LTE_UART_STATUS_TRANSMIT;
 201:Core/Src/lte.c ****                 }
ARM GAS  C:\Users\jisu8\AppData\Local\Temp\ccJqhSXE.s 			page 5


 202:Core/Src/lte.c ****                 else
 203:Core/Src/lte.c ****                 {
 204:Core/Src/lte.c ****                     stDelay = LTE_Delay(3000);
 205:Core/Src/lte.c ****                 }
 206:Core/Src/lte.c ****             }
 207:Core/Src/lte.c ****         break;
 208:Core/Src/lte.c ****         case LTE_STEP_CESQ :
 209:Core/Src/lte.c ****             if(LTE_UART_STATUS_TRANSMIT == uart_status)
 210:Core/Src/lte.c ****             {
 211:Core/Src/lte.c ****                 sprintf(Tx_Buf,"AT+CESQ\r\n");
 212:Core/Src/lte.c ****                 LTE_Transmit(Tx_Buf);
 213:Core/Src/lte.c ****                 uart_status = LTE_UART_STATUS_RECEIVE;
 214:Core/Src/lte.c ****             }
 215:Core/Src/lte.c ****             if(LTE_UART_STATUS_RECEIVE == uart_status)
 216:Core/Src/lte.c ****             {                
 217:Core/Src/lte.c ****                 if(OK == stDelay)
 218:Core/Src/lte.c ****                 {
 219:Core/Src/lte.c ****                     LTE_Status = LTE_Receive_Check(LTE_STEP_CESQ);
 220:Core/Src/lte.c ****                     stDelay = FAIL;
 221:Core/Src/lte.c ****                     uart_status = LTE_UART_STATUS_TRANSMIT;
 222:Core/Src/lte.c ****                 }
 223:Core/Src/lte.c ****                 else
 224:Core/Src/lte.c ****                 {
 225:Core/Src/lte.c ****                     stDelay = LTE_Delay(100);
 226:Core/Src/lte.c ****                 }
 227:Core/Src/lte.c ****             }
 228:Core/Src/lte.c ****         break;
 229:Core/Src/lte.c ****         case LTE_STEP_CEREG :
 230:Core/Src/lte.c ****             if(LTE_UART_STATUS_TRANSMIT == uart_status)
 231:Core/Src/lte.c ****             {
 232:Core/Src/lte.c ****                 sprintf(Tx_Buf,"AT+CEREG=2\r\n");
 233:Core/Src/lte.c ****                 LTE_Transmit(Tx_Buf);
 234:Core/Src/lte.c ****                 uart_status = LTE_UART_STATUS_RECEIVE;
 235:Core/Src/lte.c ****             }
 236:Core/Src/lte.c ****             if(LTE_UART_STATUS_RECEIVE == uart_status)
 237:Core/Src/lte.c ****             {
 238:Core/Src/lte.c ****                 if(OK == stDelay)
 239:Core/Src/lte.c ****                 {
 240:Core/Src/lte.c ****                     LTE_Status = LTE_Receive_Check(LTE_STEP_CEREG);
 241:Core/Src/lte.c ****                     stDelay = FAIL;
 242:Core/Src/lte.c ****                     uart_status = LTE_UART_STATUS_TRANSMIT;
 243:Core/Src/lte.c ****                 }
 244:Core/Src/lte.c ****                 else
 245:Core/Src/lte.c ****                 {
 246:Core/Src/lte.c ****                     stDelay = LTE_Delay(100);
 247:Core/Src/lte.c ****                 }
 248:Core/Src/lte.c ****             }
 249:Core/Src/lte.c ****         break;
 250:Core/Src/lte.c ****         case LTE_STEP_UPSD_MAP :
 251:Core/Src/lte.c ****             if(LTE_UART_STATUS_TRANSMIT == uart_status)
 252:Core/Src/lte.c ****             {
 253:Core/Src/lte.c ****                 sprintf(Tx_Buf,"AT+UPSD=0,100,1\r\n");
 254:Core/Src/lte.c ****                 LTE_Transmit(Tx_Buf);
 255:Core/Src/lte.c ****                 uart_status = LTE_UART_STATUS_RECEIVE;
 256:Core/Src/lte.c ****             }
 257:Core/Src/lte.c ****             if(LTE_UART_STATUS_RECEIVE == uart_status)
 258:Core/Src/lte.c ****             {                
ARM GAS  C:\Users\jisu8\AppData\Local\Temp\ccJqhSXE.s 			page 6


 259:Core/Src/lte.c ****                 if(OK == stDelay)
 260:Core/Src/lte.c ****                 {
 261:Core/Src/lte.c ****                     LTE_Status = LTE_Receive_Check(LTE_STEP_UPSD_MAP);
 262:Core/Src/lte.c ****                     stDelay = FAIL;
 263:Core/Src/lte.c ****                     uart_status = LTE_UART_STATUS_TRANSMIT;
 264:Core/Src/lte.c ****                 }
 265:Core/Src/lte.c ****                 else
 266:Core/Src/lte.c ****                 {
 267:Core/Src/lte.c ****                     stDelay = LTE_Delay(1000);
 268:Core/Src/lte.c ****                 }
 269:Core/Src/lte.c ****             }
 270:Core/Src/lte.c ****         break;
 271:Core/Src/lte.c ****         case LTE_STEP_UPSD_IPV4 :
 272:Core/Src/lte.c ****             if(LTE_UART_STATUS_TRANSMIT == uart_status)
 273:Core/Src/lte.c ****             {
 274:Core/Src/lte.c ****                 sprintf(Tx_Buf,"AT+UPSD=0,0,0\r\n");
 275:Core/Src/lte.c ****                 LTE_Transmit(Tx_Buf);
 276:Core/Src/lte.c ****                 uart_status = LTE_UART_STATUS_RECEIVE;
 277:Core/Src/lte.c ****             }
 278:Core/Src/lte.c ****             if(LTE_UART_STATUS_RECEIVE == uart_status)
 279:Core/Src/lte.c ****             {                
 280:Core/Src/lte.c ****                 if(OK == stDelay)
 281:Core/Src/lte.c ****                 {
 282:Core/Src/lte.c ****                     LTE_Status = LTE_Receive_Check(LTE_STEP_UPSD_IPV4);
 283:Core/Src/lte.c ****                     stDelay = FAIL;
 284:Core/Src/lte.c ****                     uart_status = LTE_UART_STATUS_TRANSMIT;
 285:Core/Src/lte.c ****                 }
 286:Core/Src/lte.c ****                 else
 287:Core/Src/lte.c ****                 {
 288:Core/Src/lte.c ****                     stDelay = LTE_Delay(1000);
 289:Core/Src/lte.c ****                 }
 290:Core/Src/lte.c ****             }
 291:Core/Src/lte.c ****         break;
 292:Core/Src/lte.c ****         case LTE_STEP_UPSDA :           
 293:Core/Src/lte.c ****             if(LTE_UART_STATUS_TRANSMIT == uart_status)
 294:Core/Src/lte.c ****             {
 295:Core/Src/lte.c ****                 sprintf(Tx_Buf,"AT+UPSDA=0,3\r\n");
 296:Core/Src/lte.c ****                 LTE_Transmit(Tx_Buf);
 297:Core/Src/lte.c ****                 uart_status = LTE_UART_STATUS_RECEIVE;
 298:Core/Src/lte.c ****             }
 299:Core/Src/lte.c ****             if(LTE_UART_STATUS_RECEIVE == uart_status)
 300:Core/Src/lte.c ****             {                
 301:Core/Src/lte.c ****                 if(OK == stDelay)
 302:Core/Src/lte.c ****                 {
 303:Core/Src/lte.c ****                     LTE_Status = LTE_Receive_Check(LTE_STEP_UPSDA);
 304:Core/Src/lte.c ****                     stDelay = FAIL;
 305:Core/Src/lte.c ****                     uart_status = LTE_UART_STATUS_TRANSMIT;
 306:Core/Src/lte.c ****                 }
 307:Core/Src/lte.c ****                 else
 308:Core/Src/lte.c ****                 {
 309:Core/Src/lte.c ****                     stDelay = LTE_Delay(8000);
 310:Core/Src/lte.c ****                 }
 311:Core/Src/lte.c ****             }
 312:Core/Src/lte.c ****         break;
 313:Core/Src/lte.c ****         case LTE_STEP_UPSND :           
 314:Core/Src/lte.c ****             if(LTE_UART_STATUS_TRANSMIT == uart_status)
 315:Core/Src/lte.c ****             {
ARM GAS  C:\Users\jisu8\AppData\Local\Temp\ccJqhSXE.s 			page 7


 316:Core/Src/lte.c ****                 sprintf(Tx_Buf,"AT+UPSND=0,0\r\n");
 317:Core/Src/lte.c ****                 LTE_Transmit(Tx_Buf);
 318:Core/Src/lte.c ****                 uart_status = LTE_UART_STATUS_RECEIVE;
 319:Core/Src/lte.c ****             }
 320:Core/Src/lte.c ****             if(LTE_UART_STATUS_RECEIVE == uart_status)
 321:Core/Src/lte.c ****             {                
 322:Core/Src/lte.c ****                 if(OK == stDelay)
 323:Core/Src/lte.c ****                 {
 324:Core/Src/lte.c ****                     LTE_Status = LTE_Receive_Check(LTE_STEP_UPSND);
 325:Core/Src/lte.c ****                     stDelay = FAIL;
 326:Core/Src/lte.c ****                     uart_status = LTE_UART_STATUS_TRANSMIT;
 327:Core/Src/lte.c ****                 }
 328:Core/Src/lte.c ****                 else
 329:Core/Src/lte.c ****                 {
 330:Core/Src/lte.c ****                     stDelay = LTE_Delay(1000);
 331:Core/Src/lte.c ****                 }
 332:Core/Src/lte.c ****             }
 333:Core/Src/lte.c ****         break;
 334:Core/Src/lte.c ****         case LTE_STEP_MQTT_IP_SET :           
 335:Core/Src/lte.c ****             if(LTE_UART_STATUS_TRANSMIT == uart_status)
 336:Core/Src/lte.c ****             {
 337:Core/Src/lte.c ****                 sprintf(Tx_Buf,"AT+UMQTTSN=2,\"10.7.0.55\",2442\r\n");
 338:Core/Src/lte.c ****                 LTE_Transmit(Tx_Buf);
 339:Core/Src/lte.c ****                 uart_status = LTE_UART_STATUS_RECEIVE;
 340:Core/Src/lte.c ****             }
 341:Core/Src/lte.c ****             if(LTE_UART_STATUS_RECEIVE == uart_status)
 342:Core/Src/lte.c ****             {                
 343:Core/Src/lte.c ****                 if(OK == stDelay)
 344:Core/Src/lte.c ****                 {
 345:Core/Src/lte.c ****                     LTE_Status = LTE_Receive_Check(LTE_STEP_MQTT_IP_SET);
 346:Core/Src/lte.c ****                     stDelay = FAIL;
 347:Core/Src/lte.c ****                     uart_status = LTE_UART_STATUS_TRANSMIT;
 348:Core/Src/lte.c ****                 }
 349:Core/Src/lte.c ****                 else
 350:Core/Src/lte.c ****                 {
 351:Core/Src/lte.c ****                     stDelay = LTE_Delay(50);
 352:Core/Src/lte.c ****                 }
 353:Core/Src/lte.c ****             }
 354:Core/Src/lte.c ****         break;
 355:Core/Src/lte.c ****         case LTE_STEP_MQTT_DURATION :           
 356:Core/Src/lte.c ****             if(LTE_UART_STATUS_TRANSMIT == uart_status)
 357:Core/Src/lte.c ****             {
 358:Core/Src/lte.c ****                 sprintf(Tx_Buf,"AT+UMQTTSN=8,600\r\n");
 359:Core/Src/lte.c ****                 LTE_Transmit(Tx_Buf);
 360:Core/Src/lte.c ****                 uart_status = LTE_UART_STATUS_RECEIVE;
 361:Core/Src/lte.c ****             }
 362:Core/Src/lte.c ****             if(LTE_UART_STATUS_RECEIVE == uart_status)
 363:Core/Src/lte.c ****             {                
 364:Core/Src/lte.c ****                 if(OK == stDelay)
 365:Core/Src/lte.c ****                 {
 366:Core/Src/lte.c ****                     LTE_Status = LTE_Receive_Check(LTE_STEP_MQTT_DURATION);
 367:Core/Src/lte.c ****                     stDelay = FAIL;
 368:Core/Src/lte.c ****                     uart_status = LTE_UART_STATUS_TRANSMIT;
 369:Core/Src/lte.c ****                 }
 370:Core/Src/lte.c ****                 else
 371:Core/Src/lte.c ****                 {
 372:Core/Src/lte.c ****                     stDelay = LTE_Delay(50);
ARM GAS  C:\Users\jisu8\AppData\Local\Temp\ccJqhSXE.s 			page 8


 373:Core/Src/lte.c ****                 }
 374:Core/Src/lte.c ****             }
 375:Core/Src/lte.c ****         break;
 376:Core/Src/lte.c ****         case LTE_STEP_MQTT_SNNV :           
 377:Core/Src/lte.c ****             if(LTE_UART_STATUS_TRANSMIT == uart_status)
 378:Core/Src/lte.c ****             {
 379:Core/Src/lte.c ****                 sprintf(Tx_Buf,"AT+UMQTTSNNV=2\r\n");
 380:Core/Src/lte.c ****                 LTE_Transmit(Tx_Buf);
 381:Core/Src/lte.c ****                 uart_status = LTE_UART_STATUS_RECEIVE;
 382:Core/Src/lte.c ****             }
 383:Core/Src/lte.c ****             if(LTE_UART_STATUS_RECEIVE == uart_status)
 384:Core/Src/lte.c ****             {                
 385:Core/Src/lte.c ****                 if(OK == stDelay)
 386:Core/Src/lte.c ****                 {
 387:Core/Src/lte.c ****                     LTE_Status = LTE_Receive_Check(LTE_STEP_MQTT_SNNV);
 388:Core/Src/lte.c ****                     stDelay = FAIL;
 389:Core/Src/lte.c ****                     uart_status = LTE_UART_STATUS_TRANSMIT;
 390:Core/Src/lte.c ****                 }
 391:Core/Src/lte.c ****                 else
 392:Core/Src/lte.c ****                 {
 393:Core/Src/lte.c ****                     stDelay = LTE_Delay(2000);
 394:Core/Src/lte.c ****                 }
 395:Core/Src/lte.c ****             }
 396:Core/Src/lte.c ****         break;
 397:Core/Src/lte.c ****         case LTE_STEP_MQTT_CONNECT :           
 398:Core/Src/lte.c ****             if(LTE_UART_STATUS_TRANSMIT == uart_status)
 399:Core/Src/lte.c ****             {
 400:Core/Src/lte.c ****                 sprintf(Tx_Buf,"AT+UMQTTSNC=1\r\n");
 401:Core/Src/lte.c ****                 LTE_Transmit(Tx_Buf);
 402:Core/Src/lte.c ****                 uart_status = LTE_UART_STATUS_RECEIVE;
 403:Core/Src/lte.c ****             }
 404:Core/Src/lte.c ****             if(LTE_UART_STATUS_RECEIVE == uart_status)
 405:Core/Src/lte.c ****             {               
 406:Core/Src/lte.c ****                 if(OK == stDelay)
 407:Core/Src/lte.c ****                 {
 408:Core/Src/lte.c ****                     LTE_Status = LTE_Receive_Check(LTE_STEP_MQTT_CONNECT);
 409:Core/Src/lte.c ****                     stDelay = FAIL;
 410:Core/Src/lte.c ****                     uart_status = LTE_UART_STATUS_TRANSMIT;
 411:Core/Src/lte.c ****                 }
 412:Core/Src/lte.c ****                 else
 413:Core/Src/lte.c ****                 {
 414:Core/Src/lte.c ****                     stDelay = LTE_Delay(2000);
 415:Core/Src/lte.c ****                 }
 416:Core/Src/lte.c ****             }
 417:Core/Src/lte.c ****         break;
 418:Core/Src/lte.c ****         case LTE_STEP_MQTT_REGISTER :           
 419:Core/Src/lte.c ****             if(LTE_UART_STATUS_TRANSMIT == uart_status)
 420:Core/Src/lte.c ****             {
 421:Core/Src/lte.c ****                 sprintf(Tx_Buf,"AT+UMQTTSNC=2,\"mqtt_test\"\r\n");
 422:Core/Src/lte.c ****                 LTE_Transmit(Tx_Buf);
 423:Core/Src/lte.c ****                 uart_status = LTE_UART_STATUS_RECEIVE;
 424:Core/Src/lte.c ****             }
 425:Core/Src/lte.c ****             if(LTE_UART_STATUS_RECEIVE == uart_status)
 426:Core/Src/lte.c ****             {                
 427:Core/Src/lte.c ****                 if(OK == stDelay)
 428:Core/Src/lte.c ****                 {
 429:Core/Src/lte.c ****                     LTE_Status = LTE_Receive_Check(LTE_STEP_MQTT_REGISTER);
ARM GAS  C:\Users\jisu8\AppData\Local\Temp\ccJqhSXE.s 			page 9


 430:Core/Src/lte.c ****                     stDelay = FAIL;
 431:Core/Src/lte.c ****                     uart_status = LTE_UART_STATUS_TRANSMIT;
 432:Core/Src/lte.c ****                 }
 433:Core/Src/lte.c ****                 else
 434:Core/Src/lte.c ****                 {
 435:Core/Src/lte.c ****                     stDelay = LTE_Delay(2000);
 436:Core/Src/lte.c ****                 }
 437:Core/Src/lte.c ****             }
 438:Core/Src/lte.c ****         break;
 439:Core/Src/lte.c ****         case LTE_STEP_MQTT_SUBSCRIBE :           
 440:Core/Src/lte.c ****             if(LTE_UART_STATUS_TRANSMIT == uart_status)
 441:Core/Src/lte.c ****             {
 442:Core/Src/lte.c ****                 sprintf(Tx_Buf,"AT+UMQTTSNC=5,1,0,\"mqtt_test\"\r\n");
 443:Core/Src/lte.c ****                 LTE_Transmit(Tx_Buf);
 444:Core/Src/lte.c ****                 uart_status = LTE_UART_STATUS_RECEIVE;
 445:Core/Src/lte.c ****             }
 446:Core/Src/lte.c ****             if(LTE_UART_STATUS_RECEIVE == uart_status)
 447:Core/Src/lte.c ****             {                
 448:Core/Src/lte.c ****                 if(OK == stDelay)
 449:Core/Src/lte.c ****                 {
 450:Core/Src/lte.c ****                     LTE_Status = LTE_Receive_Check(LTE_STEP_MQTT_SUBSCRIBE);
 451:Core/Src/lte.c ****                     stDelay = FAIL;
 452:Core/Src/lte.c ****                     uart_status = LTE_UART_STATUS_TRANSMIT;
 453:Core/Src/lte.c ****                 }
 454:Core/Src/lte.c ****                 else
 455:Core/Src/lte.c ****                 {
 456:Core/Src/lte.c ****                     stDelay = LTE_Delay(2000);
 457:Core/Src/lte.c ****                 }
 458:Core/Src/lte.c ****             }
 459:Core/Src/lte.c ****         break;
 460:Core/Src/lte.c ****         case LTE_STEP_MQTT_PUBLISH :           
 461:Core/Src/lte.c ****             if(LTE_UART_STATUS_TRANSMIT == uart_status)
 462:Core/Src/lte.c ****             {
 463:Core/Src/lte.c ****                 LTE_MQTT_Convert_Buffer(Tx_Buf);
 464:Core/Src/lte.c ****                 LTE_Transmit(Tx_Buf);
 465:Core/Src/lte.c ****                 uart_status = LTE_UART_STATUS_RECEIVE;
 466:Core/Src/lte.c ****             }
 467:Core/Src/lte.c ****             if(LTE_UART_STATUS_RECEIVE == uart_status)
 468:Core/Src/lte.c ****             {
 469:Core/Src/lte.c ****                 if(OK == stDelay)
 470:Core/Src/lte.c ****                 {
 471:Core/Src/lte.c ****                     LTE_Status = LTE_Receive_Check(LTE_STEP_MQTT_PUBLISH);
 472:Core/Src/lte.c ****                     stDelay = FAIL;
 473:Core/Src/lte.c ****                     uart_status = LTE_UART_STATUS_TRANSMIT;
 474:Core/Src/lte.c ****                 }
 475:Core/Src/lte.c ****                 else
 476:Core/Src/lte.c ****                 {
 477:Core/Src/lte.c ****                     stDelay = LTE_Delay(10000);
 478:Core/Src/lte.c ****                 }
 479:Core/Src/lte.c ****             }
 480:Core/Src/lte.c ****         break;
 481:Core/Src/lte.c ****         case LTE_STEP_MQTT_DISCONNECT :
 482:Core/Src/lte.c ****             if(LTE_UART_STATUS_TRANSMIT == uart_status)
 483:Core/Src/lte.c ****             {
 484:Core/Src/lte.c ****                 sprintf(Tx_Buf,"AT+UMQTTSNC=0\r\n");
 485:Core/Src/lte.c ****                 LTE_Transmit(Tx_Buf);
 486:Core/Src/lte.c ****                 uart_status = LTE_UART_STATUS_RECEIVE;
ARM GAS  C:\Users\jisu8\AppData\Local\Temp\ccJqhSXE.s 			page 10


 487:Core/Src/lte.c ****             }
 488:Core/Src/lte.c ****             if(LTE_UART_STATUS_RECEIVE == uart_status)
 489:Core/Src/lte.c ****             {
 490:Core/Src/lte.c ****                 if(OK == stDelay)
 491:Core/Src/lte.c ****                 {
 492:Core/Src/lte.c ****                     LTE_Status = LTE_Receive_Check(LTE_STEP_MQTT_DISCONNECT);
 493:Core/Src/lte.c ****                     stDelay = FAIL;
 494:Core/Src/lte.c ****                     uart_status = LTE_UART_STATUS_TRANSMIT;
 495:Core/Src/lte.c ****                 }
 496:Core/Src/lte.c ****                 else
 497:Core/Src/lte.c ****                 {
 498:Core/Src/lte.c ****                     stDelay = LTE_Delay(1000);
 499:Core/Src/lte.c ****                 }
 500:Core/Src/lte.c ****             }
 501:Core/Src/lte.c ****         break;
 502:Core/Src/lte.c ****         case LTE_STEP_MQTT_FINISH :
 503:Core/Src/lte.c ****         break;
 504:Core/Src/lte.c ****     }
 505:Core/Src/lte.c **** }
 506:Core/Src/lte.c **** 
 507:Core/Src/lte.c **** static void LTE_GPS_Connect(void)
 508:Core/Src/lte.c **** {
 509:Core/Src/lte.c ****     char Tx_Buf[100] = {0,};
 510:Core/Src/lte.c ****     static LTE_Status_t stDelay;
 511:Core/Src/lte.c ****     static uint8_t uart_status;
 512:Core/Src/lte.c **** 
 513:Core/Src/lte.c ****     switch(LTE_GPS_Status)
 514:Core/Src/lte.c ****     {
 515:Core/Src/lte.c ****         case LTE_GPS_STEP_READY : 
 516:Core/Src/lte.c ****             if(LTE_UART_STATUS_TRANSMIT == uart_status)
 517:Core/Src/lte.c ****             {
 518:Core/Src/lte.c ****                 sprintf(Tx_Buf,"AT\r\n");
 519:Core/Src/lte.c ****                 LTE_Transmit(Tx_Buf);
 520:Core/Src/lte.c ****                 uart_status = LTE_UART_STATUS_RECEIVE;
 521:Core/Src/lte.c ****             }
 522:Core/Src/lte.c ****             if(LTE_UART_STATUS_RECEIVE == uart_status)
 523:Core/Src/lte.c ****             {
 524:Core/Src/lte.c ****                 if(OK == stDelay)
 525:Core/Src/lte.c ****                 {
 526:Core/Src/lte.c ****                     LTE_GPS_Status = LTE_Receive_Check(LTE_GPS_STEP_READY);
 527:Core/Src/lte.c ****                     stDelay = FAIL;
 528:Core/Src/lte.c ****                     uart_status = LTE_UART_STATUS_TRANSMIT;
 529:Core/Src/lte.c ****                 }
 530:Core/Src/lte.c ****                 else
 531:Core/Src/lte.c ****                 {
 532:Core/Src/lte.c ****                     stDelay = LTE_Delay(1000);
 533:Core/Src/lte.c ****                 }
 534:Core/Src/lte.c ****             }        
 535:Core/Src/lte.c ****         break;
 536:Core/Src/lte.c ****         case LTE_GPS_STEP_ULOCCELL :
 537:Core/Src/lte.c ****             if(LTE_UART_STATUS_TRANSMIT == uart_status)
 538:Core/Src/lte.c ****             {
 539:Core/Src/lte.c ****                 sprintf(Tx_Buf,"AT+ULOCCELL=0\r\n");
 540:Core/Src/lte.c ****                 LTE_Transmit(Tx_Buf);
 541:Core/Src/lte.c ****                 uart_status = LTE_UART_STATUS_RECEIVE;
 542:Core/Src/lte.c ****             }
 543:Core/Src/lte.c ****             if(LTE_UART_STATUS_RECEIVE == uart_status)
ARM GAS  C:\Users\jisu8\AppData\Local\Temp\ccJqhSXE.s 			page 11


 544:Core/Src/lte.c ****             {
 545:Core/Src/lte.c ****                 if(OK == stDelay)
 546:Core/Src/lte.c ****                 {
 547:Core/Src/lte.c ****                     LTE_GPS_Status = LTE_Receive_Check(LTE_GPS_STEP_ULOCCELL);
 548:Core/Src/lte.c ****                     stDelay = FAIL;
 549:Core/Src/lte.c ****                     uart_status = LTE_UART_STATUS_TRANSMIT;
 550:Core/Src/lte.c ****                 }
 551:Core/Src/lte.c ****                 else
 552:Core/Src/lte.c ****                 {
 553:Core/Src/lte.c ****                     stDelay = LTE_Delay(1000);
 554:Core/Src/lte.c ****                 }
 555:Core/Src/lte.c ****             }
 556:Core/Src/lte.c ****         break;        
 557:Core/Src/lte.c ****         case LTE_GPS_STEP_ULOC :
 558:Core/Src/lte.c ****             if(LTE_UART_STATUS_TRANSMIT == uart_status)
 559:Core/Src/lte.c ****             {
 560:Core/Src/lte.c ****                 sprintf(Tx_Buf,"AT+ULOC=2,3,1,100,5000\r\n");
 561:Core/Src/lte.c ****                 LTE_Transmit(Tx_Buf);
 562:Core/Src/lte.c ****                 uart_status = LTE_UART_STATUS_RECEIVE;
 563:Core/Src/lte.c ****             }
 564:Core/Src/lte.c ****             if(LTE_UART_STATUS_RECEIVE == uart_status)
 565:Core/Src/lte.c ****             {
 566:Core/Src/lte.c ****                 if(OK == stDelay)
 567:Core/Src/lte.c ****                 {
 568:Core/Src/lte.c ****                     LTE_GPS_Status = LTE_GPS_Receive_Data(LTE_GPS_STEP_ULOC);
 569:Core/Src/lte.c ****                     stDelay = FAIL;
 570:Core/Src/lte.c ****                     uart_status = LTE_UART_STATUS_TRANSMIT;
 571:Core/Src/lte.c ****                 }
 572:Core/Src/lte.c ****                 else
 573:Core/Src/lte.c ****                 {
 574:Core/Src/lte.c ****                     stDelay = LTE_Delay(1000);
 575:Core/Src/lte.c ****                 }
 576:Core/Src/lte.c ****             }
 577:Core/Src/lte.c ****         break;        
 578:Core/Src/lte.c ****         case LTE_GPS_STEP_RECEIVEDATA :
 579:Core/Src/lte.c ****             uart_status = LTE_UART_STATUS_RECEIVE;
 580:Core/Src/lte.c ****             if(LTE_UART_STATUS_RECEIVE == uart_status)
 581:Core/Src/lte.c ****             {
 582:Core/Src/lte.c ****                 if(OK == stDelay)
 583:Core/Src/lte.c ****                 {
 584:Core/Src/lte.c ****                     LTE_GPS_Status = LTE_GPS_Receive_Data(LTE_GPS_STEP_RECEIVEDATA);
 585:Core/Src/lte.c ****                     stDelay = FAIL;
 586:Core/Src/lte.c ****                     uart_status = LTE_UART_STATUS_TRANSMIT;
 587:Core/Src/lte.c ****                 }
 588:Core/Src/lte.c ****                 else
 589:Core/Src/lte.c ****                 {
 590:Core/Src/lte.c ****                     stDelay = LTE_Delay(5000);
 591:Core/Src/lte.c ****                 }
 592:Core/Src/lte.c ****             }
 593:Core/Src/lte.c ****         break;    
 594:Core/Src/lte.c ****         case LTE_GPS_STEP_UPDATEDATA :
 595:Core/Src/lte.c ****             LTE_GPS_Status = LTE_GPS_Update_Data(LTE_GPS_STEP_UPDATEDATA);
 596:Core/Src/lte.c ****         break;
 597:Core/Src/lte.c ****         case LTE_GPS_STEP_FINISH :
 598:Core/Src/lte.c ****         break;
 599:Core/Src/lte.c ****     }
 600:Core/Src/lte.c **** }
ARM GAS  C:\Users\jisu8\AppData\Local\Temp\ccJqhSXE.s 			page 12


 601:Core/Src/lte.c **** 
 602:Core/Src/lte.c **** static void LTE_Transmit(uint8_t * buf)
 603:Core/Src/lte.c **** {
 604:Core/Src/lte.c ****     HAL_UART_Transmit(&huart1,buf,strlen(buf),100);                    
 605:Core/Src/lte.c ****     HAL_UART_Transmit(&huart3,buf,strlen(buf),100);
 606:Core/Src/lte.c **** }
 607:Core/Src/lte.c **** 
 608:Core/Src/lte.c **** static uint8_t LTE_OK_Check(void)
 609:Core/Src/lte.c **** {
 610:Core/Src/lte.c ****     uint8_t retval = FAIL;
 611:Core/Src/lte.c ****     if(LTE_Rx_Counter>3)
 612:Core/Src/lte.c ****     {
 613:Core/Src/lte.c ****         for(uint16_t i = 0; i < LTE_RX_BUFFER_SIZE; i++)
 614:Core/Src/lte.c ****         {
 615:Core/Src/lte.c ****             if((LTE_Rx_Buffer[i] == 'O') && (LTE_Rx_Buffer[i+1] == 'K') && (LTE_Rx_Buffer[i+2] == '
 616:Core/Src/lte.c ****             {
 617:Core/Src/lte.c ****                 HAL_UART_Transmit(&huart3,&LTE_Rx_Buffer[i],strlen(&LTE_Rx_Buffer[i]),100);
 618:Core/Src/lte.c ****                 memset(LTE_Rx_Buffer,0x00,LTE_Rx_Counter);
 619:Core/Src/lte.c ****                 LTE_Rx_Counter = 0;
 620:Core/Src/lte.c ****                 retval = OK;
 621:Core/Src/lte.c ****                 return retval;
 622:Core/Src/lte.c ****             }
 623:Core/Src/lte.c ****             
 624:Core/Src/lte.c ****             if(LTE_Rx_Buffer[i] == 0x00)
 625:Core/Src/lte.c ****             {
 626:Core/Src/lte.c ****                 memset(LTE_Rx_Buffer,0x00,LTE_Rx_Counter);
 627:Core/Src/lte.c ****                 LTE_Rx_Counter = 0;
 628:Core/Src/lte.c ****                 break;
 629:Core/Src/lte.c ****             }
 630:Core/Src/lte.c ****         }
 631:Core/Src/lte.c ****     }
 632:Core/Src/lte.c **** 
 633:Core/Src/lte.c ****     return retval;
 634:Core/Src/lte.c **** }
 635:Core/Src/lte.c **** 
 636:Core/Src/lte.c **** static uint8_t LTE_Delay(uint16_t time)
 637:Core/Src/lte.c **** {
  29              		.loc 1 637 1 view -0
  30              		.cfi_startproc
  31              		@ args = 0, pretend = 0, frame = 0
  32              		@ frame_needed = 0, uses_anonymous_args = 0
  33              		@ link register save eliminated.
 638:Core/Src/lte.c ****     static uint16_t timer;
  34              		.loc 1 638 5 view .LVU1
 639:Core/Src/lte.c ****     LTE_Status_t retval = FAIL;
  35              		.loc 1 639 5 view .LVU2
 640:Core/Src/lte.c ****     time = time / 100; // [ms] to 100[ms]
  36              		.loc 1 640 5 view .LVU3
  37              		.loc 1 640 10 is_stmt 0 view .LVU4
  38 0000 084B     		ldr	r3, .L4
  39 0002 A3FB0030 		umull	r3, r0, r3, r0
  40              	.LVL1:
 641:Core/Src/lte.c ****     timer++;
  41              		.loc 1 641 5 is_stmt 1 view .LVU5
  42              		.loc 1 641 10 is_stmt 0 view .LVU6
  43 0006 084A     		ldr	r2, .L4+4
  44 0008 1388     		ldrh	r3, [r2]
ARM GAS  C:\Users\jisu8\AppData\Local\Temp\ccJqhSXE.s 			page 13


  45 000a 0133     		adds	r3, r3, #1
  46 000c 9BB2     		uxth	r3, r3
  47 000e 1380     		strh	r3, [r2]	@ movhi
 642:Core/Src/lte.c ****     if(timer>time)
  48              		.loc 1 642 5 is_stmt 1 view .LVU7
  49              		.loc 1 642 7 is_stmt 0 view .LVU8
  50 0010 B3EB501F 		cmp	r3, r0, lsr #5
  51 0014 04D9     		bls	.L3
 643:Core/Src/lte.c ****     {
 644:Core/Src/lte.c ****         timer = 0;
  52              		.loc 1 644 9 is_stmt 1 view .LVU9
  53              		.loc 1 644 15 is_stmt 0 view .LVU10
  54 0016 1346     		mov	r3, r2
  55 0018 0022     		movs	r2, #0
  56 001a 1A80     		strh	r2, [r3]	@ movhi
 645:Core/Src/lte.c ****         retval = OK;
  57              		.loc 1 645 9 is_stmt 1 view .LVU11
  58              	.LVL2:
  59              		.loc 1 645 16 is_stmt 0 view .LVU12
  60 001c 0120     		movs	r0, #1
  61              	.LVL3:
  62              		.loc 1 645 16 view .LVU13
  63 001e 7047     		bx	lr
  64              	.LVL4:
  65              	.L3:
 639:Core/Src/lte.c ****     time = time / 100; // [ms] to 100[ms]
  66              		.loc 1 639 18 view .LVU14
  67 0020 0020     		movs	r0, #0
  68              	.LVL5:
 646:Core/Src/lte.c ****     }
 647:Core/Src/lte.c **** 
 648:Core/Src/lte.c ****     return retval;
  69              		.loc 1 648 5 is_stmt 1 view .LVU15
 649:Core/Src/lte.c **** }
  70              		.loc 1 649 1 is_stmt 0 view .LVU16
  71 0022 7047     		bx	lr
  72              	.L5:
  73              		.align	2
  74              	.L4:
  75 0024 1F85EB51 		.word	1374389535
  76 0028 00000000 		.word	.LANCHOR0
  77              		.cfi_endproc
  78              	.LFE140:
  80              		.section	.rodata.LTE_Update_Data.str1.4,"aMS",%progbits,1
  81              		.align	2
  82              	.LC0:
  83 0000 7B225F49 		.ascii	"{\"_ID\":\"%s\",\"_TEMP\":\"-%d.%02d\",\"_HUMI\":\""
  83      44223A22 
  83      2573222C 
  83      225F5445 
  83      4D50223A 
  84 0028 25642E25 		.ascii	"%d.%02d\",\"_DIST\":\"%d.%02d\",\"_CHAR\":\"%d.%02d"
  84      30326422 
  84      2C225F44 
  84      49535422 
  84      3A222564 
  85 0053 222C225F 		.ascii	"\",\"_GPS\":\"%d.%05d,%d.%05d\",\"_DOOR\":\"%d\"}\000"
ARM GAS  C:\Users\jisu8\AppData\Local\Temp\ccJqhSXE.s 			page 14


  85      47505322 
  85      3A222564 
  85      2E253035 
  85      642C2564 
  86              		.align	2
  87              	.LC1:
  88 007c 7B225F49 		.ascii	"{\"_ID\":\"%s\",\"_TEMP\":\"%d.%02d\",\"_HUMI\":\"%"
  88      44223A22 
  88      2573222C 
  88      225F5445 
  88      4D50223A 
  89 00a4 642E2530 		.ascii	"d.%02d\",\"_DIST\":\"%d.%02d\",\"_CHAR\":\"%d.%02d\""
  89      3264222C 
  89      225F4449 
  89      5354223A 
  89      2225642E 
  90 00cf 2C225F47 		.ascii	",\"_GPS\":\"%d.%05d,%d.%05d\",\"_DOOR\":\"%d\"}\000"
  90      5053223A 
  90      2225642E 
  90      25303564 
  90      2C25642E 
  91              		.section	.text.LTE_Update_Data,"ax",%progbits
  92              		.align	1
  93              		.syntax unified
  94              		.thumb
  95              		.thumb_func
  97              	LTE_Update_Data:
  98              	.LFB135:
  61:Core/Src/lte.c ****     DHT_Data_t data;
  99              		.loc 1 61 1 is_stmt 1 view -0
 100              		.cfi_startproc
 101              		@ args = 0, pretend = 0, frame = 8
 102              		@ frame_needed = 0, uses_anonymous_args = 0
 103 0000 70B5     		push	{r4, r5, r6, lr}
 104              	.LCFI0:
 105              		.cfi_def_cfa_offset 16
 106              		.cfi_offset 4, -16
 107              		.cfi_offset 5, -12
 108              		.cfi_offset 6, -8
 109              		.cfi_offset 14, -4
 110 0002 8EB0     		sub	sp, sp, #56
 111              	.LCFI1:
 112              		.cfi_def_cfa_offset 72
  62:Core/Src/lte.c ****     data = DHT_getData(DHT22);
 113              		.loc 1 62 5 view .LVU18
  63:Core/Src/lte.c ****     if(data.Temperature<0)
 114              		.loc 1 63 5 view .LVU19
  63:Core/Src/lte.c ****     if(data.Temperature<0)
 115              		.loc 1 63 12 is_stmt 0 view .LVU20
 116 0004 0120     		movs	r0, #1
 117 0006 FFF7FEFF 		bl	DHT_getData
 118              	.LVL6:
 119 000a 8DED0C0A 		vstr.32	s0, [sp, #48]
 120 000e CDED0D0A 		vstr.32	s1, [sp, #52]
  64:Core/Src/lte.c ****     {
 121              		.loc 1 64 5 is_stmt 1 view .LVU21
  64:Core/Src/lte.c ****     {
ARM GAS  C:\Users\jisu8\AppData\Local\Temp\ccJqhSXE.s 			page 15


 122              		.loc 1 64 7 is_stmt 0 view .LVU22
 123 0012 F5EEC00A 		vcmpe.f32	s1, #0
 124 0016 F1EE10FA 		vmrs	APSR_nzcv, FPSCR
 125 001a 76D4     		bmi	.L18
  71:Core/Src/lte.c ****         LTE_TEMP_D = ((uint16_t)(data.Temperature * 100))%100;
 126              		.loc 1 71 9 is_stmt 1 view .LVU23
  71:Core/Src/lte.c ****         LTE_TEMP_D = ((uint16_t)(data.Temperature * 100))%100;
 127              		.loc 1 71 20 is_stmt 0 view .LVU24
 128 001c 584A     		ldr	r2, .L20
 129 001e FCEEE07A 		vcvt.u32.f32	s15, s1
 130 0022 17EE903A 		vmov	r3, s15	@ int
 131 0026 1380     		strh	r3, [r2]	@ movhi
  72:Core/Src/lte.c ****     }
 132              		.loc 1 72 9 is_stmt 1 view .LVU25
  72:Core/Src/lte.c ****     }
 133              		.loc 1 72 51 is_stmt 0 view .LVU26
 134 0028 DFED567A 		vldr.32	s15, .L20+4
 135 002c 60EEA77A 		vmul.f32	s15, s1, s15
  72:Core/Src/lte.c ****     }
 136              		.loc 1 72 23 view .LVU27
 137 0030 FCEEE77A 		vcvt.u32.f32	s15, s15
 138 0034 17EE903A 		vmov	r3, s15	@ int
 139 0038 9BB2     		uxth	r3, r3
  72:Core/Src/lte.c ****     }
 140              		.loc 1 72 20 view .LVU28
 141 003a 534A     		ldr	r2, .L20+8
 142 003c A2FB0312 		umull	r1, r2, r2, r3
 143 0040 5209     		lsrs	r2, r2, #5
 144 0042 6421     		movs	r1, #100
 145 0044 01FB1233 		mls	r3, r1, r2, r3
 146 0048 504A     		ldr	r2, .L20+12
 147 004a 1380     		strh	r3, [r2]	@ movhi
 148              	.L9:
  75:Core/Src/lte.c ****     LTE_HUMI_D = ((uint16_t)(data.Humidity * 100))%100;
 149              		.loc 1 75 5 is_stmt 1 view .LVU29
  75:Core/Src/lte.c ****     LTE_HUMI_D = ((uint16_t)(data.Humidity * 100))%100;
 150              		.loc 1 75 32 is_stmt 0 view .LVU30
 151 004c DDED0C7A 		vldr.32	s15, [sp, #48]
  75:Core/Src/lte.c ****     LTE_HUMI_D = ((uint16_t)(data.Humidity * 100))%100;
 152              		.loc 1 75 18 view .LVU31
 153 0050 BCEEE77A 		vcvt.u32.f32	s14, s15
 154 0054 17EE103A 		vmov	r3, s14	@ int
 155 0058 9CB2     		uxth	r4, r3
  75:Core/Src/lte.c ****     LTE_HUMI_D = ((uint16_t)(data.Humidity * 100))%100;
 156              		.loc 1 75 16 view .LVU32
 157 005a 4D4B     		ldr	r3, .L20+16
 158 005c 1C80     		strh	r4, [r3]	@ movhi
  76:Core/Src/lte.c ****     LTE_DIST_I = Lidar_Distance;
 159              		.loc 1 76 5 is_stmt 1 view .LVU33
  76:Core/Src/lte.c ****     LTE_DIST_I = Lidar_Distance;
 160              		.loc 1 76 44 is_stmt 0 view .LVU34
 161 005e 9FED497A 		vldr.32	s14, .L20+4
 162 0062 67EE877A 		vmul.f32	s15, s15, s14
  76:Core/Src/lte.c ****     LTE_DIST_I = Lidar_Distance;
 163              		.loc 1 76 19 view .LVU35
 164 0066 FCEEE77A 		vcvt.u32.f32	s15, s15
 165 006a 17EE903A 		vmov	r3, s15	@ int
ARM GAS  C:\Users\jisu8\AppData\Local\Temp\ccJqhSXE.s 			page 16


 166 006e 9BB2     		uxth	r3, r3
  76:Core/Src/lte.c ****     LTE_DIST_I = Lidar_Distance;
 167              		.loc 1 76 16 view .LVU36
 168 0070 4548     		ldr	r0, .L20+8
 169 0072 A0FB0312 		umull	r1, r2, r0, r3
 170 0076 5209     		lsrs	r2, r2, #5
 171 0078 4FF0640C 		mov	ip, #100
 172 007c 0CFB1233 		mls	r3, ip, r2, r3
 173 0080 9BB2     		uxth	r3, r3
 174 0082 444A     		ldr	r2, .L20+20
 175 0084 1380     		strh	r3, [r2]	@ movhi
  77:Core/Src/lte.c ****     LTE_CHAR_I = (Device_Batt_Voltage)/1000;
 176              		.loc 1 77 5 is_stmt 1 view .LVU37
  77:Core/Src/lte.c ****     LTE_CHAR_I = (Device_Batt_Voltage)/1000;
 177              		.loc 1 77 16 is_stmt 0 view .LVU38
 178 0086 444A     		ldr	r2, .L20+24
 179 0088 1588     		ldrh	r5, [r2]
 180 008a 444A     		ldr	r2, .L20+28
 181 008c 1580     		strh	r5, [r2]	@ movhi
  78:Core/Src/lte.c ****     LTE_CHAR_D = (Device_Batt_Voltage/10)%100;
 182              		.loc 1 78 5 is_stmt 1 view .LVU39
  78:Core/Src/lte.c ****     LTE_CHAR_D = (Device_Batt_Voltage/10)%100;
 183              		.loc 1 78 16 is_stmt 0 view .LVU40
 184 008e 444A     		ldr	r2, .L20+32
 185 0090 1288     		ldrh	r2, [r2]
 186 0092 4449     		ldr	r1, .L20+36
 187 0094 A1FB0261 		umull	r6, r1, r1, r2
 188 0098 8909     		lsrs	r1, r1, #6
 189 009a 434E     		ldr	r6, .L20+40
 190 009c 3180     		strh	r1, [r6]	@ movhi
  79:Core/Src/lte.c ****     LTE_DOOR = Device_Sensor_Signal;
 191              		.loc 1 79 5 is_stmt 1 view .LVU41
  79:Core/Src/lte.c ****     LTE_DOOR = Device_Sensor_Signal;
 192              		.loc 1 79 16 is_stmt 0 view .LVU42
 193 009e 434E     		ldr	r6, .L20+44
 194 00a0 A6FB0262 		umull	r6, r2, r6, r2
 195 00a4 D208     		lsrs	r2, r2, #3
 196 00a6 A0FB0260 		umull	r6, r0, r0, r2
 197 00aa 4009     		lsrs	r0, r0, #5
 198 00ac 0CFB1022 		mls	r2, ip, r0, r2
 199 00b0 92B2     		uxth	r2, r2
 200 00b2 3F48     		ldr	r0, .L20+48
 201 00b4 0280     		strh	r2, [r0]	@ movhi
  80:Core/Src/lte.c ****     
 202              		.loc 1 80 5 is_stmt 1 view .LVU43
  80:Core/Src/lte.c ****     
 203              		.loc 1 80 14 is_stmt 0 view .LVU44
 204 00b6 3F48     		ldr	r0, .L20+52
 205 00b8 0078     		ldrb	r0, [r0]	@ zero_extendqisi2
 206 00ba 3F4E     		ldr	r6, .L20+56
 207 00bc 3070     		strb	r0, [r6]
  82:Core/Src/lte.c ****     {
 208              		.loc 1 82 5 is_stmt 1 view .LVU45
  82:Core/Src/lte.c ****     {
 209              		.loc 1 82 7 is_stmt 0 view .LVU46
 210 00be F5EEC00A 		vcmpe.f32	s1, #0
 211 00c2 F1EE10FA 		vmrs	APSR_nzcv, FPSCR
ARM GAS  C:\Users\jisu8\AppData\Local\Temp\ccJqhSXE.s 			page 17


 212 00c6 3BD4     		bmi	.L19
  89:Core/Src/lte.c ****             LTE_ID,LTE_TEMP_I,LTE_TEMP_D,LTE_HUMI_I,LTE_HUMI_D,LTE_DIST_I,LTE_DIST_D,LTE_CHAR_I,LTE
 213              		.loc 1 89 9 is_stmt 1 view .LVU47
 214 00c8 0B90     		str	r0, [sp, #44]
 215 00ca 3C48     		ldr	r0, .L20+60
 216 00cc 0068     		ldr	r0, [r0]
 217 00ce 0A90     		str	r0, [sp, #40]
 218 00d0 3B48     		ldr	r0, .L20+64
 219 00d2 0088     		ldrh	r0, [r0]
 220 00d4 0990     		str	r0, [sp, #36]
 221 00d6 3B48     		ldr	r0, .L20+68
 222 00d8 0068     		ldr	r0, [r0]
 223 00da 0890     		str	r0, [sp, #32]
 224 00dc 3A48     		ldr	r0, .L20+72
 225 00de 0088     		ldrh	r0, [r0]
 226 00e0 0790     		str	r0, [sp, #28]
 227 00e2 0692     		str	r2, [sp, #24]
 228 00e4 0591     		str	r1, [sp, #20]
 229 00e6 394A     		ldr	r2, .L20+76
 230 00e8 1288     		ldrh	r2, [r2]
 231 00ea 0492     		str	r2, [sp, #16]
 232 00ec 0395     		str	r5, [sp, #12]
 233 00ee 0293     		str	r3, [sp, #8]
 234 00f0 0194     		str	r4, [sp, #4]
 235 00f2 264B     		ldr	r3, .L20+12
 236 00f4 1B88     		ldrh	r3, [r3]
 237 00f6 0093     		str	r3, [sp]
 238 00f8 214B     		ldr	r3, .L20
 239 00fa 1B88     		ldrh	r3, [r3]
 240 00fc 344A     		ldr	r2, .L20+80
 241 00fe 3549     		ldr	r1, .L20+84
 242 0100 3548     		ldr	r0, .L20+88
 243 0102 FFF7FEFF 		bl	sprintf
 244              	.LVL7:
 245              	.L6:
  93:Core/Src/lte.c **** 
 246              		.loc 1 93 1 is_stmt 0 view .LVU48
 247 0106 0EB0     		add	sp, sp, #56
 248              	.LCFI2:
 249              		.cfi_remember_state
 250              		.cfi_def_cfa_offset 16
 251              		@ sp needed
 252 0108 70BD     		pop	{r4, r5, r6, pc}
 253              	.L18:
 254              	.LCFI3:
 255              		.cfi_restore_state
  66:Core/Src/lte.c ****         LTE_TEMP_D = ((uint16_t)((data.Temperature * -1) * 100))%100;        
 256              		.loc 1 66 9 is_stmt 1 view .LVU49
  66:Core/Src/lte.c ****         LTE_TEMP_D = ((uint16_t)((data.Temperature * -1) * 100))%100;        
 257              		.loc 1 66 50 is_stmt 0 view .LVU50
 258 010a F1EE607A 		vneg.f32	s15, s1
  66:Core/Src/lte.c ****         LTE_TEMP_D = ((uint16_t)((data.Temperature * -1) * 100))%100;        
 259              		.loc 1 66 22 view .LVU51
 260 010e BCEEE77A 		vcvt.u32.f32	s14, s15
 261 0112 17EE102A 		vmov	r2, s14	@ int
  66:Core/Src/lte.c ****         LTE_TEMP_D = ((uint16_t)((data.Temperature * -1) * 100))%100;        
 262              		.loc 1 66 20 view .LVU52
ARM GAS  C:\Users\jisu8\AppData\Local\Temp\ccJqhSXE.s 			page 18


 263 0116 1A4B     		ldr	r3, .L20
 264 0118 1A80     		strh	r2, [r3]	@ movhi
  67:Core/Src/lte.c ****     }
 265              		.loc 1 67 9 is_stmt 1 view .LVU53
  67:Core/Src/lte.c ****     }
 266              		.loc 1 67 58 is_stmt 0 view .LVU54
 267 011a 9FED1A7A 		vldr.32	s14, .L20+4
 268 011e 67EE877A 		vmul.f32	s15, s15, s14
  67:Core/Src/lte.c ****     }
 269              		.loc 1 67 23 view .LVU55
 270 0122 FCEEE77A 		vcvt.u32.f32	s15, s15
 271 0126 17EE903A 		vmov	r3, s15	@ int
 272 012a 9BB2     		uxth	r3, r3
  67:Core/Src/lte.c ****     }
 273              		.loc 1 67 20 view .LVU56
 274 012c 164A     		ldr	r2, .L20+8
 275 012e A2FB0312 		umull	r1, r2, r2, r3
 276 0132 5209     		lsrs	r2, r2, #5
 277 0134 6421     		movs	r1, #100
 278 0136 01FB1233 		mls	r3, r1, r2, r3
 279 013a 144A     		ldr	r2, .L20+12
 280 013c 1380     		strh	r3, [r2]	@ movhi
 281 013e 85E7     		b	.L9
 282              	.L19:
  84:Core/Src/lte.c ****             LTE_ID,LTE_TEMP_I,LTE_TEMP_D,LTE_HUMI_I,LTE_HUMI_D,LTE_DIST_I,LTE_DIST_D,LTE_CHAR_I,LTE
 283              		.loc 1 84 9 is_stmt 1 view .LVU57
 284 0140 0B90     		str	r0, [sp, #44]
 285 0142 1E48     		ldr	r0, .L20+60
 286 0144 0068     		ldr	r0, [r0]
 287 0146 0A90     		str	r0, [sp, #40]
 288 0148 1D48     		ldr	r0, .L20+64
 289 014a 0088     		ldrh	r0, [r0]
 290 014c 0990     		str	r0, [sp, #36]
 291 014e 1D48     		ldr	r0, .L20+68
 292 0150 0068     		ldr	r0, [r0]
 293 0152 0890     		str	r0, [sp, #32]
 294 0154 1C48     		ldr	r0, .L20+72
 295 0156 0088     		ldrh	r0, [r0]
 296 0158 0790     		str	r0, [sp, #28]
 297 015a 0692     		str	r2, [sp, #24]
 298 015c 0591     		str	r1, [sp, #20]
 299 015e 1B4A     		ldr	r2, .L20+76
 300 0160 1288     		ldrh	r2, [r2]
 301 0162 0492     		str	r2, [sp, #16]
 302 0164 0395     		str	r5, [sp, #12]
 303 0166 0293     		str	r3, [sp, #8]
 304 0168 0194     		str	r4, [sp, #4]
 305 016a 084B     		ldr	r3, .L20+12
 306 016c 1B88     		ldrh	r3, [r3]
 307 016e 0093     		str	r3, [sp]
 308 0170 034B     		ldr	r3, .L20
 309 0172 1B88     		ldrh	r3, [r3]
 310 0174 164A     		ldr	r2, .L20+80
 311 0176 1949     		ldr	r1, .L20+92
 312 0178 1748     		ldr	r0, .L20+88
 313 017a FFF7FEFF 		bl	sprintf
 314              	.LVL8:
ARM GAS  C:\Users\jisu8\AppData\Local\Temp\ccJqhSXE.s 			page 19


 315 017e C2E7     		b	.L6
 316              	.L21:
 317              		.align	2
 318              	.L20:
 319 0180 00000000 		.word	.LANCHOR1
 320 0184 0000C842 		.word	1120403456
 321 0188 1F85EB51 		.word	1374389535
 322 018c 00000000 		.word	.LANCHOR2
 323 0190 00000000 		.word	.LANCHOR3
 324 0194 00000000 		.word	.LANCHOR4
 325 0198 00000000 		.word	Lidar_Distance
 326 019c 00000000 		.word	.LANCHOR5
 327 01a0 00000000 		.word	Device_Batt_Voltage
 328 01a4 D34D6210 		.word	274877907
 329 01a8 00000000 		.word	.LANCHOR6
 330 01ac CDCCCCCC 		.word	-858993459
 331 01b0 00000000 		.word	.LANCHOR7
 332 01b4 00000000 		.word	Device_Sensor_Signal
 333 01b8 00000000 		.word	.LANCHOR8
 334 01bc 00000000 		.word	.LANCHOR11
 335 01c0 00000000 		.word	.LANCHOR12
 336 01c4 00000000 		.word	.LANCHOR13
 337 01c8 00000000 		.word	.LANCHOR14
 338 01cc 00000000 		.word	.LANCHOR15
 339 01d0 00000000 		.word	.LANCHOR9
 340 01d4 7C000000 		.word	.LC1
 341 01d8 00000000 		.word	.LANCHOR10
 342 01dc 00000000 		.word	.LC0
 343              		.cfi_endproc
 344              	.LFE135:
 346              		.section	.text.LTE_Transmit,"ax",%progbits
 347              		.align	1
 348              		.syntax unified
 349              		.thumb
 350              		.thumb_func
 352              	LTE_Transmit:
 353              	.LVL9:
 354              	.LFB138:
 603:Core/Src/lte.c ****     HAL_UART_Transmit(&huart1,buf,strlen(buf),100);                    
 355              		.loc 1 603 1 view -0
 356              		.cfi_startproc
 357              		@ args = 0, pretend = 0, frame = 0
 358              		@ frame_needed = 0, uses_anonymous_args = 0
 603:Core/Src/lte.c ****     HAL_UART_Transmit(&huart1,buf,strlen(buf),100);                    
 359              		.loc 1 603 1 is_stmt 0 view .LVU59
 360 0000 10B5     		push	{r4, lr}
 361              	.LCFI4:
 362              		.cfi_def_cfa_offset 8
 363              		.cfi_offset 4, -8
 364              		.cfi_offset 14, -4
 365 0002 0446     		mov	r4, r0
 604:Core/Src/lte.c ****     HAL_UART_Transmit(&huart3,buf,strlen(buf),100);
 366              		.loc 1 604 5 is_stmt 1 view .LVU60
 604:Core/Src/lte.c ****     HAL_UART_Transmit(&huart3,buf,strlen(buf),100);
 367              		.loc 1 604 35 is_stmt 0 view .LVU61
 368 0004 FFF7FEFF 		bl	strlen
 369              	.LVL10:
ARM GAS  C:\Users\jisu8\AppData\Local\Temp\ccJqhSXE.s 			page 20


 604:Core/Src/lte.c ****     HAL_UART_Transmit(&huart3,buf,strlen(buf),100);
 370              		.loc 1 604 5 view .LVU62
 371 0008 6423     		movs	r3, #100
 372 000a 82B2     		uxth	r2, r0
 373 000c 2146     		mov	r1, r4
 374 000e 0648     		ldr	r0, .L24
 375 0010 FFF7FEFF 		bl	HAL_UART_Transmit
 376              	.LVL11:
 605:Core/Src/lte.c **** }
 377              		.loc 1 605 5 is_stmt 1 view .LVU63
 605:Core/Src/lte.c **** }
 378              		.loc 1 605 35 is_stmt 0 view .LVU64
 379 0014 2046     		mov	r0, r4
 380 0016 FFF7FEFF 		bl	strlen
 381              	.LVL12:
 605:Core/Src/lte.c **** }
 382              		.loc 1 605 5 view .LVU65
 383 001a 6423     		movs	r3, #100
 384 001c 82B2     		uxth	r2, r0
 385 001e 2146     		mov	r1, r4
 386 0020 0248     		ldr	r0, .L24+4
 387 0022 FFF7FEFF 		bl	HAL_UART_Transmit
 388              	.LVL13:
 606:Core/Src/lte.c **** 
 389              		.loc 1 606 1 view .LVU66
 390 0026 10BD     		pop	{r4, pc}
 391              	.LVL14:
 392              	.L25:
 606:Core/Src/lte.c **** 
 393              		.loc 1 606 1 view .LVU67
 394              		.align	2
 395              	.L24:
 396 0028 00000000 		.word	huart1
 397 002c 00000000 		.word	huart3
 398              		.cfi_endproc
 399              	.LFE138:
 401              		.section	.text.LTE_OK_Check,"ax",%progbits
 402              		.align	1
 403              		.syntax unified
 404              		.thumb
 405              		.thumb_func
 407              	LTE_OK_Check:
 408              	.LFB139:
 609:Core/Src/lte.c ****     uint8_t retval = FAIL;
 409              		.loc 1 609 1 is_stmt 1 view -0
 410              		.cfi_startproc
 411              		@ args = 0, pretend = 0, frame = 0
 412              		@ frame_needed = 0, uses_anonymous_args = 0
 413 0000 38B5     		push	{r3, r4, r5, lr}
 414              	.LCFI5:
 415              		.cfi_def_cfa_offset 16
 416              		.cfi_offset 3, -16
 417              		.cfi_offset 4, -12
 418              		.cfi_offset 5, -8
 419              		.cfi_offset 14, -4
 610:Core/Src/lte.c ****     if(LTE_Rx_Counter>3)
 420              		.loc 1 610 5 view .LVU69
ARM GAS  C:\Users\jisu8\AppData\Local\Temp\ccJqhSXE.s 			page 21


 421              	.LVL15:
 611:Core/Src/lte.c ****     {
 422              		.loc 1 611 5 view .LVU70
 611:Core/Src/lte.c ****     {
 423              		.loc 1 611 22 is_stmt 0 view .LVU71
 424 0002 1F4B     		ldr	r3, .L36
 425 0004 1A88     		ldrh	r2, [r3]
 611:Core/Src/lte.c ****     {
 426              		.loc 1 611 7 view .LVU72
 427 0006 032A     		cmp	r2, #3
 428 0008 35D8     		bhi	.L32
 633:Core/Src/lte.c **** }
 429              		.loc 1 633 12 view .LVU73
 430 000a 0024     		movs	r4, #0
 431              	.LVL16:
 432              	.L28:
 634:Core/Src/lte.c **** 
 433              		.loc 1 634 1 view .LVU74
 434 000c 2046     		mov	r0, r4
 435 000e 38BD     		pop	{r3, r4, r5, pc}
 436              	.LVL17:
 437              	.L29:
 438              	.LBB2:
 624:Core/Src/lte.c ****             {
 439              		.loc 1 624 13 is_stmt 1 view .LVU75
 624:Core/Src/lte.c ****             {
 440              		.loc 1 624 15 is_stmt 0 view .LVU76
 441 0010 4CB3     		cbz	r4, .L34
 613:Core/Src/lte.c ****         {
 442              		.loc 1 613 53 is_stmt 1 discriminator 2 view .LVU77
 613:Core/Src/lte.c ****         {
 443              		.loc 1 613 54 is_stmt 0 discriminator 2 view .LVU78
 444 0012 0133     		adds	r3, r3, #1
 445              	.LVL18:
 613:Core/Src/lte.c ****         {
 446              		.loc 1 613 54 discriminator 2 view .LVU79
 447 0014 9BB2     		uxth	r3, r3
 448              	.LVL19:
 449              	.L27:
 613:Core/Src/lte.c ****         {
 450              		.loc 1 613 29 is_stmt 1 discriminator 1 view .LVU80
 613:Core/Src/lte.c ****         {
 451              		.loc 1 613 9 is_stmt 0 discriminator 1 view .LVU81
 452 0016 B3F5806F 		cmp	r3, #1024
 453 001a 2ED2     		bcs	.L35
 615:Core/Src/lte.c ****             {
 454              		.loc 1 615 13 is_stmt 1 view .LVU82
 615:Core/Src/lte.c ****             {
 455              		.loc 1 615 30 is_stmt 0 view .LVU83
 456 001c 1949     		ldr	r1, .L36+4
 457 001e CC5C     		ldrb	r4, [r1, r3]	@ zero_extendqisi2
 615:Core/Src/lte.c ****             {
 458              		.loc 1 615 15 view .LVU84
 459 0020 4F2C     		cmp	r4, #79
 460 0022 F5D1     		bne	.L29
 615:Core/Src/lte.c ****             {
 461              		.loc 1 615 61 discriminator 1 view .LVU85
ARM GAS  C:\Users\jisu8\AppData\Local\Temp\ccJqhSXE.s 			page 22


 462 0024 591C     		adds	r1, r3, #1
 615:Core/Src/lte.c ****             {
 463              		.loc 1 615 59 discriminator 1 view .LVU86
 464 0026 174D     		ldr	r5, .L36+4
 465 0028 695C     		ldrb	r1, [r5, r1]	@ zero_extendqisi2
 615:Core/Src/lte.c ****             {
 466              		.loc 1 615 42 discriminator 1 view .LVU87
 467 002a 4B29     		cmp	r1, #75
 468 002c F0D1     		bne	.L29
 615:Core/Src/lte.c ****             {
 469              		.loc 1 615 92 discriminator 2 view .LVU88
 470 002e 991C     		adds	r1, r3, #2
 615:Core/Src/lte.c ****             {
 471              		.loc 1 615 90 discriminator 2 view .LVU89
 472 0030 695C     		ldrb	r1, [r5, r1]	@ zero_extendqisi2
 615:Core/Src/lte.c ****             {
 473              		.loc 1 615 73 discriminator 2 view .LVU90
 474 0032 0D29     		cmp	r1, #13
 475 0034 ECD1     		bne	.L29
 615:Core/Src/lte.c ****             {
 476              		.loc 1 615 124 discriminator 3 view .LVU91
 477 0036 D91C     		adds	r1, r3, #3
 615:Core/Src/lte.c ****             {
 478              		.loc 1 615 122 discriminator 3 view .LVU92
 479 0038 695C     		ldrb	r1, [r5, r1]	@ zero_extendqisi2
 615:Core/Src/lte.c ****             {
 480              		.loc 1 615 105 discriminator 3 view .LVU93
 481 003a 0A29     		cmp	r1, #10
 482 003c E8D1     		bne	.L29
 617:Core/Src/lte.c ****                 memset(LTE_Rx_Buffer,0x00,LTE_Rx_Counter);
 483              		.loc 1 617 17 is_stmt 1 view .LVU94
 484 003e EC18     		adds	r4, r5, r3
 617:Core/Src/lte.c ****                 memset(LTE_Rx_Buffer,0x00,LTE_Rx_Counter);
 485              		.loc 1 617 61 is_stmt 0 view .LVU95
 486 0040 2046     		mov	r0, r4
 487 0042 FFF7FEFF 		bl	strlen
 488              	.LVL20:
 617:Core/Src/lte.c ****                 memset(LTE_Rx_Buffer,0x00,LTE_Rx_Counter);
 489              		.loc 1 617 17 view .LVU96
 490 0046 6423     		movs	r3, #100
 491 0048 82B2     		uxth	r2, r0
 492 004a 2146     		mov	r1, r4
 493 004c 0E48     		ldr	r0, .L36+8
 494 004e FFF7FEFF 		bl	HAL_UART_Transmit
 495              	.LVL21:
 618:Core/Src/lte.c ****                 LTE_Rx_Counter = 0;
 496              		.loc 1 618 17 is_stmt 1 view .LVU97
 497 0052 0B4C     		ldr	r4, .L36
 498 0054 2288     		ldrh	r2, [r4]
 499 0056 0021     		movs	r1, #0
 500 0058 2846     		mov	r0, r5
 501 005a FFF7FEFF 		bl	memset
 502              	.LVL22:
 619:Core/Src/lte.c ****                 retval = OK;
 503              		.loc 1 619 17 view .LVU98
 619:Core/Src/lte.c ****                 retval = OK;
 504              		.loc 1 619 32 is_stmt 0 view .LVU99
ARM GAS  C:\Users\jisu8\AppData\Local\Temp\ccJqhSXE.s 			page 23


 505 005e 0023     		movs	r3, #0
 506 0060 2380     		strh	r3, [r4]	@ movhi
 620:Core/Src/lte.c ****                 return retval;
 507              		.loc 1 620 17 is_stmt 1 view .LVU100
 508              	.LVL23:
 621:Core/Src/lte.c ****             }
 509              		.loc 1 621 17 view .LVU101
 621:Core/Src/lte.c ****             }
 510              		.loc 1 621 24 is_stmt 0 view .LVU102
 511 0062 0124     		movs	r4, #1
 512 0064 D2E7     		b	.L28
 513              	.LVL24:
 514              	.L34:
 626:Core/Src/lte.c ****                 LTE_Rx_Counter = 0;
 515              		.loc 1 626 17 is_stmt 1 view .LVU103
 516 0066 0021     		movs	r1, #0
 517 0068 0648     		ldr	r0, .L36+4
 518 006a FFF7FEFF 		bl	memset
 519              	.LVL25:
 627:Core/Src/lte.c ****                 break;
 520              		.loc 1 627 17 view .LVU104
 627:Core/Src/lte.c ****                 break;
 521              		.loc 1 627 32 is_stmt 0 view .LVU105
 522 006e 044B     		ldr	r3, .L36
 523 0070 0022     		movs	r2, #0
 524 0072 1A80     		strh	r2, [r3]	@ movhi
 628:Core/Src/lte.c ****             }
 525              		.loc 1 628 17 is_stmt 1 view .LVU106
 526 0074 CAE7     		b	.L28
 527              	.L32:
 613:Core/Src/lte.c ****         {
 528              		.loc 1 613 22 is_stmt 0 view .LVU107
 529 0076 0023     		movs	r3, #0
 530 0078 CDE7     		b	.L27
 531              	.LVL26:
 532              	.L35:
 613:Core/Src/lte.c ****         {
 533              		.loc 1 613 22 view .LVU108
 534              	.LBE2:
 633:Core/Src/lte.c **** }
 535              		.loc 1 633 12 view .LVU109
 536 007a 0024     		movs	r4, #0
 537 007c C6E7     		b	.L28
 538              	.L37:
 539 007e 00BF     		.align	2
 540              	.L36:
 541 0080 00000000 		.word	.LANCHOR16
 542 0084 00000000 		.word	.LANCHOR17
 543 0088 00000000 		.word	huart3
 544              		.cfi_endproc
 545              	.LFE139:
 547              		.section	.text.LTE_Receive_Check,"ax",%progbits
 548              		.align	1
 549              		.syntax unified
 550              		.thumb
 551              		.thumb_func
 553              	LTE_Receive_Check:
ARM GAS  C:\Users\jisu8\AppData\Local\Temp\ccJqhSXE.s 			page 24


 554              	.LVL27:
 555              	.LFB141:
 650:Core/Src/lte.c **** 
 651:Core/Src/lte.c **** static uint8_t LTE_Receive_Check(uint8_t status)
 652:Core/Src/lte.c **** {
 556              		.loc 1 652 1 is_stmt 1 view -0
 557              		.cfi_startproc
 558              		@ args = 0, pretend = 0, frame = 0
 559              		@ frame_needed = 0, uses_anonymous_args = 0
 560              		.loc 1 652 1 is_stmt 0 view .LVU111
 561 0000 10B5     		push	{r4, lr}
 562              	.LCFI6:
 563              		.cfi_def_cfa_offset 8
 564              		.cfi_offset 4, -8
 565              		.cfi_offset 14, -4
 566 0002 0446     		mov	r4, r0
 653:Core/Src/lte.c ****     LTE_Status_t stReceive = FAIL;
 567              		.loc 1 653 5 is_stmt 1 view .LVU112
 568              	.LVL28:
 654:Core/Src/lte.c ****     static uint8_t fail_counter;
 569              		.loc 1 654 5 view .LVU113
 655:Core/Src/lte.c ****     uint8_t retval = status;
 570              		.loc 1 655 5 view .LVU114
 656:Core/Src/lte.c **** 
 657:Core/Src/lte.c ****     stReceive = LTE_OK_Check();
 571              		.loc 1 657 5 view .LVU115
 572              		.loc 1 657 17 is_stmt 0 view .LVU116
 573 0004 FFF7FEFF 		bl	LTE_OK_Check
 574              	.LVL29:
 658:Core/Src/lte.c **** 
 659:Core/Src/lte.c ****     if(OK == stReceive)    
 575              		.loc 1 659 5 is_stmt 1 view .LVU117
 576              		.loc 1 659 7 is_stmt 0 view .LVU118
 577 0008 0128     		cmp	r0, #1
 578 000a 08D0     		beq	.L42
 660:Core/Src/lte.c ****     {
 661:Core/Src/lte.c ****         retval++;
 662:Core/Src/lte.c ****     }
 663:Core/Src/lte.c ****     else
 664:Core/Src/lte.c ****     {
 665:Core/Src/lte.c ****         /* OK  ,  status  */
 666:Core/Src/lte.c ****         fail_counter++;
 579              		.loc 1 666 9 is_stmt 1 view .LVU119
 580              		.loc 1 666 21 is_stmt 0 view .LVU120
 581 000c 074A     		ldr	r2, .L44
 582 000e 1378     		ldrb	r3, [r2]	@ zero_extendqisi2
 583 0010 0133     		adds	r3, r3, #1
 584 0012 DBB2     		uxtb	r3, r3
 585 0014 1370     		strb	r3, [r2]
 667:Core/Src/lte.c ****         if(fail_counter > 10)
 586              		.loc 1 667 9 is_stmt 1 view .LVU121
 587              		.loc 1 667 11 is_stmt 0 view .LVU122
 588 0016 0A2B     		cmp	r3, #10
 589 0018 04D8     		bhi	.L43
 590              	.LVL30:
 591              	.L40:
 668:Core/Src/lte.c ****         {
ARM GAS  C:\Users\jisu8\AppData\Local\Temp\ccJqhSXE.s 			page 25


 669:Core/Src/lte.c ****             HAL_NVIC_SystemReset();
 670:Core/Src/lte.c ****         }
 671:Core/Src/lte.c ****     }
 672:Core/Src/lte.c **** 
 673:Core/Src/lte.c ****     return retval;
 592              		.loc 1 673 5 is_stmt 1 view .LVU123
 674:Core/Src/lte.c **** }
 593              		.loc 1 674 1 is_stmt 0 view .LVU124
 594 001a 2046     		mov	r0, r4
 595 001c 10BD     		pop	{r4, pc}
 596              	.LVL31:
 597              	.L42:
 661:Core/Src/lte.c ****     }
 598              		.loc 1 661 9 is_stmt 1 view .LVU125
 661:Core/Src/lte.c ****     }
 599              		.loc 1 661 15 is_stmt 0 view .LVU126
 600 001e 0134     		adds	r4, r4, #1
 601              	.LVL32:
 661:Core/Src/lte.c ****     }
 602              		.loc 1 661 15 view .LVU127
 603 0020 E4B2     		uxtb	r4, r4
 604              	.LVL33:
 661:Core/Src/lte.c ****     }
 605              		.loc 1 661 15 view .LVU128
 606 0022 FAE7     		b	.L40
 607              	.L43:
 669:Core/Src/lte.c ****         }
 608              		.loc 1 669 13 is_stmt 1 view .LVU129
 609 0024 FFF7FEFF 		bl	HAL_NVIC_SystemReset
 610              	.LVL34:
 669:Core/Src/lte.c ****         }
 611              		.loc 1 669 13 is_stmt 0 view .LVU130
 612 0028 F7E7     		b	.L40
 613              	.L45:
 614 002a 00BF     		.align	2
 615              	.L44:
 616 002c 00000000 		.word	.LANCHOR18
 617              		.cfi_endproc
 618              	.LFE141:
 620              		.section	.text.LTE_GPS_Receive_Data,"ax",%progbits
 621              		.align	1
 622              		.syntax unified
 623              		.thumb
 624              		.thumb_func
 626              	LTE_GPS_Receive_Data:
 627              	.LVL35:
 628              	.LFB143:
 675:Core/Src/lte.c **** 
 676:Core/Src/lte.c **** static void LTE_MQTT_Convert_Buffer(uint8_t *buf)
 677:Core/Src/lte.c **** {
 678:Core/Src/lte.c ****     uint8_t convert_buf[1024] = {0,};
 679:Core/Src/lte.c ****     uint8_t header[] = "AT+UMQTTSNC=4,1,0,1,0,\"1\",\"";
 680:Core/Src/lte.c ****     uint8_t end[] = "\"\r\n";
 681:Core/Src/lte.c ****     
 682:Core/Src/lte.c ****     for(uint16_t i = 0; i < strlen(LTE_ASCII_Buffer); i++)
 683:Core/Src/lte.c ****     {
 684:Core/Src/lte.c ****         sprintf(&convert_buf[2*i],"%x",LTE_ASCII_Buffer[i]);
ARM GAS  C:\Users\jisu8\AppData\Local\Temp\ccJqhSXE.s 			page 26


 685:Core/Src/lte.c ****     }
 686:Core/Src/lte.c **** 
 687:Core/Src/lte.c ****     memcpy(buf,header,strlen(header));
 688:Core/Src/lte.c ****     memcpy(&buf[strlen(header)],convert_buf,strlen(convert_buf));
 689:Core/Src/lte.c ****     memcpy(&buf[strlen(buf)],end,strlen(end));
 690:Core/Src/lte.c **** }
 691:Core/Src/lte.c **** 
 692:Core/Src/lte.c **** static uint8_t LTE_GPS_Receive_Data(uint8_t status)
 693:Core/Src/lte.c **** {
 629              		.loc 1 693 1 is_stmt 1 view -0
 630              		.cfi_startproc
 631              		@ args = 0, pretend = 0, frame = 0
 632              		@ frame_needed = 0, uses_anonymous_args = 0
 633              		.loc 1 693 1 is_stmt 0 view .LVU132
 634 0000 2DE9F843 		push	{r3, r4, r5, r6, r7, r8, r9, lr}
 635              	.LCFI7:
 636              		.cfi_def_cfa_offset 32
 637              		.cfi_offset 3, -32
 638              		.cfi_offset 4, -28
 639              		.cfi_offset 5, -24
 640              		.cfi_offset 6, -20
 641              		.cfi_offset 7, -16
 642              		.cfi_offset 8, -12
 643              		.cfi_offset 9, -8
 644              		.cfi_offset 14, -4
 645 0004 0446     		mov	r4, r0
 694:Core/Src/lte.c ****     uint8_t retval = status;
 646              		.loc 1 694 5 is_stmt 1 view .LVU133
 647              	.LVL36:
 695:Core/Src/lte.c **** 
 696:Core/Src/lte.c ****     if(LTE_GPS_STEP_ULOC == status)
 648              		.loc 1 696 5 view .LVU134
 649              		.loc 1 696 7 is_stmt 0 view .LVU135
 650 0006 0228     		cmp	r0, #2
 651 0008 06D0     		beq	.L60
 697:Core/Src/lte.c ****     {
 698:Core/Src/lte.c ****         if(LTE_Rx_Counter>0)
 699:Core/Src/lte.c ****         {
 700:Core/Src/lte.c ****             for(uint16_t i = 0; i < LTE_RX_BUFFER_SIZE; i++)
 701:Core/Src/lte.c ****             {
 702:Core/Src/lte.c ****                 if((LTE_Rx_Buffer[i] == 'O') && (LTE_Rx_Buffer[i+1] == 'K') && (LTE_Rx_Buffer[i+2] 
 703:Core/Src/lte.c ****                 {
 704:Core/Src/lte.c ****                     HAL_UART_Transmit(&huart3,&LTE_Rx_Buffer[i],4,100);
 705:Core/Src/lte.c ****                     retval++;
 706:Core/Src/lte.c ****                     break;
 707:Core/Src/lte.c ****                 }
 708:Core/Src/lte.c ****             }    
 709:Core/Src/lte.c ****         }
 710:Core/Src/lte.c ****     }
 711:Core/Src/lte.c ****     else
 712:Core/Src/lte.c ****     {
 713:Core/Src/lte.c ****         if(LTE_Rx_Counter>0)
 652              		.loc 1 713 9 is_stmt 1 view .LVU136
 653              		.loc 1 713 26 is_stmt 0 view .LVU137
 654 000a 414B     		ldr	r3, .L62
 655 000c 1B88     		ldrh	r3, [r3]
 656              		.loc 1 713 11 view .LVU138
ARM GAS  C:\Users\jisu8\AppData\Local\Temp\ccJqhSXE.s 			page 27


 657 000e 002B     		cmp	r3, #0
 658 0010 7CD1     		bne	.L57
 659              	.LVL37:
 660              	.L49:
 714:Core/Src/lte.c ****         {
 715:Core/Src/lte.c ****             for(uint16_t i = 0; i < LTE_RX_BUFFER_SIZE; i++)
 716:Core/Src/lte.c ****             {
 717:Core/Src/lte.c ****                 if((LTE_Rx_Buffer[i] == '+') && (LTE_Rx_Buffer[i+1] == 'U') && (LTE_Rx_Buffer[i+2] 
 718:Core/Src/lte.c ****                 {
 719:Core/Src/lte.c ****                     HAL_UART_Transmit(&huart3,&LTE_Rx_Buffer[i],strlen(&LTE_Rx_Buffer[i]),100);
 720:Core/Src/lte.c ****                     memcpy(LTE_GPS_Buffer,&LTE_Rx_Buffer[i+8],(LTE_Rx_Counter - i));
 721:Core/Src/lte.c ****                     memset(LTE_Rx_Buffer,0x00,LTE_Rx_Counter);
 722:Core/Src/lte.c ****                     LTE_Rx_Counter = 0;
 723:Core/Src/lte.c ****                     if((LTE_GPS_Buffer[6] == '2') && (LTE_GPS_Buffer[7] == '0') && (LTE_GPS_Buffer[
 724:Core/Src/lte.c ****                     {
 725:Core/Src/lte.c ****                         retval = 0;
 726:Core/Src/lte.c ****                     }
 727:Core/Src/lte.c ****                     else
 728:Core/Src/lte.c ****                     {
 729:Core/Src/lte.c ****                         retval++;
 730:Core/Src/lte.c ****                     }
 731:Core/Src/lte.c ****                     break;
 732:Core/Src/lte.c ****                 }
 733:Core/Src/lte.c ****             }    
 734:Core/Src/lte.c ****         }
 735:Core/Src/lte.c ****     }
 736:Core/Src/lte.c **** 
 737:Core/Src/lte.c ****     return retval;
 661              		.loc 1 737 5 is_stmt 1 view .LVU139
 738:Core/Src/lte.c **** }
 662              		.loc 1 738 1 is_stmt 0 view .LVU140
 663 0012 2046     		mov	r0, r4
 664 0014 BDE8F883 		pop	{r3, r4, r5, r6, r7, r8, r9, pc}
 665              	.LVL38:
 666              	.L60:
 698:Core/Src/lte.c ****         {
 667              		.loc 1 698 9 is_stmt 1 view .LVU141
 698:Core/Src/lte.c ****         {
 668              		.loc 1 698 26 is_stmt 0 view .LVU142
 669 0018 3D4B     		ldr	r3, .L62
 670 001a 1B88     		ldrh	r3, [r3]
 698:Core/Src/lte.c ****         {
 671              		.loc 1 698 11 view .LVU143
 672 001c 002B     		cmp	r3, #0
 673 001e F8D0     		beq	.L49
 674              	.LBB3:
 700:Core/Src/lte.c ****             {
 675              		.loc 1 700 26 view .LVU144
 676 0020 0023     		movs	r3, #0
 677 0022 01E0     		b	.L48
 678              	.LVL39:
 679              	.L50:
 700:Core/Src/lte.c ****             {
 680              		.loc 1 700 57 is_stmt 1 discriminator 2 view .LVU145
 700:Core/Src/lte.c ****             {
 681              		.loc 1 700 58 is_stmt 0 discriminator 2 view .LVU146
 682 0024 0133     		adds	r3, r3, #1
ARM GAS  C:\Users\jisu8\AppData\Local\Temp\ccJqhSXE.s 			page 28


 683              	.LVL40:
 700:Core/Src/lte.c ****             {
 684              		.loc 1 700 58 discriminator 2 view .LVU147
 685 0026 9BB2     		uxth	r3, r3
 686              	.LVL41:
 687              	.L48:
 700:Core/Src/lte.c ****             {
 688              		.loc 1 700 33 is_stmt 1 discriminator 1 view .LVU148
 700:Core/Src/lte.c ****             {
 689              		.loc 1 700 13 is_stmt 0 discriminator 1 view .LVU149
 690 0028 B3F5806F 		cmp	r3, #1024
 691 002c F1D2     		bcs	.L49
 702:Core/Src/lte.c ****                 {
 692              		.loc 1 702 17 is_stmt 1 view .LVU150
 702:Core/Src/lte.c ****                 {
 693              		.loc 1 702 34 is_stmt 0 view .LVU151
 694 002e 1946     		mov	r1, r3
 695 0030 384A     		ldr	r2, .L62+4
 696 0032 D25C     		ldrb	r2, [r2, r3]	@ zero_extendqisi2
 702:Core/Src/lte.c ****                 {
 697              		.loc 1 702 19 view .LVU152
 698 0034 4F2A     		cmp	r2, #79
 699 0036 F5D1     		bne	.L50
 702:Core/Src/lte.c ****                 {
 700              		.loc 1 702 65 discriminator 1 view .LVU153
 701 0038 5A1C     		adds	r2, r3, #1
 702:Core/Src/lte.c ****                 {
 702              		.loc 1 702 63 discriminator 1 view .LVU154
 703 003a 3648     		ldr	r0, .L62+4
 704 003c 825C     		ldrb	r2, [r0, r2]	@ zero_extendqisi2
 702:Core/Src/lte.c ****                 {
 705              		.loc 1 702 46 discriminator 1 view .LVU155
 706 003e 4B2A     		cmp	r2, #75
 707 0040 F0D1     		bne	.L50
 702:Core/Src/lte.c ****                 {
 708              		.loc 1 702 96 discriminator 2 view .LVU156
 709 0042 9A1C     		adds	r2, r3, #2
 702:Core/Src/lte.c ****                 {
 710              		.loc 1 702 94 discriminator 2 view .LVU157
 711 0044 825C     		ldrb	r2, [r0, r2]	@ zero_extendqisi2
 702:Core/Src/lte.c ****                 {
 712              		.loc 1 702 77 discriminator 2 view .LVU158
 713 0046 0D2A     		cmp	r2, #13
 714 0048 ECD1     		bne	.L50
 702:Core/Src/lte.c ****                 {
 715              		.loc 1 702 128 discriminator 3 view .LVU159
 716 004a DA1C     		adds	r2, r3, #3
 702:Core/Src/lte.c ****                 {
 717              		.loc 1 702 126 discriminator 3 view .LVU160
 718 004c 825C     		ldrb	r2, [r0, r2]	@ zero_extendqisi2
 702:Core/Src/lte.c ****                 {
 719              		.loc 1 702 109 discriminator 3 view .LVU161
 720 004e 0A2A     		cmp	r2, #10
 721 0050 E8D1     		bne	.L50
 704:Core/Src/lte.c ****                     retval++;
 722              		.loc 1 704 21 is_stmt 1 view .LVU162
 723 0052 6423     		movs	r3, #100
ARM GAS  C:\Users\jisu8\AppData\Local\Temp\ccJqhSXE.s 			page 29


 724              	.LVL42:
 704:Core/Src/lte.c ****                     retval++;
 725              		.loc 1 704 21 is_stmt 0 view .LVU163
 726 0054 0422     		movs	r2, #4
 727 0056 0144     		add	r1, r1, r0
 728 0058 2F48     		ldr	r0, .L62+8
 729 005a FFF7FEFF 		bl	HAL_UART_Transmit
 730              	.LVL43:
 705:Core/Src/lte.c ****                     break;
 731              		.loc 1 705 21 is_stmt 1 view .LVU164
 705:Core/Src/lte.c ****                     break;
 732              		.loc 1 705 27 is_stmt 0 view .LVU165
 733 005e 0134     		adds	r4, r4, #1
 734 0060 E4B2     		uxtb	r4, r4
 735              	.LVL44:
 706:Core/Src/lte.c ****                 }
 736              		.loc 1 706 21 is_stmt 1 view .LVU166
 737 0062 D6E7     		b	.L49
 738              	.LVL45:
 739              	.L61:
 706:Core/Src/lte.c ****                 }
 740              		.loc 1 706 21 is_stmt 0 view .LVU167
 741              	.LBE3:
 742              	.LBB4:
 723:Core/Src/lte.c ****                     {
 743              		.loc 1 723 69 discriminator 1 view .LVU168
 744 0064 FB79     		ldrb	r3, [r7, #7]	@ zero_extendqisi2
 723:Core/Src/lte.c ****                     {
 745              		.loc 1 723 51 discriminator 1 view .LVU169
 746 0066 302B     		cmp	r3, #48
 747 0068 4DD1     		bne	.L54
 723:Core/Src/lte.c ****                     {
 748              		.loc 1 723 99 discriminator 2 view .LVU170
 749 006a 3B7A     		ldrb	r3, [r7, #8]	@ zero_extendqisi2
 723:Core/Src/lte.c ****                     {
 750              		.loc 1 723 81 discriminator 2 view .LVU171
 751 006c 312B     		cmp	r3, #49
 752 006e 4AD1     		bne	.L54
 723:Core/Src/lte.c ****                     {
 753              		.loc 1 723 129 discriminator 3 view .LVU172
 754 0070 7B7A     		ldrb	r3, [r7, #9]	@ zero_extendqisi2
 723:Core/Src/lte.c ****                     {
 755              		.loc 1 723 111 discriminator 3 view .LVU173
 756 0072 352B     		cmp	r3, #53
 757 0074 47D1     		bne	.L54
 725:Core/Src/lte.c ****                     }
 758              		.loc 1 725 32 view .LVU174
 759 0076 0024     		movs	r4, #0
 760 0078 CBE7     		b	.L49
 761              	.LVL46:
 762              	.L53:
 715:Core/Src/lte.c ****             {
 763              		.loc 1 715 57 is_stmt 1 discriminator 2 view .LVU175
 715:Core/Src/lte.c ****             {
 764              		.loc 1 715 58 is_stmt 0 discriminator 2 view .LVU176
 765 007a 0133     		adds	r3, r3, #1
 766              	.LVL47:
ARM GAS  C:\Users\jisu8\AppData\Local\Temp\ccJqhSXE.s 			page 30


 715:Core/Src/lte.c ****             {
 767              		.loc 1 715 58 discriminator 2 view .LVU177
 768 007c 9BB2     		uxth	r3, r3
 769              	.LVL48:
 770              	.L52:
 715:Core/Src/lte.c ****             {
 771              		.loc 1 715 33 is_stmt 1 discriminator 1 view .LVU178
 715:Core/Src/lte.c ****             {
 772              		.loc 1 715 13 is_stmt 0 discriminator 1 view .LVU179
 773 007e B3F5806F 		cmp	r3, #1024
 774 0082 C6D2     		bcs	.L49
 717:Core/Src/lte.c ****                 {
 775              		.loc 1 717 17 is_stmt 1 view .LVU180
 717:Core/Src/lte.c ****                 {
 776              		.loc 1 717 34 is_stmt 0 view .LVU181
 777 0084 1D46     		mov	r5, r3
 778 0086 234A     		ldr	r2, .L62+4
 779 0088 D25C     		ldrb	r2, [r2, r3]	@ zero_extendqisi2
 717:Core/Src/lte.c ****                 {
 780              		.loc 1 717 19 view .LVU182
 781 008a 2B2A     		cmp	r2, #43
 782 008c F5D1     		bne	.L53
 717:Core/Src/lte.c ****                 {
 783              		.loc 1 717 65 discriminator 1 view .LVU183
 784 008e 5A1C     		adds	r2, r3, #1
 717:Core/Src/lte.c ****                 {
 785              		.loc 1 717 63 discriminator 1 view .LVU184
 786 0090 2049     		ldr	r1, .L62+4
 787 0092 8A5C     		ldrb	r2, [r1, r2]	@ zero_extendqisi2
 717:Core/Src/lte.c ****                 {
 788              		.loc 1 717 46 discriminator 1 view .LVU185
 789 0094 552A     		cmp	r2, #85
 790 0096 F0D1     		bne	.L53
 717:Core/Src/lte.c ****                 {
 791              		.loc 1 717 96 discriminator 2 view .LVU186
 792 0098 9A1C     		adds	r2, r3, #2
 717:Core/Src/lte.c ****                 {
 793              		.loc 1 717 94 discriminator 2 view .LVU187
 794 009a 8A5C     		ldrb	r2, [r1, r2]	@ zero_extendqisi2
 717:Core/Src/lte.c ****                 {
 795              		.loc 1 717 77 discriminator 2 view .LVU188
 796 009c 552A     		cmp	r2, #85
 797 009e ECD1     		bne	.L53
 717:Core/Src/lte.c ****                 {
 798              		.loc 1 717 127 discriminator 3 view .LVU189
 799 00a0 DA1C     		adds	r2, r3, #3
 717:Core/Src/lte.c ****                 {
 800              		.loc 1 717 125 discriminator 3 view .LVU190
 801 00a2 8A5C     		ldrb	r2, [r1, r2]	@ zero_extendqisi2
 717:Core/Src/lte.c ****                 {
 802              		.loc 1 717 108 discriminator 3 view .LVU191
 803 00a4 4C2A     		cmp	r2, #76
 804 00a6 E8D1     		bne	.L53
 717:Core/Src/lte.c ****                 {
 805              		.loc 1 717 158 discriminator 4 view .LVU192
 806 00a8 1A1D     		adds	r2, r3, #4
 717:Core/Src/lte.c ****                 {
ARM GAS  C:\Users\jisu8\AppData\Local\Temp\ccJqhSXE.s 			page 31


 807              		.loc 1 717 156 discriminator 4 view .LVU193
 808 00aa 8A5C     		ldrb	r2, [r1, r2]	@ zero_extendqisi2
 717:Core/Src/lte.c ****                 {
 809              		.loc 1 717 139 discriminator 4 view .LVU194
 810 00ac 4F2A     		cmp	r2, #79
 811 00ae E4D1     		bne	.L53
 717:Core/Src/lte.c ****                 {
 812              		.loc 1 717 189 discriminator 5 view .LVU195
 813 00b0 5A1D     		adds	r2, r3, #5
 717:Core/Src/lte.c ****                 {
 814              		.loc 1 717 187 discriminator 5 view .LVU196
 815 00b2 8A5C     		ldrb	r2, [r1, r2]	@ zero_extendqisi2
 717:Core/Src/lte.c ****                 {
 816              		.loc 1 717 170 discriminator 5 view .LVU197
 817 00b4 432A     		cmp	r2, #67
 818 00b6 E0D1     		bne	.L53
 717:Core/Src/lte.c ****                 {
 819              		.loc 1 717 220 discriminator 6 view .LVU198
 820 00b8 9A1D     		adds	r2, r3, #6
 717:Core/Src/lte.c ****                 {
 821              		.loc 1 717 218 discriminator 6 view .LVU199
 822 00ba 8A5C     		ldrb	r2, [r1, r2]	@ zero_extendqisi2
 717:Core/Src/lte.c ****                 {
 823              		.loc 1 717 201 discriminator 6 view .LVU200
 824 00bc 3A2A     		cmp	r2, #58
 825 00be DCD1     		bne	.L53
 719:Core/Src/lte.c ****                     memcpy(LTE_GPS_Buffer,&LTE_Rx_Buffer[i+8],(LTE_Rx_Counter - i));
 826              		.loc 1 719 21 is_stmt 1 view .LVU201
 827 00c0 0E46     		mov	r6, r1
 828 00c2 CF18     		adds	r7, r1, r3
 719:Core/Src/lte.c ****                     memcpy(LTE_GPS_Buffer,&LTE_Rx_Buffer[i+8],(LTE_Rx_Counter - i));
 829              		.loc 1 719 65 is_stmt 0 view .LVU202
 830 00c4 3846     		mov	r0, r7
 831              	.LVL49:
 719:Core/Src/lte.c ****                     memcpy(LTE_GPS_Buffer,&LTE_Rx_Buffer[i+8],(LTE_Rx_Counter - i));
 832              		.loc 1 719 65 view .LVU203
 833 00c6 FFF7FEFF 		bl	strlen
 834              	.LVL50:
 719:Core/Src/lte.c ****                     memcpy(LTE_GPS_Buffer,&LTE_Rx_Buffer[i+8],(LTE_Rx_Counter - i));
 835              		.loc 1 719 21 view .LVU204
 836 00ca 6423     		movs	r3, #100
 837 00cc 82B2     		uxth	r2, r0
 838 00ce 3946     		mov	r1, r7
 839 00d0 1148     		ldr	r0, .L62+8
 840 00d2 FFF7FEFF 		bl	HAL_UART_Transmit
 841              	.LVL51:
 720:Core/Src/lte.c ****                     memset(LTE_Rx_Buffer,0x00,LTE_Rx_Counter);
 842              		.loc 1 720 21 is_stmt 1 view .LVU205
 720:Core/Src/lte.c ****                     memset(LTE_Rx_Buffer,0x00,LTE_Rx_Counter);
 843              		.loc 1 720 59 is_stmt 0 view .LVU206
 844 00d6 05F10801 		add	r1, r5, #8
 720:Core/Src/lte.c ****                     memset(LTE_Rx_Buffer,0x00,LTE_Rx_Counter);
 845              		.loc 1 720 79 view .LVU207
 846 00da DFF83480 		ldr	r8, .L62
 847 00de B8F80090 		ldrh	r9, [r8]
 720:Core/Src/lte.c ****                     memset(LTE_Rx_Buffer,0x00,LTE_Rx_Counter);
 848              		.loc 1 720 21 view .LVU208
ARM GAS  C:\Users\jisu8\AppData\Local\Temp\ccJqhSXE.s 			page 32


 849 00e2 0E4F     		ldr	r7, .L62+12
 850 00e4 A9EB0502 		sub	r2, r9, r5
 851 00e8 3144     		add	r1, r1, r6
 852 00ea 3846     		mov	r0, r7
 853 00ec FFF7FEFF 		bl	memcpy
 854              	.LVL52:
 721:Core/Src/lte.c ****                     LTE_Rx_Counter = 0;
 855              		.loc 1 721 21 is_stmt 1 view .LVU209
 856 00f0 4A46     		mov	r2, r9
 857 00f2 0021     		movs	r1, #0
 858 00f4 3046     		mov	r0, r6
 859 00f6 FFF7FEFF 		bl	memset
 860              	.LVL53:
 722:Core/Src/lte.c ****                     if((LTE_GPS_Buffer[6] == '2') && (LTE_GPS_Buffer[7] == '0') && (LTE_GPS_Buffer[
 861              		.loc 1 722 21 view .LVU210
 722:Core/Src/lte.c ****                     if((LTE_GPS_Buffer[6] == '2') && (LTE_GPS_Buffer[7] == '0') && (LTE_GPS_Buffer[
 862              		.loc 1 722 36 is_stmt 0 view .LVU211
 863 00fa 0023     		movs	r3, #0
 864 00fc A8F80030 		strh	r3, [r8]	@ movhi
 723:Core/Src/lte.c ****                     {
 865              		.loc 1 723 21 is_stmt 1 view .LVU212
 723:Core/Src/lte.c ****                     {
 866              		.loc 1 723 39 is_stmt 0 view .LVU213
 867 0100 BB79     		ldrb	r3, [r7, #6]	@ zero_extendqisi2
 723:Core/Src/lte.c ****                     {
 868              		.loc 1 723 23 view .LVU214
 869 0102 322B     		cmp	r3, #50
 870 0104 AED0     		beq	.L61
 871              	.L54:
 729:Core/Src/lte.c ****                     }
 872              		.loc 1 729 25 is_stmt 1 view .LVU215
 729:Core/Src/lte.c ****                     }
 873              		.loc 1 729 31 is_stmt 0 view .LVU216
 874 0106 0134     		adds	r4, r4, #1
 875 0108 E4B2     		uxtb	r4, r4
 876              	.LVL54:
 729:Core/Src/lte.c ****                     }
 877              		.loc 1 729 31 view .LVU217
 878 010a 82E7     		b	.L49
 879              	.LVL55:
 880              	.L57:
 715:Core/Src/lte.c ****             {
 881              		.loc 1 715 26 view .LVU218
 882 010c 0023     		movs	r3, #0
 883 010e B6E7     		b	.L52
 884              	.L63:
 885              		.align	2
 886              	.L62:
 887 0110 00000000 		.word	.LANCHOR16
 888 0114 00000000 		.word	.LANCHOR17
 889 0118 00000000 		.word	huart3
 890 011c 00000000 		.word	.LANCHOR19
 891              	.LBE4:
 892              		.cfi_endproc
 893              	.LFE143:
 895              		.section	.text.LTE_GPS_Update_Data,"ax",%progbits
 896              		.align	1
ARM GAS  C:\Users\jisu8\AppData\Local\Temp\ccJqhSXE.s 			page 33


 897              		.syntax unified
 898              		.thumb
 899              		.thumb_func
 901              	LTE_GPS_Update_Data:
 902              	.LVL56:
 903              	.LFB144:
 739:Core/Src/lte.c **** 
 740:Core/Src/lte.c **** static uint8_t LTE_GPS_Update_Data(uint8_t status)
 741:Core/Src/lte.c **** {
 904              		.loc 1 741 1 is_stmt 1 view -0
 905              		.cfi_startproc
 906              		@ args = 0, pretend = 0, frame = 24
 907              		@ frame_needed = 0, uses_anonymous_args = 0
 908              		.loc 1 741 1 is_stmt 0 view .LVU220
 909 0000 70B5     		push	{r4, r5, r6, lr}
 910              	.LCFI8:
 911              		.cfi_def_cfa_offset 16
 912              		.cfi_offset 4, -16
 913              		.cfi_offset 5, -12
 914              		.cfi_offset 6, -8
 915              		.cfi_offset 14, -4
 916 0002 86B0     		sub	sp, sp, #24
 917              	.LCFI9:
 918              		.cfi_def_cfa_offset 40
 919 0004 0446     		mov	r4, r0
 742:Core/Src/lte.c ****     uint8_t retval = status;
 920              		.loc 1 742 5 is_stmt 1 view .LVU221
 921              	.LVL57:
 743:Core/Src/lte.c ****     uint8_t lat_length=0;
 922              		.loc 1 743 5 view .LVU222
 744:Core/Src/lte.c ****     uint8_t long_length=0;
 923              		.loc 1 744 5 view .LVU223
 745:Core/Src/lte.c ****     RTC_TimeTypeDef Time = {0};
 924              		.loc 1 745 5 view .LVU224
 925              		.loc 1 745 21 is_stmt 0 view .LVU225
 926 0006 0025     		movs	r5, #0
 927 0008 0195     		str	r5, [sp, #4]
 928 000a 0295     		str	r5, [sp, #8]
 929 000c 0395     		str	r5, [sp, #12]
 930 000e 0495     		str	r5, [sp, #16]
 931 0010 0595     		str	r5, [sp, #20]
 746:Core/Src/lte.c ****     RTC_DateTypeDef Date = {0};
 932              		.loc 1 746 5 is_stmt 1 view .LVU226
 933              		.loc 1 746 21 is_stmt 0 view .LVU227
 934 0012 0095     		str	r5, [sp]
 747:Core/Src/lte.c **** 
 748:Core/Src/lte.c ****     Date.Date = ((LTE_GPS_Buffer[0] - 0x30) * 10 + (LTE_GPS_Buffer[1] - 0x30));
 935              		.loc 1 748 5 is_stmt 1 view .LVU228
 936              		.loc 1 748 33 is_stmt 0 view .LVU229
 937 0014 A14B     		ldr	r3, .L87
 938 0016 1978     		ldrb	r1, [r3]	@ zero_extendqisi2
 939              		.loc 1 748 67 view .LVU230
 940 0018 5A78     		ldrb	r2, [r3, #1]	@ zero_extendqisi2
 941              		.loc 1 748 50 view .LVU231
 942 001a 01EB8101 		add	r1, r1, r1, lsl #2
 943 001e 02EB4102 		add	r2, r2, r1, lsl #1
 944 0022 103A     		subs	r2, r2, #16
ARM GAS  C:\Users\jisu8\AppData\Local\Temp\ccJqhSXE.s 			page 34


 945              		.loc 1 748 15 view .LVU232
 946 0024 8DF80220 		strb	r2, [sp, #2]
 749:Core/Src/lte.c ****     Date.Month = ((LTE_GPS_Buffer[3] - 0x30) * 10 + (LTE_GPS_Buffer[4] - 0x30));
 947              		.loc 1 749 5 is_stmt 1 view .LVU233
 948              		.loc 1 749 34 is_stmt 0 view .LVU234
 949 0028 D978     		ldrb	r1, [r3, #3]	@ zero_extendqisi2
 950              		.loc 1 749 68 view .LVU235
 951 002a 1A79     		ldrb	r2, [r3, #4]	@ zero_extendqisi2
 952              		.loc 1 749 51 view .LVU236
 953 002c 01EB8101 		add	r1, r1, r1, lsl #2
 954 0030 02EB4102 		add	r2, r2, r1, lsl #1
 955 0034 103A     		subs	r2, r2, #16
 956              		.loc 1 749 16 view .LVU237
 957 0036 8DF80120 		strb	r2, [sp, #1]
 750:Core/Src/lte.c ****     Date.Year = ((LTE_GPS_Buffer[8] - 0x30) * 10 + (LTE_GPS_Buffer[9] - 0x30));
 958              		.loc 1 750 5 is_stmt 1 view .LVU238
 959              		.loc 1 750 33 is_stmt 0 view .LVU239
 960 003a 197A     		ldrb	r1, [r3, #8]	@ zero_extendqisi2
 961              		.loc 1 750 67 view .LVU240
 962 003c 5A7A     		ldrb	r2, [r3, #9]	@ zero_extendqisi2
 963              		.loc 1 750 50 view .LVU241
 964 003e 01EB8101 		add	r1, r1, r1, lsl #2
 965 0042 02EB4102 		add	r2, r2, r1, lsl #1
 966 0046 103A     		subs	r2, r2, #16
 967              		.loc 1 750 15 view .LVU242
 968 0048 8DF80320 		strb	r2, [sp, #3]
 751:Core/Src/lte.c ****     Time.Hours = ((LTE_GPS_Buffer[11] - 0x30) * 10 + (LTE_GPS_Buffer[12] - 0x30));
 969              		.loc 1 751 5 is_stmt 1 view .LVU243
 970              		.loc 1 751 34 is_stmt 0 view .LVU244
 971 004c D97A     		ldrb	r1, [r3, #11]	@ zero_extendqisi2
 972              		.loc 1 751 69 view .LVU245
 973 004e 1A7B     		ldrb	r2, [r3, #12]	@ zero_extendqisi2
 974              		.loc 1 751 52 view .LVU246
 975 0050 01EB8101 		add	r1, r1, r1, lsl #2
 976 0054 02EB4102 		add	r2, r2, r1, lsl #1
 977 0058 103A     		subs	r2, r2, #16
 978              		.loc 1 751 16 view .LVU247
 979 005a 8DF80420 		strb	r2, [sp, #4]
 752:Core/Src/lte.c ****     Time.Minutes = ((LTE_GPS_Buffer[14] - 0x30) * 10 + (LTE_GPS_Buffer[15] - 0x30));
 980              		.loc 1 752 5 is_stmt 1 view .LVU248
 981              		.loc 1 752 36 is_stmt 0 view .LVU249
 982 005e 997B     		ldrb	r1, [r3, #14]	@ zero_extendqisi2
 983              		.loc 1 752 71 view .LVU250
 984 0060 DA7B     		ldrb	r2, [r3, #15]	@ zero_extendqisi2
 985              		.loc 1 752 54 view .LVU251
 986 0062 01EB8101 		add	r1, r1, r1, lsl #2
 987 0066 02EB4102 		add	r2, r2, r1, lsl #1
 988 006a 103A     		subs	r2, r2, #16
 989              		.loc 1 752 18 view .LVU252
 990 006c 8DF80520 		strb	r2, [sp, #5]
 753:Core/Src/lte.c ****     Time.Seconds = ((LTE_GPS_Buffer[17] - 0x30) * 10 + (LTE_GPS_Buffer[18] - 0x30));
 991              		.loc 1 753 5 is_stmt 1 view .LVU253
 992              		.loc 1 753 36 is_stmt 0 view .LVU254
 993 0070 5A7C     		ldrb	r2, [r3, #17]	@ zero_extendqisi2
 994              		.loc 1 753 71 view .LVU255
 995 0072 9B7C     		ldrb	r3, [r3, #18]	@ zero_extendqisi2
 996              		.loc 1 753 54 view .LVU256
ARM GAS  C:\Users\jisu8\AppData\Local\Temp\ccJqhSXE.s 			page 35


 997 0074 02EB8202 		add	r2, r2, r2, lsl #2
 998 0078 03EB4203 		add	r3, r3, r2, lsl #1
 999 007c 103B     		subs	r3, r3, #16
 1000              		.loc 1 753 18 view .LVU257
 1001 007e 8DF80630 		strb	r3, [sp, #6]
 754:Core/Src/lte.c ****     HAL_RTC_SetTime(&hrtc, &Time, FORMAT_BIN);
 1002              		.loc 1 754 5 is_stmt 1 view .LVU258
 1003 0082 874E     		ldr	r6, .L87+4
 1004 0084 2A46     		mov	r2, r5
 1005 0086 01A9     		add	r1, sp, #4
 1006 0088 3046     		mov	r0, r6
 1007              	.LVL58:
 1008              		.loc 1 754 5 is_stmt 0 view .LVU259
 1009 008a FFF7FEFF 		bl	HAL_RTC_SetTime
 1010              	.LVL59:
 755:Core/Src/lte.c ****     HAL_RTC_SetDate(&hrtc, &Date, FORMAT_BIN);
 1011              		.loc 1 755 5 is_stmt 1 view .LVU260
 1012 008e 2A46     		mov	r2, r5
 1013 0090 6946     		mov	r1, sp
 1014 0092 3046     		mov	r0, r6
 1015 0094 FFF7FEFF 		bl	HAL_RTC_SetDate
 1016              	.LVL60:
 756:Core/Src/lte.c **** 
 757:Core/Src/lte.c ****     for(uint8_t i = 0; i < 3; i++)
 1017              		.loc 1 757 5 view .LVU261
 1018              	.LBB5:
 1019              		.loc 1 757 9 view .LVU262
 1020              		.loc 1 757 17 is_stmt 0 view .LVU263
 1021 0098 2B46     		mov	r3, r5
 1022              	.LBE5:
 743:Core/Src/lte.c ****     uint8_t long_length=0;
 1023              		.loc 1 743 13 view .LVU264
 1024 009a 2A46     		mov	r2, r5
 1025              	.LVL61:
 1026              	.L65:
 1027              	.LBB6:
 1028              		.loc 1 757 24 is_stmt 1 discriminator 1 view .LVU265
 1029              		.loc 1 757 5 is_stmt 0 discriminator 1 view .LVU266
 1030 009c 022B     		cmp	r3, #2
 1031 009e 0AD8     		bhi	.L66
 758:Core/Src/lte.c ****     {
 759:Core/Src/lte.c ****         if(LTE_GPS_Buffer[i+24] != '.')
 1032              		.loc 1 759 9 is_stmt 1 view .LVU267
 1033              		.loc 1 759 28 is_stmt 0 view .LVU268
 1034 00a0 03F11801 		add	r1, r3, #24
 1035              		.loc 1 759 26 view .LVU269
 1036 00a4 7D48     		ldr	r0, .L87
 1037 00a6 415C     		ldrb	r1, [r0, r1]	@ zero_extendqisi2
 1038              		.loc 1 759 11 view .LVU270
 1039 00a8 2E29     		cmp	r1, #46
 1040 00aa 04D0     		beq	.L66
 760:Core/Src/lte.c ****         {
 761:Core/Src/lte.c ****             lat_length++;
 1041              		.loc 1 761 13 is_stmt 1 discriminator 2 view .LVU271
 1042              		.loc 1 761 23 is_stmt 0 discriminator 2 view .LVU272
 1043 00ac 0132     		adds	r2, r2, #1
 1044              	.LVL62:
ARM GAS  C:\Users\jisu8\AppData\Local\Temp\ccJqhSXE.s 			page 36


 1045              		.loc 1 761 23 discriminator 2 view .LVU273
 1046 00ae D2B2     		uxtb	r2, r2
 1047              	.LVL63:
 757:Core/Src/lte.c ****     {
 1048              		.loc 1 757 31 is_stmt 1 discriminator 2 view .LVU274
 757:Core/Src/lte.c ****     {
 1049              		.loc 1 757 32 is_stmt 0 discriminator 2 view .LVU275
 1050 00b0 0133     		adds	r3, r3, #1
 1051              	.LVL64:
 757:Core/Src/lte.c ****     {
 1052              		.loc 1 757 32 discriminator 2 view .LVU276
 1053 00b2 DBB2     		uxtb	r3, r3
 1054              	.LVL65:
 757:Core/Src/lte.c ****     {
 1055              		.loc 1 757 32 discriminator 2 view .LVU277
 1056 00b4 F2E7     		b	.L65
 1057              	.L66:
 757:Core/Src/lte.c ****     {
 1058              		.loc 1 757 32 discriminator 2 view .LVU278
 1059              	.LBE6:
 762:Core/Src/lte.c ****         }
 763:Core/Src/lte.c ****         else
 764:Core/Src/lte.c ****         {
 765:Core/Src/lte.c ****             break;
 766:Core/Src/lte.c ****         }
 767:Core/Src/lte.c ****     }
 768:Core/Src/lte.c **** 
 769:Core/Src/lte.c ****     if(1 == lat_length)
 1060              		.loc 1 769 5 is_stmt 1 view .LVU279
 1061              		.loc 1 769 7 is_stmt 0 view .LVU280
 1062 00b6 012A     		cmp	r2, #1
 1063 00b8 07D0     		beq	.L80
 770:Core/Src/lte.c ****     {
 771:Core/Src/lte.c ****         LTE_GPS_LAT_I = (LTE_GPS_Buffer[24] - 0x30);
 772:Core/Src/lte.c ****     }
 773:Core/Src/lte.c ****     else if(2 == lat_length)
 1064              		.loc 1 773 10 is_stmt 1 view .LVU281
 1065              		.loc 1 773 12 is_stmt 0 view .LVU282
 1066 00ba 022A     		cmp	r2, #2
 1067 00bc 43D0     		beq	.L81
 774:Core/Src/lte.c ****     {
 775:Core/Src/lte.c ****         LTE_GPS_LAT_I = (LTE_GPS_Buffer[24] - 0x30) * 10 + (LTE_GPS_Buffer[25] - 0x30);  
 776:Core/Src/lte.c ****     }    
 777:Core/Src/lte.c ****     else if(3 == lat_length)
 1068              		.loc 1 777 10 is_stmt 1 view .LVU283
 1069              		.loc 1 777 12 is_stmt 0 view .LVU284
 1070 00be 032A     		cmp	r2, #3
 1071 00c0 4DD0     		beq	.L82
 778:Core/Src/lte.c ****     {
 779:Core/Src/lte.c ****         LTE_GPS_LAT_I = (LTE_GPS_Buffer[24] - 0x30) * 100 + (LTE_GPS_Buffer[25] - 0x30) * 10 + (LTE
 780:Core/Src/lte.c ****     }
 781:Core/Src/lte.c ****     else
 782:Core/Src/lte.c ****     {
 783:Core/Src/lte.c ****         LTE_GPS_LAT_I = 0;
 1072              		.loc 1 783 9 is_stmt 1 view .LVU285
 1073              		.loc 1 783 23 is_stmt 0 view .LVU286
 1074 00c2 784B     		ldr	r3, .L87+8
ARM GAS  C:\Users\jisu8\AppData\Local\Temp\ccJqhSXE.s 			page 37


 1075              	.LVL66:
 1076              		.loc 1 783 23 view .LVU287
 1077 00c4 0021     		movs	r1, #0
 1078 00c6 1980     		strh	r1, [r3]	@ movhi
 1079 00c8 04E0     		b	.L69
 1080              	.LVL67:
 1081              	.L80:
 771:Core/Src/lte.c ****     }
 1082              		.loc 1 771 9 is_stmt 1 view .LVU288
 771:Core/Src/lte.c ****     }
 1083              		.loc 1 771 40 is_stmt 0 view .LVU289
 1084 00ca 744B     		ldr	r3, .L87
 1085              	.LVL68:
 771:Core/Src/lte.c ****     }
 1086              		.loc 1 771 40 view .LVU290
 1087 00cc 1B7E     		ldrb	r3, [r3, #24]	@ zero_extendqisi2
 771:Core/Src/lte.c ****     }
 1088              		.loc 1 771 45 view .LVU291
 1089 00ce 303B     		subs	r3, r3, #48
 771:Core/Src/lte.c ****     }
 1090              		.loc 1 771 23 view .LVU292
 1091 00d0 7449     		ldr	r1, .L87+8
 1092 00d2 0B80     		strh	r3, [r1]	@ movhi
 1093              	.L69:
 784:Core/Src/lte.c ****     }
 785:Core/Src/lte.c ****     LTE_GPS_LAT_D = (LTE_GPS_Buffer[25+lat_length] - 0x30) * 1000000 + (LTE_GPS_Buffer[26+lat_lengt
 1094              		.loc 1 785 5 is_stmt 1 view .LVU293
 1095              		.loc 1 785 39 is_stmt 0 view .LVU294
 1096 00d4 1146     		mov	r1, r2
 1097 00d6 02F11903 		add	r3, r2, #25
 1098              		.loc 1 785 36 view .LVU295
 1099 00da 7048     		ldr	r0, .L87
 1100 00dc C35C     		ldrb	r3, [r0, r3]	@ zero_extendqisi2
 1101              		.loc 1 785 52 view .LVU296
 1102 00de A3F13005 		sub	r5, r3, #48
 1103              		.loc 1 785 90 view .LVU297
 1104 00e2 02F11A03 		add	r3, r2, #26
 1105              		.loc 1 785 87 view .LVU298
 1106 00e6 C35C     		ldrb	r3, [r0, r3]	@ zero_extendqisi2
 1107              		.loc 1 785 103 view .LVU299
 1108 00e8 303B     		subs	r3, r3, #48
 1109              		.loc 1 785 111 view .LVU300
 1110 00ea 6F4E     		ldr	r6, .L87+12
 1111 00ec 06FB03F3 		mul	r3, r6, r3
 1112              		.loc 1 785 70 view .LVU301
 1113 00f0 6E4E     		ldr	r6, .L87+16
 1114 00f2 06FB0533 		mla	r3, r6, r5, r3
 1115              		.loc 1 785 140 view .LVU302
 1116 00f6 02F11B05 		add	r5, r2, #27
 1117              		.loc 1 785 137 view .LVU303
 1118 00fa 455D     		ldrb	r5, [r0, r5]	@ zero_extendqisi2
 1119              		.loc 1 785 153 view .LVU304
 1120 00fc 303D     		subs	r5, r5, #48
 1121              		.loc 1 785 120 view .LVU305
 1122 00fe 42F21076 		movw	r6, #10000
 1123 0102 06FB0533 		mla	r3, r6, r5, r3
 786:Core/Src/lte.c ****                     (LTE_GPS_Buffer[28+lat_length] - 0x30) * 1000+ (LTE_GPS_Buffer[29+lat_length] -
ARM GAS  C:\Users\jisu8\AppData\Local\Temp\ccJqhSXE.s 			page 38


 1124              		.loc 1 786 39 view .LVU306
 1125 0106 02F11C05 		add	r5, r2, #28
 1126              		.loc 1 786 36 view .LVU307
 1127 010a 455D     		ldrb	r5, [r0, r5]	@ zero_extendqisi2
 1128              		.loc 1 786 52 view .LVU308
 1129 010c 303D     		subs	r5, r5, #48
 785:Core/Src/lte.c ****                     (LTE_GPS_Buffer[28+lat_length] - 0x30) * 1000+ (LTE_GPS_Buffer[29+lat_length] -
 1130              		.loc 1 785 169 view .LVU309
 1131 010e 4FF47A76 		mov	r6, #1000
 1132 0112 06FB0533 		mla	r3, r6, r5, r3
 1133              		.loc 1 786 86 view .LVU310
 1134 0116 02F11D05 		add	r5, r2, #29
 1135              		.loc 1 786 83 view .LVU311
 1136 011a 455D     		ldrb	r5, [r0, r5]	@ zero_extendqisi2
 1137              		.loc 1 786 99 view .LVU312
 1138 011c 303D     		subs	r5, r5, #48
 1139              		.loc 1 786 66 view .LVU313
 1140 011e 6426     		movs	r6, #100
 1141 0120 06FB0533 		mla	r3, r6, r5, r3
 1142              		.loc 1 786 133 view .LVU314
 1143 0124 02F11E05 		add	r5, r2, #30
 1144              		.loc 1 786 130 view .LVU315
 1145 0128 455D     		ldrb	r5, [r0, r5]	@ zero_extendqisi2
 1146              		.loc 1 786 146 view .LVU316
 1147 012a 303D     		subs	r5, r5, #48
 1148              		.loc 1 786 154 view .LVU317
 1149 012c 05EB8505 		add	r5, r5, r5, lsl #2
 1150              		.loc 1 786 113 view .LVU318
 1151 0130 03EB4503 		add	r3, r3, r5, lsl #1
 1152              		.loc 1 786 179 view .LVU319
 1153 0134 1F32     		adds	r2, r2, #31
 1154              	.LVL69:
 1155              		.loc 1 786 176 view .LVU320
 1156 0136 825C     		ldrb	r2, [r0, r2]	@ zero_extendqisi2
 1157              		.loc 1 786 192 view .LVU321
 1158 0138 303A     		subs	r2, r2, #48
 1159              		.loc 1 786 159 view .LVU322
 1160 013a 1344     		add	r3, r3, r2
 785:Core/Src/lte.c ****                     (LTE_GPS_Buffer[28+lat_length] - 0x30) * 1000+ (LTE_GPS_Buffer[29+lat_length] -
 1161              		.loc 1 785 19 view .LVU323
 1162 013c 5C4A     		ldr	r2, .L87+20
 1163 013e 1360     		str	r3, [r2]
 787:Core/Src/lte.c **** 
 788:Core/Src/lte.c ****     for(uint8_t i = 0; i < 3; i++)
 1164              		.loc 1 788 5 is_stmt 1 view .LVU324
 1165              	.LBB7:
 1166              		.loc 1 788 9 view .LVU325
 1167              	.LVL70:
 1168              		.loc 1 788 17 is_stmt 0 view .LVU326
 1169 0140 0023     		movs	r3, #0
 1170              	.LBE7:
 744:Core/Src/lte.c ****     RTC_TimeTypeDef Time = {0};
 1171              		.loc 1 744 13 view .LVU327
 1172 0142 1A46     		mov	r2, r3
 1173              	.LBB8:
 1174              		.loc 1 788 5 view .LVU328
 1175 0144 24E0     		b	.L72
ARM GAS  C:\Users\jisu8\AppData\Local\Temp\ccJqhSXE.s 			page 39


 1176              	.LVL71:
 1177              	.L81:
 1178              		.loc 1 788 5 view .LVU329
 1179              	.LBE8:
 775:Core/Src/lte.c ****     }    
 1180              		.loc 1 775 9 is_stmt 1 view .LVU330
 775:Core/Src/lte.c ****     }    
 1181              		.loc 1 775 40 is_stmt 0 view .LVU331
 1182 0146 5549     		ldr	r1, .L87
 1183 0148 0B7E     		ldrb	r3, [r1, #24]	@ zero_extendqisi2
 1184              	.LVL72:
 775:Core/Src/lte.c ****     }    
 1185              		.loc 1 775 45 view .LVU332
 1186 014a 303B     		subs	r3, r3, #48
 775:Core/Src/lte.c ****     }    
 1187              		.loc 1 775 75 view .LVU333
 1188 014c 497E     		ldrb	r1, [r1, #25]	@ zero_extendqisi2
 775:Core/Src/lte.c ****     }    
 1189              		.loc 1 775 58 view .LVU334
 1190 014e 03EB8303 		add	r3, r3, r3, lsl #2
 1191 0152 01EB4303 		add	r3, r1, r3, lsl #1
 1192 0156 303B     		subs	r3, r3, #48
 775:Core/Src/lte.c ****     }    
 1193              		.loc 1 775 23 view .LVU335
 1194 0158 5249     		ldr	r1, .L87+8
 1195 015a 0B80     		strh	r3, [r1]	@ movhi
 1196 015c BAE7     		b	.L69
 1197              	.LVL73:
 1198              	.L82:
 779:Core/Src/lte.c ****     }
 1199              		.loc 1 779 9 is_stmt 1 view .LVU336
 779:Core/Src/lte.c ****     }
 1200              		.loc 1 779 40 is_stmt 0 view .LVU337
 1201 015e 4F48     		ldr	r0, .L87
 1202 0160 017E     		ldrb	r1, [r0, #24]	@ zero_extendqisi2
 779:Core/Src/lte.c ****     }
 1203              		.loc 1 779 45 view .LVU338
 1204 0162 3039     		subs	r1, r1, #48
 779:Core/Src/lte.c ****     }
 1205              		.loc 1 779 76 view .LVU339
 1206 0164 437E     		ldrb	r3, [r0, #25]	@ zero_extendqisi2
 1207              	.LVL74:
 779:Core/Src/lte.c ****     }
 1208              		.loc 1 779 81 view .LVU340
 1209 0166 303B     		subs	r3, r3, #48
 779:Core/Src/lte.c ****     }
 1210              		.loc 1 779 59 view .LVU341
 1211 0168 01EB8101 		add	r1, r1, r1, lsl #2
 1212 016c 01EB8101 		add	r1, r1, r1, lsl #2
 1213 0170 03EB8303 		add	r3, r3, r3, lsl #2
 1214 0174 5B00     		lsls	r3, r3, #1
 1215 0176 03EB8103 		add	r3, r3, r1, lsl #2
 1216 017a 9BB2     		uxth	r3, r3
 779:Core/Src/lte.c ****     }
 1217              		.loc 1 779 111 view .LVU342
 1218 017c 817E     		ldrb	r1, [r0, #26]	@ zero_extendqisi2
 779:Core/Src/lte.c ****     }
ARM GAS  C:\Users\jisu8\AppData\Local\Temp\ccJqhSXE.s 			page 40


 1219              		.loc 1 779 94 view .LVU343
 1220 017e 0B44     		add	r3, r3, r1
 1221 0180 303B     		subs	r3, r3, #48
 779:Core/Src/lte.c ****     }
 1222              		.loc 1 779 23 view .LVU344
 1223 0182 4849     		ldr	r1, .L87+8
 1224 0184 0B80     		strh	r3, [r1]	@ movhi
 1225 0186 A5E7     		b	.L69
 1226              	.LVL75:
 1227              	.L83:
 1228              	.LBB9:
 789:Core/Src/lte.c ****     {
 790:Core/Src/lte.c ****         if(LTE_GPS_Buffer[i+33+lat_length] != '.')
 791:Core/Src/lte.c ****         {
 792:Core/Src/lte.c ****             long_length++;
 1229              		.loc 1 792 13 is_stmt 1 discriminator 2 view .LVU345
 1230              		.loc 1 792 24 is_stmt 0 discriminator 2 view .LVU346
 1231 0188 0132     		adds	r2, r2, #1
 1232              	.LVL76:
 1233              		.loc 1 792 24 discriminator 2 view .LVU347
 1234 018a D2B2     		uxtb	r2, r2
 1235              	.LVL77:
 788:Core/Src/lte.c ****     {
 1236              		.loc 1 788 31 is_stmt 1 discriminator 2 view .LVU348
 788:Core/Src/lte.c ****     {
 1237              		.loc 1 788 32 is_stmt 0 discriminator 2 view .LVU349
 1238 018c 0133     		adds	r3, r3, #1
 1239              	.LVL78:
 788:Core/Src/lte.c ****     {
 1240              		.loc 1 788 32 discriminator 2 view .LVU350
 1241 018e DBB2     		uxtb	r3, r3
 1242              	.LVL79:
 1243              	.L72:
 788:Core/Src/lte.c ****     {
 1244              		.loc 1 788 24 is_stmt 1 discriminator 1 view .LVU351
 788:Core/Src/lte.c ****     {
 1245              		.loc 1 788 5 is_stmt 0 discriminator 1 view .LVU352
 1246 0190 022B     		cmp	r3, #2
 1247 0192 06D8     		bhi	.L73
 790:Core/Src/lte.c ****         {
 1248              		.loc 1 790 9 is_stmt 1 view .LVU353
 790:Core/Src/lte.c ****         {
 1249              		.loc 1 790 28 is_stmt 0 view .LVU354
 1250 0194 03F12100 		add	r0, r3, #33
 790:Core/Src/lte.c ****         {
 1251              		.loc 1 790 31 view .LVU355
 1252 0198 0844     		add	r0, r0, r1
 790:Core/Src/lte.c ****         {
 1253              		.loc 1 790 26 view .LVU356
 1254 019a 404D     		ldr	r5, .L87
 1255 019c 285C     		ldrb	r0, [r5, r0]	@ zero_extendqisi2
 790:Core/Src/lte.c ****         {
 1256              		.loc 1 790 11 view .LVU357
 1257 019e 2E28     		cmp	r0, #46
 1258 01a0 F2D1     		bne	.L83
 1259              	.L73:
 1260              	.LBE9:
ARM GAS  C:\Users\jisu8\AppData\Local\Temp\ccJqhSXE.s 			page 41


 793:Core/Src/lte.c ****         }
 794:Core/Src/lte.c ****         else
 795:Core/Src/lte.c ****         {
 796:Core/Src/lte.c ****             break;
 797:Core/Src/lte.c ****         }
 798:Core/Src/lte.c ****     }
 799:Core/Src/lte.c **** 
 800:Core/Src/lte.c ****     if(1 == long_length)
 1261              		.loc 1 800 5 is_stmt 1 view .LVU358
 1262              		.loc 1 800 7 is_stmt 0 view .LVU359
 1263 01a2 012A     		cmp	r2, #1
 1264 01a4 07D0     		beq	.L84
 801:Core/Src/lte.c ****     {
 802:Core/Src/lte.c ****         LTE_GPS_LONG_I = (LTE_GPS_Buffer[33+lat_length] - 0x30);
 803:Core/Src/lte.c ****     }
 804:Core/Src/lte.c ****     else if(2 == long_length)
 1265              		.loc 1 804 10 is_stmt 1 view .LVU360
 1266              		.loc 1 804 12 is_stmt 0 view .LVU361
 1267 01a6 022A     		cmp	r2, #2
 1268 01a8 4CD0     		beq	.L85
 805:Core/Src/lte.c ****     {
 806:Core/Src/lte.c ****         LTE_GPS_LONG_I = (LTE_GPS_Buffer[33+lat_length] - 0x30) * 10 + (LTE_GPS_Buffer[34+lat_lengt
 807:Core/Src/lte.c ****     }    
 808:Core/Src/lte.c ****     else if(3 == long_length)
 1269              		.loc 1 808 10 is_stmt 1 view .LVU362
 1270              		.loc 1 808 12 is_stmt 0 view .LVU363
 1271 01aa 032A     		cmp	r2, #3
 1272 01ac 5AD0     		beq	.L86
 809:Core/Src/lte.c ****     {
 810:Core/Src/lte.c ****         LTE_GPS_LONG_I = (LTE_GPS_Buffer[33+lat_length] - 0x30) * 100 + (LTE_GPS_Buffer[34+lat_leng
 811:Core/Src/lte.c ****     }
 812:Core/Src/lte.c ****     else
 813:Core/Src/lte.c ****     {
 814:Core/Src/lte.c ****         LTE_GPS_LONG_I = 0;
 1273              		.loc 1 814 9 is_stmt 1 view .LVU364
 1274              		.loc 1 814 24 is_stmt 0 view .LVU365
 1275 01ae 414B     		ldr	r3, .L87+24
 1276              	.LVL80:
 1277              		.loc 1 814 24 view .LVU366
 1278 01b0 0020     		movs	r0, #0
 1279 01b2 1880     		strh	r0, [r3]	@ movhi
 1280 01b4 06E0     		b	.L76
 1281              	.LVL81:
 1282              	.L84:
 802:Core/Src/lte.c ****     }
 1283              		.loc 1 802 9 is_stmt 1 view .LVU367
 802:Core/Src/lte.c ****     }
 1284              		.loc 1 802 44 is_stmt 0 view .LVU368
 1285 01b6 01F12103 		add	r3, r1, #33
 1286              	.LVL82:
 802:Core/Src/lte.c ****     }
 1287              		.loc 1 802 41 view .LVU369
 1288 01ba 3848     		ldr	r0, .L87
 1289 01bc C35C     		ldrb	r3, [r0, r3]	@ zero_extendqisi2
 802:Core/Src/lte.c ****     }
 1290              		.loc 1 802 57 view .LVU370
 1291 01be 303B     		subs	r3, r3, #48
ARM GAS  C:\Users\jisu8\AppData\Local\Temp\ccJqhSXE.s 			page 42


 802:Core/Src/lte.c ****     }
 1292              		.loc 1 802 24 view .LVU371
 1293 01c0 3C48     		ldr	r0, .L87+24
 1294 01c2 0380     		strh	r3, [r0]	@ movhi
 1295              	.L76:
 815:Core/Src/lte.c ****     }
 816:Core/Src/lte.c **** 
 817:Core/Src/lte.c ****     LTE_GPS_LONG_D = (LTE_GPS_Buffer[34+lat_length+long_length] - 0x30) * 1000000 + (LTE_GPS_Buffer
 1296              		.loc 1 817 5 is_stmt 1 view .LVU372
 1297              		.loc 1 817 40 is_stmt 0 view .LVU373
 1298 01c4 01F12203 		add	r3, r1, #34
 1299              		.loc 1 817 51 view .LVU374
 1300 01c8 1344     		add	r3, r3, r2
 1301              		.loc 1 817 37 view .LVU375
 1302 01ca 3448     		ldr	r0, .L87
 1303 01cc C35C     		ldrb	r3, [r0, r3]	@ zero_extendqisi2
 1304              		.loc 1 817 65 view .LVU376
 1305 01ce A3F13005 		sub	r5, r3, #48
 1306              		.loc 1 817 103 view .LVU377
 1307 01d2 01F12303 		add	r3, r1, #35
 1308              		.loc 1 817 114 view .LVU378
 1309 01d6 1344     		add	r3, r3, r2
 1310              		.loc 1 817 100 view .LVU379
 1311 01d8 C35C     		ldrb	r3, [r0, r3]	@ zero_extendqisi2
 1312              		.loc 1 817 128 view .LVU380
 1313 01da 303B     		subs	r3, r3, #48
 1314              		.loc 1 817 136 view .LVU381
 1315 01dc 324E     		ldr	r6, .L87+12
 1316 01de 06FB03F3 		mul	r3, r6, r3
 1317              		.loc 1 817 83 view .LVU382
 1318 01e2 324E     		ldr	r6, .L87+16
 1319 01e4 06FB0533 		mla	r3, r6, r5, r3
 1320              		.loc 1 817 165 view .LVU383
 1321 01e8 01F12405 		add	r5, r1, #36
 1322              		.loc 1 817 176 view .LVU384
 1323 01ec 1544     		add	r5, r5, r2
 1324              		.loc 1 817 162 view .LVU385
 1325 01ee 455D     		ldrb	r5, [r0, r5]	@ zero_extendqisi2
 1326              		.loc 1 817 190 view .LVU386
 1327 01f0 303D     		subs	r5, r5, #48
 1328              		.loc 1 817 145 view .LVU387
 1329 01f2 42F21076 		movw	r6, #10000
 1330 01f6 06FB0533 		mla	r3, r6, r5, r3
 818:Core/Src/lte.c ****                      (LTE_GPS_Buffer[37+lat_length+long_length] - 0x30) * 1000 + (LTE_GPS_Buffer[38
 1331              		.loc 1 818 40 view .LVU388
 1332 01fa 01F12505 		add	r5, r1, #37
 1333              		.loc 1 818 51 view .LVU389
 1334 01fe 1544     		add	r5, r5, r2
 1335              		.loc 1 818 37 view .LVU390
 1336 0200 455D     		ldrb	r5, [r0, r5]	@ zero_extendqisi2
 1337              		.loc 1 818 65 view .LVU391
 1338 0202 303D     		subs	r5, r5, #48
 817:Core/Src/lte.c ****                      (LTE_GPS_Buffer[37+lat_length+long_length] - 0x30) * 1000 + (LTE_GPS_Buffer[38
 1339              		.loc 1 817 206 view .LVU392
 1340 0204 4FF47A76 		mov	r6, #1000
 1341 0208 06FB0533 		mla	r3, r6, r5, r3
 1342              		.loc 1 818 100 view .LVU393
ARM GAS  C:\Users\jisu8\AppData\Local\Temp\ccJqhSXE.s 			page 43


 1343 020c 01F12605 		add	r5, r1, #38
 1344              		.loc 1 818 111 view .LVU394
 1345 0210 1544     		add	r5, r5, r2
 1346              		.loc 1 818 97 view .LVU395
 1347 0212 455D     		ldrb	r5, [r0, r5]	@ zero_extendqisi2
 1348              		.loc 1 818 125 view .LVU396
 1349 0214 303D     		subs	r5, r5, #48
 1350              		.loc 1 818 80 view .LVU397
 1351 0216 6426     		movs	r6, #100
 1352 0218 06FB0533 		mla	r3, r6, r5, r3
 1353              		.loc 1 818 159 view .LVU398
 1354 021c 01F12705 		add	r5, r1, #39
 1355              		.loc 1 818 170 view .LVU399
 1356 0220 1544     		add	r5, r5, r2
 1357              		.loc 1 818 156 view .LVU400
 1358 0222 455D     		ldrb	r5, [r0, r5]	@ zero_extendqisi2
 1359              		.loc 1 818 184 view .LVU401
 1360 0224 303D     		subs	r5, r5, #48
 1361              		.loc 1 818 192 view .LVU402
 1362 0226 05EB8505 		add	r5, r5, r5, lsl #2
 1363              		.loc 1 818 139 view .LVU403
 1364 022a 03EB4503 		add	r3, r3, r5, lsl #1
 1365              		.loc 1 818 217 view .LVU404
 1366 022e 2831     		adds	r1, r1, #40
 1367              		.loc 1 818 228 view .LVU405
 1368 0230 1144     		add	r1, r1, r2
 1369              		.loc 1 818 214 view .LVU406
 1370 0232 425C     		ldrb	r2, [r0, r1]	@ zero_extendqisi2
 1371              	.LVL83:
 1372              		.loc 1 818 242 view .LVU407
 1373 0234 303A     		subs	r2, r2, #48
 1374              		.loc 1 818 197 view .LVU408
 1375 0236 1344     		add	r3, r3, r2
 817:Core/Src/lte.c ****                      (LTE_GPS_Buffer[37+lat_length+long_length] - 0x30) * 1000 + (LTE_GPS_Buffer[38
 1376              		.loc 1 817 20 view .LVU409
 1377 0238 1F4A     		ldr	r2, .L87+28
 1378 023a 1360     		str	r3, [r2]
 819:Core/Src/lte.c ****     retval++;
 1379              		.loc 1 819 5 is_stmt 1 view .LVU410
 1380              		.loc 1 819 11 is_stmt 0 view .LVU411
 1381 023c 601C     		adds	r0, r4, #1
 1382              	.LVL84:
 820:Core/Src/lte.c ****     
 821:Core/Src/lte.c ****     return retval;
 1383              		.loc 1 821 5 is_stmt 1 view .LVU412
 822:Core/Src/lte.c **** }...
 1384              		.loc 1 822 1 is_stmt 0 view .LVU413
 1385 023e C0B2     		uxtb	r0, r0
 1386              		.loc 1 822 1 view .LVU414
 1387 0240 06B0     		add	sp, sp, #24
 1388              	.LCFI10:
 1389              		.cfi_remember_state
 1390              		.cfi_def_cfa_offset 16
 1391              		@ sp needed
 1392 0242 70BD     		pop	{r4, r5, r6, pc}
 1393              	.LVL85:
 1394              	.L85:
ARM GAS  C:\Users\jisu8\AppData\Local\Temp\ccJqhSXE.s 			page 44


 1395              	.LCFI11:
 1396              		.cfi_restore_state
 806:Core/Src/lte.c ****         LTE_GPS_LONG_I = (LTE_GPS_Buffer[33+lat_length] - 0x30) * 10 + (LTE_GPS_Buffer[34+lat_lengt
 1397              		.loc 1 806 9 is_stmt 1 view .LVU415
 806:Core/Src/lte.c ****         LTE_GPS_LONG_I = (LTE_GPS_Buffer[33+lat_length] - 0x30) * 10 + (LTE_GPS_Buffer[34+lat_lengt
 1398              		.loc 1 806 44 is_stmt 0 view .LVU416
 1399 0244 01F12103 		add	r3, r1, #33
 1400              	.LVL86:
 806:Core/Src/lte.c ****         LTE_GPS_LONG_I = (LTE_GPS_Buffer[33+lat_length] - 0x30) * 10 + (LTE_GPS_Buffer[34+lat_lengt
 1401              		.loc 1 806 41 view .LVU417
 1402 0248 1448     		ldr	r0, .L87
 1403 024a C35C     		ldrb	r3, [r0, r3]	@ zero_extendqisi2
 806:Core/Src/lte.c ****         LTE_GPS_LONG_I = (LTE_GPS_Buffer[33+lat_length] - 0x30) * 10 + (LTE_GPS_Buffer[34+lat_lengt
 1404              		.loc 1 806 57 view .LVU418
 1405 024c 303B     		subs	r3, r3, #48
 806:Core/Src/lte.c ****         LTE_GPS_LONG_I = (LTE_GPS_Buffer[33+lat_length] - 0x30) * 10 + (LTE_GPS_Buffer[34+lat_lengt
 1406              		.loc 1 806 90 view .LVU419
 1407 024e 01F12205 		add	r5, r1, #34
 806:Core/Src/lte.c ****         LTE_GPS_LONG_I = (LTE_GPS_Buffer[33+lat_length] - 0x30) * 10 + (LTE_GPS_Buffer[34+lat_lengt
 1408              		.loc 1 806 87 view .LVU420
 1409 0252 405D     		ldrb	r0, [r0, r5]	@ zero_extendqisi2
 806:Core/Src/lte.c ****         LTE_GPS_LONG_I = (LTE_GPS_Buffer[33+lat_length] - 0x30) * 10 + (LTE_GPS_Buffer[34+lat_lengt
 1410              		.loc 1 806 70 view .LVU421
 1411 0254 03EB8303 		add	r3, r3, r3, lsl #2
 1412 0258 00EB4303 		add	r3, r0, r3, lsl #1
 1413 025c 303B     		subs	r3, r3, #48
 806:Core/Src/lte.c ****         LTE_GPS_LONG_I = (LTE_GPS_Buffer[33+lat_length] - 0x30) * 10 + (LTE_GPS_Buffer[34+lat_lengt
 1414              		.loc 1 806 24 view .LVU422
 1415 025e 1548     		ldr	r0, .L87+24
 1416 0260 0380     		strh	r3, [r0]	@ movhi
 1417 0262 AFE7     		b	.L76
 1418              	.LVL87:
 1419              	.L86:
 810:Core/Src/lte.c ****         LTE_GPS_LONG_I = (LTE_GPS_Buffer[33+lat_length] - 0x30) * 100 + (LTE_GPS_Buffer[34+lat_leng
 1420              		.loc 1 810 9 is_stmt 1 view .LVU423
 810:Core/Src/lte.c ****         LTE_GPS_LONG_I = (LTE_GPS_Buffer[33+lat_length] - 0x30) * 100 + (LTE_GPS_Buffer[34+lat_leng
 1421              		.loc 1 810 44 is_stmt 0 view .LVU424
 1422 0264 01F12103 		add	r3, r1, #33
 1423              	.LVL88:
 810:Core/Src/lte.c ****         LTE_GPS_LONG_I = (LTE_GPS_Buffer[33+lat_length] - 0x30) * 100 + (LTE_GPS_Buffer[34+lat_leng
 1424              		.loc 1 810 41 view .LVU425
 1425 0268 0C4D     		ldr	r5, .L87
 1426 026a E85C     		ldrb	r0, [r5, r3]	@ zero_extendqisi2
 810:Core/Src/lte.c ****         LTE_GPS_LONG_I = (LTE_GPS_Buffer[33+lat_length] - 0x30) * 100 + (LTE_GPS_Buffer[34+lat_leng
 1427              		.loc 1 810 57 view .LVU426
 1428 026c 3038     		subs	r0, r0, #48
 810:Core/Src/lte.c ****         LTE_GPS_LONG_I = (LTE_GPS_Buffer[33+lat_length] - 0x30) * 100 + (LTE_GPS_Buffer[34+lat_leng
 1429              		.loc 1 810 91 view .LVU427
 1430 026e 01F12203 		add	r3, r1, #34
 810:Core/Src/lte.c ****         LTE_GPS_LONG_I = (LTE_GPS_Buffer[33+lat_length] - 0x30) * 100 + (LTE_GPS_Buffer[34+lat_leng
 1431              		.loc 1 810 88 view .LVU428
 1432 0272 EB5C     		ldrb	r3, [r5, r3]	@ zero_extendqisi2
 810:Core/Src/lte.c ****         LTE_GPS_LONG_I = (LTE_GPS_Buffer[33+lat_length] - 0x30) * 100 + (LTE_GPS_Buffer[34+lat_leng
 1433              		.loc 1 810 104 view .LVU429
 1434 0274 303B     		subs	r3, r3, #48
 810:Core/Src/lte.c ****         LTE_GPS_LONG_I = (LTE_GPS_Buffer[33+lat_length] - 0x30) * 100 + (LTE_GPS_Buffer[34+lat_leng
 1435              		.loc 1 810 71 view .LVU430
ARM GAS  C:\Users\jisu8\AppData\Local\Temp\ccJqhSXE.s 			page 45


 1436 0276 00EB8000 		add	r0, r0, r0, lsl #2
 1437 027a 00EB8000 		add	r0, r0, r0, lsl #2
 1438 027e 03EB8303 		add	r3, r3, r3, lsl #2
 1439 0282 5B00     		lsls	r3, r3, #1
 1440 0284 03EB8003 		add	r3, r3, r0, lsl #2
 1441 0288 9BB2     		uxth	r3, r3
 810:Core/Src/lte.c ****         LTE_GPS_LONG_I = (LTE_GPS_Buffer[33+lat_length] - 0x30) * 100 + (LTE_GPS_Buffer[34+lat_leng
 1442              		.loc 1 810 137 view .LVU431
 1443 028a 01F12300 		add	r0, r1, #35
 810:Core/Src/lte.c ****         LTE_GPS_LONG_I = (LTE_GPS_Buffer[33+lat_length] - 0x30) * 100 + (LTE_GPS_Buffer[34+lat_leng
 1444              		.loc 1 810 134 view .LVU432
 1445 028e 285C     		ldrb	r0, [r5, r0]	@ zero_extendqisi2
 810:Core/Src/lte.c ****         LTE_GPS_LONG_I = (LTE_GPS_Buffer[33+lat_length] - 0x30) * 100 + (LTE_GPS_Buffer[34+lat_leng
 1446              		.loc 1 810 117 view .LVU433
 1447 0290 0344     		add	r3, r3, r0
 1448 0292 303B     		subs	r3, r3, #48
 810:Core/Src/lte.c ****         LTE_GPS_LONG_I = (LTE_GPS_Buffer[33+lat_length] - 0x30) * 100 + (LTE_GPS_Buffer[34+lat_leng
 1449              		.loc 1 810 24 view .LVU434
 1450 0294 0748     		ldr	r0, .L87+24
 1451 0296 0380     		strh	r3, [r0]	@ movhi
 1452 0298 94E7     		b	.L76
 1453              	.L88:
 1454 029a 00BF     		.align	2
 1455              	.L87:
 1456 029c 00000000 		.word	.LANCHOR19
 1457 02a0 00000000 		.word	hrtc
 1458 02a4 00000000 		.word	.LANCHOR14
 1459 02a8 A0860100 		.word	100000
 1460 02ac 40420F00 		.word	1000000
 1461 02b0 00000000 		.word	.LANCHOR13
 1462 02b4 00000000 		.word	.LANCHOR12
 1463 02b8 00000000 		.word	.LANCHOR11
 1464              		.cfi_endproc
 1465              	.LFE144:
 1467              		.section	.rodata.LTE_GPS_Connect.str1.4,"aMS",%progbits,1
 1468              		.align	2
 1469              	.LC2:
 1470 0000 41540D0A 		.ascii	"AT\015\012\000"
 1470      00
 1471 0005 000000   		.align	2
 1472              	.LC3:
 1473 0008 41542B55 		.ascii	"AT+ULOCCELL=0\015\012\000"
 1473      4C4F4343 
 1473      454C4C3D 
 1473      300D0A00 
 1474              		.align	2
 1475              	.LC4:
 1476 0018 41542B55 		.ascii	"AT+ULOC=2,3,1,100,5000\015\012\000"
 1476      4C4F433D 
 1476      322C332C 
 1476      312C3130 
 1476      302C3530 
 1477              		.section	.text.LTE_GPS_Connect,"ax",%progbits
 1478              		.align	1
 1479              		.syntax unified
 1480              		.thumb
 1481              		.thumb_func
ARM GAS  C:\Users\jisu8\AppData\Local\Temp\ccJqhSXE.s 			page 46


 1483              	LTE_GPS_Connect:
 1484              	.LFB137:
 508:Core/Src/lte.c **** {
 1485              		.loc 1 508 1 is_stmt 1 view -0
 1486              		.cfi_startproc
 1487              		@ args = 0, pretend = 0, frame = 104
 1488              		@ frame_needed = 0, uses_anonymous_args = 0
 1489 0000 10B5     		push	{r4, lr}
 1490              	.LCFI12:
 1491              		.cfi_def_cfa_offset 8
 1492              		.cfi_offset 4, -8
 1493              		.cfi_offset 14, -4
 1494 0002 9AB0     		sub	sp, sp, #104
 1495              	.LCFI13:
 1496              		.cfi_def_cfa_offset 112
 509:Core/Src/lte.c ****     char Tx_Buf[100] = {0,};
 1497              		.loc 1 509 5 view .LVU436
 509:Core/Src/lte.c ****     char Tx_Buf[100] = {0,};
 1498              		.loc 1 509 10 is_stmt 0 view .LVU437
 1499 0004 0021     		movs	r1, #0
 1500 0006 0191     		str	r1, [sp, #4]
 1501 0008 6022     		movs	r2, #96
 1502 000a 02A8     		add	r0, sp, #8
 1503 000c FFF7FEFF 		bl	memset
 1504              	.LVL89:
 510:Core/Src/lte.c ****     static LTE_Status_t stDelay;
 1505              		.loc 1 510 5 is_stmt 1 view .LVU438
 511:Core/Src/lte.c ****     static uint8_t uart_status;
 1506              		.loc 1 511 5 view .LVU439
 513:Core/Src/lte.c ****     switch(LTE_GPS_Status)
 1507              		.loc 1 513 5 view .LVU440
 1508 0010 564B     		ldr	r3, .L112
 1509 0012 1B78     		ldrb	r3, [r3]	@ zero_extendqisi2
 1510 0014 042B     		cmp	r3, #4
 1511 0016 00F2A780 		bhi	.L89
 1512 001a DFE803F0 		tbb	[pc, r3]
 1513              	.L92:
 1514 001e 03       		.byte	(.L96-.L92)/2
 1515 001f 2E       		.byte	(.L95-.L92)/2
 1516 0020 57       		.byte	(.L94-.L92)/2
 1517 0021 87       		.byte	(.L93-.L92)/2
 1518 0022 A0       		.byte	(.L91-.L92)/2
 1519 0023 00       		.p2align 1
 1520              	.L96:
 516:Core/Src/lte.c ****             if(LTE_UART_STATUS_TRANSMIT == uart_status)
 1521              		.loc 1 516 13 view .LVU441
 516:Core/Src/lte.c ****             if(LTE_UART_STATUS_TRANSMIT == uart_status)
 1522              		.loc 1 516 41 is_stmt 0 view .LVU442
 1523 0024 524B     		ldr	r3, .L112+4
 1524 0026 1B78     		ldrb	r3, [r3]	@ zero_extendqisi2
 516:Core/Src/lte.c ****             if(LTE_UART_STATUS_TRANSMIT == uart_status)
 1525              		.loc 1 516 15 view .LVU443
 1526 0028 7BB1     		cbz	r3, .L105
 1527              	.L97:
 522:Core/Src/lte.c ****             if(LTE_UART_STATUS_RECEIVE == uart_status)
 1528              		.loc 1 522 13 is_stmt 1 view .LVU444
 522:Core/Src/lte.c ****             if(LTE_UART_STATUS_RECEIVE == uart_status)
ARM GAS  C:\Users\jisu8\AppData\Local\Temp\ccJqhSXE.s 			page 47


 1529              		.loc 1 522 40 is_stmt 0 view .LVU445
 1530 002a 514B     		ldr	r3, .L112+4
 1531 002c 1B78     		ldrb	r3, [r3]	@ zero_extendqisi2
 522:Core/Src/lte.c ****             if(LTE_UART_STATUS_RECEIVE == uart_status)
 1532              		.loc 1 522 15 view .LVU446
 1533 002e 012B     		cmp	r3, #1
 1534 0030 40F09A80 		bne	.L89
 524:Core/Src/lte.c ****                 if(OK == stDelay)
 1535              		.loc 1 524 17 is_stmt 1 view .LVU447
 524:Core/Src/lte.c ****                 if(OK == stDelay)
 1536              		.loc 1 524 23 is_stmt 0 view .LVU448
 1537 0034 4F4B     		ldr	r3, .L112+8
 1538 0036 1B78     		ldrb	r3, [r3]	@ zero_extendqisi2
 524:Core/Src/lte.c ****                 if(OK == stDelay)
 1539              		.loc 1 524 19 view .LVU449
 1540 0038 012B     		cmp	r3, #1
 1541 003a 13D0     		beq	.L106
 532:Core/Src/lte.c ****                     stDelay = LTE_Delay(1000);
 1542              		.loc 1 532 21 is_stmt 1 view .LVU450
 532:Core/Src/lte.c ****                     stDelay = LTE_Delay(1000);
 1543              		.loc 1 532 31 is_stmt 0 view .LVU451
 1544 003c 4FF47A70 		mov	r0, #1000
 1545 0040 FFF7FEFF 		bl	LTE_Delay
 1546              	.LVL90:
 532:Core/Src/lte.c ****                     stDelay = LTE_Delay(1000);
 1547              		.loc 1 532 29 view .LVU452
 1548 0044 4B4B     		ldr	r3, .L112+8
 1549 0046 1870     		strb	r0, [r3]
 1550 0048 8EE0     		b	.L89
 1551              	.L105:
 518:Core/Src/lte.c ****                 sprintf(Tx_Buf,"AT\r\n");
 1552              		.loc 1 518 17 is_stmt 1 view .LVU453
 1553 004a 4B4B     		ldr	r3, .L112+12
 1554 004c 93E80300 		ldm	r3, {r0, r1}
 1555 0050 0190     		str	r0, [sp, #4]
 1556 0052 8DF80810 		strb	r1, [sp, #8]
 519:Core/Src/lte.c ****                 LTE_Transmit(Tx_Buf);
 1557              		.loc 1 519 17 view .LVU454
 1558 0056 01A8     		add	r0, sp, #4
 1559 0058 FFF7FEFF 		bl	LTE_Transmit
 1560              	.LVL91:
 520:Core/Src/lte.c ****                 uart_status = LTE_UART_STATUS_RECEIVE;
 1561              		.loc 1 520 17 view .LVU455
 520:Core/Src/lte.c ****                 uart_status = LTE_UART_STATUS_RECEIVE;
 1562              		.loc 1 520 29 is_stmt 0 view .LVU456
 1563 005c 444B     		ldr	r3, .L112+4
 1564 005e 0122     		movs	r2, #1
 1565 0060 1A70     		strb	r2, [r3]
 1566 0062 E2E7     		b	.L97
 1567              	.L106:
 526:Core/Src/lte.c ****                     LTE_GPS_Status = LTE_Receive_Check(LTE_GPS_STEP_READY);
 1568              		.loc 1 526 21 is_stmt 1 view .LVU457
 526:Core/Src/lte.c ****                     LTE_GPS_Status = LTE_Receive_Check(LTE_GPS_STEP_READY);
 1569              		.loc 1 526 38 is_stmt 0 view .LVU458
 1570 0064 0020     		movs	r0, #0
 1571 0066 FFF7FEFF 		bl	LTE_Receive_Check
 1572              	.LVL92:
ARM GAS  C:\Users\jisu8\AppData\Local\Temp\ccJqhSXE.s 			page 48


 526:Core/Src/lte.c ****                     LTE_GPS_Status = LTE_Receive_Check(LTE_GPS_STEP_READY);
 1573              		.loc 1 526 36 view .LVU459
 1574 006a 404B     		ldr	r3, .L112
 1575 006c 1870     		strb	r0, [r3]
 527:Core/Src/lte.c ****                     stDelay = FAIL;
 1576              		.loc 1 527 21 is_stmt 1 view .LVU460
 527:Core/Src/lte.c ****                     stDelay = FAIL;
 1577              		.loc 1 527 29 is_stmt 0 view .LVU461
 1578 006e 0023     		movs	r3, #0
 1579 0070 404A     		ldr	r2, .L112+8
 1580 0072 1370     		strb	r3, [r2]
 528:Core/Src/lte.c ****                     uart_status = LTE_UART_STATUS_TRANSMIT;
 1581              		.loc 1 528 21 is_stmt 1 view .LVU462
 528:Core/Src/lte.c ****                     uart_status = LTE_UART_STATUS_TRANSMIT;
 1582              		.loc 1 528 33 is_stmt 0 view .LVU463
 1583 0074 3E4A     		ldr	r2, .L112+4
 1584 0076 1370     		strb	r3, [r2]
 1585 0078 76E0     		b	.L89
 1586              	.L95:
 537:Core/Src/lte.c ****             if(LTE_UART_STATUS_TRANSMIT == uart_status)
 1587              		.loc 1 537 13 is_stmt 1 view .LVU464
 537:Core/Src/lte.c ****             if(LTE_UART_STATUS_TRANSMIT == uart_status)
 1588              		.loc 1 537 41 is_stmt 0 view .LVU465
 1589 007a 3D4B     		ldr	r3, .L112+4
 1590 007c 1B78     		ldrb	r3, [r3]	@ zero_extendqisi2
 537:Core/Src/lte.c ****             if(LTE_UART_STATUS_TRANSMIT == uart_status)
 1591              		.loc 1 537 15 view .LVU466
 1592 007e 73B1     		cbz	r3, .L107
 1593              	.L99:
 543:Core/Src/lte.c ****             if(LTE_UART_STATUS_RECEIVE == uart_status)
 1594              		.loc 1 543 13 is_stmt 1 view .LVU467
 543:Core/Src/lte.c ****             if(LTE_UART_STATUS_RECEIVE == uart_status)
 1595              		.loc 1 543 40 is_stmt 0 view .LVU468
 1596 0080 3B4B     		ldr	r3, .L112+4
 1597 0082 1B78     		ldrb	r3, [r3]	@ zero_extendqisi2
 543:Core/Src/lte.c ****             if(LTE_UART_STATUS_RECEIVE == uart_status)
 1598              		.loc 1 543 15 view .LVU469
 1599 0084 012B     		cmp	r3, #1
 1600 0086 6FD1     		bne	.L89
 545:Core/Src/lte.c ****                 if(OK == stDelay)
 1601              		.loc 1 545 17 is_stmt 1 view .LVU470
 545:Core/Src/lte.c ****                 if(OK == stDelay)
 1602              		.loc 1 545 23 is_stmt 0 view .LVU471
 1603 0088 3A4B     		ldr	r3, .L112+8
 1604 008a 1B78     		ldrb	r3, [r3]	@ zero_extendqisi2
 545:Core/Src/lte.c ****                 if(OK == stDelay)
 1605              		.loc 1 545 19 view .LVU472
 1606 008c 012B     		cmp	r3, #1
 1607 008e 12D0     		beq	.L108
 553:Core/Src/lte.c ****                     stDelay = LTE_Delay(1000);
 1608              		.loc 1 553 21 is_stmt 1 view .LVU473
 553:Core/Src/lte.c ****                     stDelay = LTE_Delay(1000);
 1609              		.loc 1 553 31 is_stmt 0 view .LVU474
 1610 0090 4FF47A70 		mov	r0, #1000
 1611 0094 FFF7FEFF 		bl	LTE_Delay
 1612              	.LVL93:
 553:Core/Src/lte.c ****                     stDelay = LTE_Delay(1000);
ARM GAS  C:\Users\jisu8\AppData\Local\Temp\ccJqhSXE.s 			page 49


 1613              		.loc 1 553 29 view .LVU475
 1614 0098 364B     		ldr	r3, .L112+8
 1615 009a 1870     		strb	r0, [r3]
 1616 009c 64E0     		b	.L89
 1617              	.L107:
 539:Core/Src/lte.c ****                 sprintf(Tx_Buf,"AT+ULOCCELL=0\r\n");
 1618              		.loc 1 539 17 is_stmt 1 view .LVU476
 1619 009e 01AC     		add	r4, sp, #4
 1620 00a0 364B     		ldr	r3, .L112+16
 1621 00a2 0FCB     		ldm	r3, {r0, r1, r2, r3}
 1622 00a4 84E80F00 		stm	r4, {r0, r1, r2, r3}
 540:Core/Src/lte.c ****                 LTE_Transmit(Tx_Buf);
 1623              		.loc 1 540 17 view .LVU477
 1624 00a8 2046     		mov	r0, r4
 1625 00aa FFF7FEFF 		bl	LTE_Transmit
 1626              	.LVL94:
 541:Core/Src/lte.c ****                 uart_status = LTE_UART_STATUS_RECEIVE;
 1627              		.loc 1 541 17 view .LVU478
 541:Core/Src/lte.c ****                 uart_status = LTE_UART_STATUS_RECEIVE;
 1628              		.loc 1 541 29 is_stmt 0 view .LVU479
 1629 00ae 304B     		ldr	r3, .L112+4
 1630 00b0 0122     		movs	r2, #1
 1631 00b2 1A70     		strb	r2, [r3]
 1632 00b4 E4E7     		b	.L99
 1633              	.L108:
 547:Core/Src/lte.c ****                     LTE_GPS_Status = LTE_Receive_Check(LTE_GPS_STEP_ULOCCELL);
 1634              		.loc 1 547 21 is_stmt 1 view .LVU480
 547:Core/Src/lte.c ****                     LTE_GPS_Status = LTE_Receive_Check(LTE_GPS_STEP_ULOCCELL);
 1635              		.loc 1 547 38 is_stmt 0 view .LVU481
 1636 00b6 0120     		movs	r0, #1
 1637 00b8 FFF7FEFF 		bl	LTE_Receive_Check
 1638              	.LVL95:
 547:Core/Src/lte.c ****                     LTE_GPS_Status = LTE_Receive_Check(LTE_GPS_STEP_ULOCCELL);
 1639              		.loc 1 547 36 view .LVU482
 1640 00bc 2B4B     		ldr	r3, .L112
 1641 00be 1870     		strb	r0, [r3]
 548:Core/Src/lte.c ****                     stDelay = FAIL;
 1642              		.loc 1 548 21 is_stmt 1 view .LVU483
 548:Core/Src/lte.c ****                     stDelay = FAIL;
 1643              		.loc 1 548 29 is_stmt 0 view .LVU484
 1644 00c0 0023     		movs	r3, #0
 1645 00c2 2C4A     		ldr	r2, .L112+8
 1646 00c4 1370     		strb	r3, [r2]
 549:Core/Src/lte.c ****                     uart_status = LTE_UART_STATUS_TRANSMIT;
 1647              		.loc 1 549 21 is_stmt 1 view .LVU485
 549:Core/Src/lte.c ****                     uart_status = LTE_UART_STATUS_TRANSMIT;
 1648              		.loc 1 549 33 is_stmt 0 view .LVU486
 1649 00c6 2A4A     		ldr	r2, .L112+4
 1650 00c8 1370     		strb	r3, [r2]
 1651 00ca 4DE0     		b	.L89
 1652              	.L94:
 558:Core/Src/lte.c ****             if(LTE_UART_STATUS_TRANSMIT == uart_status)
 1653              		.loc 1 558 13 is_stmt 1 view .LVU487
 558:Core/Src/lte.c ****             if(LTE_UART_STATUS_TRANSMIT == uart_status)
 1654              		.loc 1 558 41 is_stmt 0 view .LVU488
 1655 00cc 284B     		ldr	r3, .L112+4
 1656 00ce 1B78     		ldrb	r3, [r3]	@ zero_extendqisi2
ARM GAS  C:\Users\jisu8\AppData\Local\Temp\ccJqhSXE.s 			page 50


 558:Core/Src/lte.c ****             if(LTE_UART_STATUS_TRANSMIT == uart_status)
 1657              		.loc 1 558 15 view .LVU489
 1658 00d0 73B1     		cbz	r3, .L109
 1659              	.L101:
 564:Core/Src/lte.c ****             if(LTE_UART_STATUS_RECEIVE == uart_status)
 1660              		.loc 1 564 13 is_stmt 1 view .LVU490
 564:Core/Src/lte.c ****             if(LTE_UART_STATUS_RECEIVE == uart_status)
 1661              		.loc 1 564 40 is_stmt 0 view .LVU491
 1662 00d2 274B     		ldr	r3, .L112+4
 1663 00d4 1B78     		ldrb	r3, [r3]	@ zero_extendqisi2
 564:Core/Src/lte.c ****             if(LTE_UART_STATUS_RECEIVE == uart_status)
 1664              		.loc 1 564 15 view .LVU492
 1665 00d6 012B     		cmp	r3, #1
 1666 00d8 46D1     		bne	.L89
 566:Core/Src/lte.c ****                 if(OK == stDelay)
 1667              		.loc 1 566 17 is_stmt 1 view .LVU493
 566:Core/Src/lte.c ****                 if(OK == stDelay)
 1668              		.loc 1 566 23 is_stmt 0 view .LVU494
 1669 00da 264B     		ldr	r3, .L112+8
 1670 00dc 1B78     		ldrb	r3, [r3]	@ zero_extendqisi2
 566:Core/Src/lte.c ****                 if(OK == stDelay)
 1671              		.loc 1 566 19 view .LVU495
 1672 00de 012B     		cmp	r3, #1
 1673 00e0 19D0     		beq	.L110
 574:Core/Src/lte.c ****                     stDelay = LTE_Delay(1000);
 1674              		.loc 1 574 21 is_stmt 1 view .LVU496
 574:Core/Src/lte.c ****                     stDelay = LTE_Delay(1000);
 1675              		.loc 1 574 31 is_stmt 0 view .LVU497
 1676 00e2 4FF47A70 		mov	r0, #1000
 1677 00e6 FFF7FEFF 		bl	LTE_Delay
 1678              	.LVL96:
 574:Core/Src/lte.c ****                     stDelay = LTE_Delay(1000);
 1679              		.loc 1 574 29 view .LVU498
 1680 00ea 224B     		ldr	r3, .L112+8
 1681 00ec 1870     		strb	r0, [r3]
 1682 00ee 3BE0     		b	.L89
 1683              	.L109:
 560:Core/Src/lte.c ****                 sprintf(Tx_Buf,"AT+ULOC=2,3,1,100,5000\r\n");
 1684              		.loc 1 560 17 is_stmt 1 view .LVU499
 1685 00f0 0DF1040C 		add	ip, sp, #4
 1686 00f4 224C     		ldr	r4, .L112+20
 1687 00f6 0FCC     		ldmia	r4!, {r0, r1, r2, r3}
 1688 00f8 ACE80F00 		stmia	ip!, {r0, r1, r2, r3}
 1689 00fc 94E80700 		ldm	r4, {r0, r1, r2}
 1690 0100 ACE80300 		stmia	ip!, {r0, r1}
 1691 0104 8CF80020 		strb	r2, [ip]
 561:Core/Src/lte.c ****                 LTE_Transmit(Tx_Buf);
 1692              		.loc 1 561 17 view .LVU500
 1693 0108 01A8     		add	r0, sp, #4
 1694 010a FFF7FEFF 		bl	LTE_Transmit
 1695              	.LVL97:
 562:Core/Src/lte.c ****                 uart_status = LTE_UART_STATUS_RECEIVE;
 1696              		.loc 1 562 17 view .LVU501
 562:Core/Src/lte.c ****                 uart_status = LTE_UART_STATUS_RECEIVE;
 1697              		.loc 1 562 29 is_stmt 0 view .LVU502
 1698 010e 184B     		ldr	r3, .L112+4
 1699 0110 0122     		movs	r2, #1
ARM GAS  C:\Users\jisu8\AppData\Local\Temp\ccJqhSXE.s 			page 51


 1700 0112 1A70     		strb	r2, [r3]
 1701 0114 DDE7     		b	.L101
 1702              	.L110:
 568:Core/Src/lte.c ****                     LTE_GPS_Status = LTE_GPS_Receive_Data(LTE_GPS_STEP_ULOC);
 1703              		.loc 1 568 21 is_stmt 1 view .LVU503
 568:Core/Src/lte.c ****                     LTE_GPS_Status = LTE_GPS_Receive_Data(LTE_GPS_STEP_ULOC);
 1704              		.loc 1 568 38 is_stmt 0 view .LVU504
 1705 0116 0220     		movs	r0, #2
 1706 0118 FFF7FEFF 		bl	LTE_GPS_Receive_Data
 1707              	.LVL98:
 568:Core/Src/lte.c ****                     LTE_GPS_Status = LTE_GPS_Receive_Data(LTE_GPS_STEP_ULOC);
 1708              		.loc 1 568 36 view .LVU505
 1709 011c 134B     		ldr	r3, .L112
 1710 011e 1870     		strb	r0, [r3]
 569:Core/Src/lte.c ****                     stDelay = FAIL;
 1711              		.loc 1 569 21 is_stmt 1 view .LVU506
 569:Core/Src/lte.c ****                     stDelay = FAIL;
 1712              		.loc 1 569 29 is_stmt 0 view .LVU507
 1713 0120 0023     		movs	r3, #0
 1714 0122 144A     		ldr	r2, .L112+8
 1715 0124 1370     		strb	r3, [r2]
 570:Core/Src/lte.c ****                     uart_status = LTE_UART_STATUS_TRANSMIT;
 1716              		.loc 1 570 21 is_stmt 1 view .LVU508
 570:Core/Src/lte.c ****                     uart_status = LTE_UART_STATUS_TRANSMIT;
 1717              		.loc 1 570 33 is_stmt 0 view .LVU509
 1718 0126 124A     		ldr	r2, .L112+4
 1719 0128 1370     		strb	r3, [r2]
 1720 012a 1DE0     		b	.L89
 1721              	.L93:
 579:Core/Src/lte.c ****             uart_status = LTE_UART_STATUS_RECEIVE;
 1722              		.loc 1 579 13 is_stmt 1 view .LVU510
 579:Core/Src/lte.c ****             uart_status = LTE_UART_STATUS_RECEIVE;
 1723              		.loc 1 579 25 is_stmt 0 view .LVU511
 1724 012c 104B     		ldr	r3, .L112+4
 1725 012e 0122     		movs	r2, #1
 1726 0130 1A70     		strb	r2, [r3]
 580:Core/Src/lte.c ****             if(LTE_UART_STATUS_RECEIVE == uart_status)
 1727              		.loc 1 580 13 is_stmt 1 view .LVU512
 582:Core/Src/lte.c ****                 if(OK == stDelay)
 1728              		.loc 1 582 17 view .LVU513
 582:Core/Src/lte.c ****                 if(OK == stDelay)
 1729              		.loc 1 582 23 is_stmt 0 view .LVU514
 1730 0132 104B     		ldr	r3, .L112+8
 1731 0134 1B78     		ldrb	r3, [r3]	@ zero_extendqisi2
 582:Core/Src/lte.c ****                 if(OK == stDelay)
 1732              		.loc 1 582 19 view .LVU515
 1733 0136 9342     		cmp	r3, r2
 1734 0138 06D0     		beq	.L111
 590:Core/Src/lte.c ****                     stDelay = LTE_Delay(5000);
 1735              		.loc 1 590 21 is_stmt 1 view .LVU516
 590:Core/Src/lte.c ****                     stDelay = LTE_Delay(5000);
 1736              		.loc 1 590 31 is_stmt 0 view .LVU517
 1737 013a 41F28830 		movw	r0, #5000
 1738 013e FFF7FEFF 		bl	LTE_Delay
 1739              	.LVL99:
 590:Core/Src/lte.c ****                     stDelay = LTE_Delay(5000);
 1740              		.loc 1 590 29 view .LVU518
ARM GAS  C:\Users\jisu8\AppData\Local\Temp\ccJqhSXE.s 			page 52


 1741 0142 0C4B     		ldr	r3, .L112+8
 1742 0144 1870     		strb	r0, [r3]
 1743 0146 0FE0     		b	.L89
 1744              	.L111:
 584:Core/Src/lte.c ****                     LTE_GPS_Status = LTE_GPS_Receive_Data(LTE_GPS_STEP_RECEIVEDATA);
 1745              		.loc 1 584 21 is_stmt 1 view .LVU519
 584:Core/Src/lte.c ****                     LTE_GPS_Status = LTE_GPS_Receive_Data(LTE_GPS_STEP_RECEIVEDATA);
 1746              		.loc 1 584 38 is_stmt 0 view .LVU520
 1747 0148 0320     		movs	r0, #3
 1748 014a FFF7FEFF 		bl	LTE_GPS_Receive_Data
 1749              	.LVL100:
 584:Core/Src/lte.c ****                     LTE_GPS_Status = LTE_GPS_Receive_Data(LTE_GPS_STEP_RECEIVEDATA);
 1750              		.loc 1 584 36 view .LVU521
 1751 014e 074B     		ldr	r3, .L112
 1752 0150 1870     		strb	r0, [r3]
 585:Core/Src/lte.c ****                     stDelay = FAIL;
 1753              		.loc 1 585 21 is_stmt 1 view .LVU522
 585:Core/Src/lte.c ****                     stDelay = FAIL;
 1754              		.loc 1 585 29 is_stmt 0 view .LVU523
 1755 0152 0023     		movs	r3, #0
 1756 0154 074A     		ldr	r2, .L112+8
 1757 0156 1370     		strb	r3, [r2]
 586:Core/Src/lte.c ****                     uart_status = LTE_UART_STATUS_TRANSMIT;
 1758              		.loc 1 586 21 is_stmt 1 view .LVU524
 586:Core/Src/lte.c ****                     uart_status = LTE_UART_STATUS_TRANSMIT;
 1759              		.loc 1 586 33 is_stmt 0 view .LVU525
 1760 0158 054A     		ldr	r2, .L112+4
 1761 015a 1370     		strb	r3, [r2]
 1762 015c 04E0     		b	.L89
 1763              	.L91:
 595:Core/Src/lte.c ****             LTE_GPS_Status = LTE_GPS_Update_Data(LTE_GPS_STEP_UPDATEDATA);
 1764              		.loc 1 595 13 is_stmt 1 view .LVU526
 595:Core/Src/lte.c ****             LTE_GPS_Status = LTE_GPS_Update_Data(LTE_GPS_STEP_UPDATEDATA);
 1765              		.loc 1 595 30 is_stmt 0 view .LVU527
 1766 015e 0420     		movs	r0, #4
 1767 0160 FFF7FEFF 		bl	LTE_GPS_Update_Data
 1768              	.LVL101:
 595:Core/Src/lte.c ****             LTE_GPS_Status = LTE_GPS_Update_Data(LTE_GPS_STEP_UPDATEDATA);
 1769              		.loc 1 595 28 view .LVU528
 1770 0164 014B     		ldr	r3, .L112
 1771 0166 1870     		strb	r0, [r3]
 596:Core/Src/lte.c ****         break;
 1772              		.loc 1 596 9 is_stmt 1 view .LVU529
 1773              	.L89:
 600:Core/Src/lte.c **** }
 1774              		.loc 1 600 1 is_stmt 0 view .LVU530
 1775 0168 1AB0     		add	sp, sp, #104
 1776              	.LCFI14:
 1777              		.cfi_def_cfa_offset 8
 1778              		@ sp needed
 1779 016a 10BD     		pop	{r4, pc}
 1780              	.L113:
 1781              		.align	2
 1782              	.L112:
 1783 016c 00000000 		.word	.LANCHOR20
 1784 0170 00000000 		.word	.LANCHOR21
 1785 0174 00000000 		.word	.LANCHOR22
ARM GAS  C:\Users\jisu8\AppData\Local\Temp\ccJqhSXE.s 			page 53


 1786 0178 00000000 		.word	.LC2
 1787 017c 08000000 		.word	.LC3
 1788 0180 18000000 		.word	.LC4
 1789              		.cfi_endproc
 1790              	.LFE137:
 1792              		.section	.text.LTE_Init,"ax",%progbits
 1793              		.align	1
 1794              		.global	LTE_Init
 1795              		.syntax unified
 1796              		.thumb
 1797              		.thumb_func
 1799              	LTE_Init:
 1800              	.LFB133:
  34:Core/Src/lte.c **** {
 1801              		.loc 1 34 1 is_stmt 1 view -0
 1802              		.cfi_startproc
 1803              		@ args = 0, pretend = 0, frame = 0
 1804              		@ frame_needed = 0, uses_anonymous_args = 0
 1805 0000 10B5     		push	{r4, lr}
 1806              	.LCFI15:
 1807              		.cfi_def_cfa_offset 8
 1808              		.cfi_offset 4, -8
 1809              		.cfi_offset 14, -4
  35:Core/Src/lte.c ****     if ( HAL_UART_Receive_IT(&huart1, &dummy_lte, 1) != HAL_OK)
 1810              		.loc 1 35 5 view .LVU532
  35:Core/Src/lte.c ****     if ( HAL_UART_Receive_IT(&huart1, &dummy_lte, 1) != HAL_OK)
 1811              		.loc 1 35 10 is_stmt 0 view .LVU533
 1812 0002 0122     		movs	r2, #1
 1813 0004 0B49     		ldr	r1, .L118
 1814 0006 0C48     		ldr	r0, .L118+4
 1815 0008 FFF7FEFF 		bl	HAL_UART_Receive_IT
 1816              	.LVL102:
  35:Core/Src/lte.c ****     if ( HAL_UART_Receive_IT(&huart1, &dummy_lte, 1) != HAL_OK)
 1817              		.loc 1 35 8 view .LVU534
 1818 000c 78B9     		cbnz	r0, .L117
 1819              	.L115:
  41:Core/Src/lte.c **** 	HAL_GPIO_WritePin(POWER_KEY_GPIO_Port, POWER_KEY_Pin, GPIO_PIN_RESET);
 1820              		.loc 1 41 2 is_stmt 1 view .LVU535
 1821 000e 0B4C     		ldr	r4, .L118+8
 1822 0010 0022     		movs	r2, #0
 1823 0012 2021     		movs	r1, #32
 1824 0014 2046     		mov	r0, r4
 1825 0016 FFF7FEFF 		bl	HAL_GPIO_WritePin
 1826              	.LVL103:
  42:Core/Src/lte.c ****     HAL_Delay(1500);
 1827              		.loc 1 42 5 view .LVU536
 1828 001a 40F2DC50 		movw	r0, #1500
 1829 001e FFF7FEFF 		bl	HAL_Delay
 1830              	.LVL104:
  44:Core/Src/lte.c **** 	HAL_GPIO_WritePin(RESET_ONOFF_GPIO_Port, RESET_ONOFF_Pin, GPIO_PIN_RESET);
 1831              		.loc 1 44 2 view .LVU537
 1832 0022 0022     		movs	r2, #0
 1833 0024 4021     		movs	r1, #64
 1834 0026 2046     		mov	r0, r4
 1835 0028 FFF7FEFF 		bl	HAL_GPIO_WritePin
 1836              	.LVL105:
  45:Core/Src/lte.c **** }
ARM GAS  C:\Users\jisu8\AppData\Local\Temp\ccJqhSXE.s 			page 54


 1837              		.loc 1 45 1 is_stmt 0 view .LVU538
 1838 002c 10BD     		pop	{r4, pc}
 1839              	.L117:
  37:Core/Src/lte.c ****         Error_Handler();
 1840              		.loc 1 37 9 is_stmt 1 view .LVU539
 1841 002e FFF7FEFF 		bl	Error_Handler
 1842              	.LVL106:
 1843 0032 ECE7     		b	.L115
 1844              	.L119:
 1845              		.align	2
 1846              	.L118:
 1847 0034 00000000 		.word	.LANCHOR23
 1848 0038 00000000 		.word	huart1
 1849 003c 00040048 		.word	1207960576
 1850              		.cfi_endproc
 1851              	.LFE133:
 1853              		.section	.text.LTE_Control,"ax",%progbits
 1854              		.align	1
 1855              		.global	LTE_Control
 1856              		.syntax unified
 1857              		.thumb
 1858              		.thumb_func
 1860              	LTE_Control:
 1861              	.LFB134:
  48:Core/Src/lte.c **** {
 1862              		.loc 1 48 1 view -0
 1863              		.cfi_startproc
 1864              		@ args = 0, pretend = 0, frame = 0
 1865              		@ frame_needed = 0, uses_anonymous_args = 0
 1866 0000 08B5     		push	{r3, lr}
 1867              	.LCFI16:
 1868              		.cfi_def_cfa_offset 8
 1869              		.cfi_offset 3, -8
 1870              		.cfi_offset 14, -4
  49:Core/Src/lte.c ****     LTE_Update_Data();
 1871              		.loc 1 49 5 view .LVU541
 1872 0002 FFF7FEFF 		bl	LTE_Update_Data
 1873              	.LVL107:
  50:Core/Src/lte.c ****     if(LTE_GPS_STEP_FINISH == LTE_GPS_Status)
 1874              		.loc 1 50 5 view .LVU542
  50:Core/Src/lte.c ****     if(LTE_GPS_STEP_FINISH == LTE_GPS_Status)
 1875              		.loc 1 50 28 is_stmt 0 view .LVU543
 1876 0006 044B     		ldr	r3, .L124
 1877 0008 1B78     		ldrb	r3, [r3]	@ zero_extendqisi2
  50:Core/Src/lte.c ****     if(LTE_GPS_STEP_FINISH == LTE_GPS_Status)
 1878              		.loc 1 50 7 view .LVU544
 1879 000a 052B     		cmp	r3, #5
 1880 000c 00D1     		bne	.L123
 1881              	.L120:
  58:Core/Src/lte.c **** }
 1882              		.loc 1 58 1 view .LVU545
 1883 000e 08BD     		pop	{r3, pc}
 1884              	.L123:
  56:Core/Src/lte.c ****         LTE_GPS_Connect();
 1885              		.loc 1 56 9 is_stmt 1 view .LVU546
 1886 0010 FFF7FEFF 		bl	LTE_GPS_Connect
 1887              	.LVL108:
ARM GAS  C:\Users\jisu8\AppData\Local\Temp\ccJqhSXE.s 			page 55


  58:Core/Src/lte.c **** }
 1888              		.loc 1 58 1 is_stmt 0 view .LVU547
 1889 0014 FBE7     		b	.L120
 1890              	.L125:
 1891 0016 00BF     		.align	2
 1892              	.L124:
 1893 0018 00000000 		.word	.LANCHOR20
 1894              		.cfi_endproc
 1895              	.LFE134:
 1897              		.global	LTE_DOOR
 1898              		.global	LTE_GPS_LONG_D
 1899              		.global	LTE_GPS_LAT_D
 1900              		.global	LTE_GPS_LONG_I
 1901              		.global	LTE_GPS_LAT_I
 1902              		.global	LTE_CHAR_D
 1903              		.global	LTE_CHAR_I
 1904              		.global	LTE_DIST_D
 1905              		.global	LTE_DIST_I
 1906              		.global	LTE_HUMI_D
 1907              		.global	LTE_HUMI_I
 1908              		.global	LTE_TEMP_D
 1909              		.global	LTE_TEMP_I
 1910              		.global	LTE_ID
 1911              		.global	LTE_GPS_Status
 1912              		.global	LTE_Status
 1913              		.global	dummy_lte
 1914              		.global	LTE_Rx_Counter
 1915              		.global	LTE_GPS_Buffer
 1916              		.global	LTE_ASCII_Buffer
 1917              		.global	LTE_Rx_Buffer
 1918              		.section	.bss.LTE_ASCII_Buffer,"aw",%nobits
 1919              		.align	2
 1920              		.set	.LANCHOR10,. + 0
 1923              	LTE_ASCII_Buffer:
 1924 0000 00000000 		.space	512
 1924      00000000 
 1924      00000000 
 1924      00000000 
 1924      00000000 
 1925              		.section	.bss.LTE_CHAR_D,"aw",%nobits
 1926              		.align	1
 1927              		.set	.LANCHOR7,. + 0
 1930              	LTE_CHAR_D:
 1931 0000 0000     		.space	2
 1932              		.section	.bss.LTE_CHAR_I,"aw",%nobits
 1933              		.align	1
 1934              		.set	.LANCHOR6,. + 0
 1937              	LTE_CHAR_I:
 1938 0000 0000     		.space	2
 1939              		.section	.bss.LTE_DIST_D,"aw",%nobits
 1940              		.align	1
 1941              		.set	.LANCHOR15,. + 0
 1944              	LTE_DIST_D:
 1945 0000 0000     		.space	2
 1946              		.section	.bss.LTE_DIST_I,"aw",%nobits
 1947              		.align	1
 1948              		.set	.LANCHOR5,. + 0
ARM GAS  C:\Users\jisu8\AppData\Local\Temp\ccJqhSXE.s 			page 56


 1951              	LTE_DIST_I:
 1952 0000 0000     		.space	2
 1953              		.section	.bss.LTE_DOOR,"aw",%nobits
 1954              		.set	.LANCHOR8,. + 0
 1957              	LTE_DOOR:
 1958 0000 00       		.space	1
 1959              		.section	.bss.LTE_GPS_Buffer,"aw",%nobits
 1960              		.align	2
 1961              		.set	.LANCHOR19,. + 0
 1964              	LTE_GPS_Buffer:
 1965 0000 00000000 		.space	100
 1965      00000000 
 1965      00000000 
 1965      00000000 
 1965      00000000 
 1966              		.section	.bss.LTE_GPS_LAT_D,"aw",%nobits
 1967              		.align	2
 1968              		.set	.LANCHOR13,. + 0
 1971              	LTE_GPS_LAT_D:
 1972 0000 00000000 		.space	4
 1973              		.section	.bss.LTE_GPS_LAT_I,"aw",%nobits
 1974              		.align	1
 1975              		.set	.LANCHOR14,. + 0
 1978              	LTE_GPS_LAT_I:
 1979 0000 0000     		.space	2
 1980              		.section	.bss.LTE_GPS_LONG_D,"aw",%nobits
 1981              		.align	2
 1982              		.set	.LANCHOR11,. + 0
 1985              	LTE_GPS_LONG_D:
 1986 0000 00000000 		.space	4
 1987              		.section	.bss.LTE_GPS_LONG_I,"aw",%nobits
 1988              		.align	1
 1989              		.set	.LANCHOR12,. + 0
 1992              	LTE_GPS_LONG_I:
 1993 0000 0000     		.space	2
 1994              		.section	.bss.LTE_GPS_Status,"aw",%nobits
 1995              		.set	.LANCHOR20,. + 0
 1998              	LTE_GPS_Status:
 1999 0000 00       		.space	1
 2000              		.section	.bss.LTE_HUMI_D,"aw",%nobits
 2001              		.align	1
 2002              		.set	.LANCHOR4,. + 0
 2005              	LTE_HUMI_D:
 2006 0000 0000     		.space	2
 2007              		.section	.bss.LTE_HUMI_I,"aw",%nobits
 2008              		.align	1
 2009              		.set	.LANCHOR3,. + 0
 2012              	LTE_HUMI_I:
 2013 0000 0000     		.space	2
 2014              		.section	.bss.LTE_Rx_Buffer,"aw",%nobits
 2015              		.align	2
 2016              		.set	.LANCHOR17,. + 0
 2019              	LTE_Rx_Buffer:
 2020 0000 00000000 		.space	1024
 2020      00000000 
 2020      00000000 
 2020      00000000 
ARM GAS  C:\Users\jisu8\AppData\Local\Temp\ccJqhSXE.s 			page 57


 2020      00000000 
 2021              		.section	.bss.LTE_Rx_Counter,"aw",%nobits
 2022              		.align	1
 2023              		.set	.LANCHOR16,. + 0
 2026              	LTE_Rx_Counter:
 2027 0000 0000     		.space	2
 2028              		.section	.bss.LTE_Status,"aw",%nobits
 2031              	LTE_Status:
 2032 0000 00       		.space	1
 2033              		.section	.bss.LTE_TEMP_D,"aw",%nobits
 2034              		.align	1
 2035              		.set	.LANCHOR2,. + 0
 2038              	LTE_TEMP_D:
 2039 0000 0000     		.space	2
 2040              		.section	.bss.LTE_TEMP_I,"aw",%nobits
 2041              		.align	1
 2042              		.set	.LANCHOR1,. + 0
 2045              	LTE_TEMP_I:
 2046 0000 0000     		.space	2
 2047              		.section	.bss.dummy_lte,"aw",%nobits
 2048              		.set	.LANCHOR23,. + 0
 2051              	dummy_lte:
 2052 0000 00       		.space	1
 2053              		.section	.bss.fail_counter.1,"aw",%nobits
 2054              		.set	.LANCHOR18,. + 0
 2057              	fail_counter.1:
 2058 0000 00       		.space	1
 2059              		.section	.bss.stDelay.2,"aw",%nobits
 2060              		.set	.LANCHOR22,. + 0
 2063              	stDelay.2:
 2064 0000 00       		.space	1
 2065              		.section	.bss.timer.0,"aw",%nobits
 2066              		.align	1
 2067              		.set	.LANCHOR0,. + 0
 2070              	timer.0:
 2071 0000 0000     		.space	2
 2072              		.section	.bss.uart_status.3,"aw",%nobits
 2073              		.set	.LANCHOR21,. + 0
 2076              	uart_status.3:
 2077 0000 00       		.space	1
 2078              		.section	.data.LTE_ID,"aw"
 2079              		.align	2
 2080              		.set	.LANCHOR9,. + 0
 2083              	LTE_ID:
 2084 0000 534E5F46 		.ascii	"SN_FM4_TEST_002\000"
 2084      4D345F54 
 2084      4553545F 
 2084      30303200 
 2085              		.text
 2086              	.Letext0:
 2087              		.file 2 "d:\\3.tools\\arm_gcc_toolchain\\arm-none-eabi\\include\\machine\\_default_types.h"
 2088              		.file 3 "d:\\3.tools\\arm_gcc_toolchain\\arm-none-eabi\\include\\sys\\_stdint.h"
 2089              		.file 4 "Drivers/CMSIS/Device/ST/STM32F3xx/Include/stm32f303xc.h"
 2090              		.file 5 "Drivers/STM32F3xx_HAL_Driver/Inc/stm32f3xx_hal_def.h"
 2091              		.file 6 "Drivers/STM32F3xx_HAL_Driver/Inc/stm32f3xx_hal_gpio.h"
 2092              		.file 7 "Drivers/STM32F3xx_HAL_Driver/Inc/stm32f3xx_hal_dma.h"
 2093              		.file 8 "Drivers/STM32F3xx_HAL_Driver/Inc/stm32f3xx_hal_rtc.h"
ARM GAS  C:\Users\jisu8\AppData\Local\Temp\ccJqhSXE.s 			page 58


 2094              		.file 9 "Drivers/STM32F3xx_HAL_Driver/Inc/stm32f3xx_hal_uart.h"
 2095              		.file 10 "Core/Inc/main.h"
 2096              		.file 11 "Core/Inc/lte.h"
 2097              		.file 12 "Core/Inc/dht11.h"
 2098              		.file 13 "Core/Inc/lidar.h"
 2099              		.file 14 "Core/Inc/device.h"
 2100              		.file 15 "d:\\3.tools\\arm_gcc_toolchain\\arm-none-eabi\\include\\string.h"
 2101              		.file 16 "<built-in>"
 2102              		.file 17 "Drivers/STM32F3xx_HAL_Driver/Inc/stm32f3xx_hal_cortex.h"
 2103              		.file 18 "d:\\3.tools\\arm_gcc_toolchain\\arm-none-eabi\\include\\stdio.h"
 2104              		.file 19 "Drivers/STM32F3xx_HAL_Driver/Inc/stm32f3xx_hal.h"
ARM GAS  C:\Users\jisu8\AppData\Local\Temp\ccJqhSXE.s 			page 59


DEFINED SYMBOLS
                            *ABS*:00000000 lte.c
C:\Users\jisu8\AppData\Local\Temp\ccJqhSXE.s:20     .text.LTE_Delay:00000000 $t
C:\Users\jisu8\AppData\Local\Temp\ccJqhSXE.s:25     .text.LTE_Delay:00000000 LTE_Delay
C:\Users\jisu8\AppData\Local\Temp\ccJqhSXE.s:75     .text.LTE_Delay:00000024 $d
C:\Users\jisu8\AppData\Local\Temp\ccJqhSXE.s:81     .rodata.LTE_Update_Data.str1.4:00000000 $d
C:\Users\jisu8\AppData\Local\Temp\ccJqhSXE.s:92     .text.LTE_Update_Data:00000000 $t
C:\Users\jisu8\AppData\Local\Temp\ccJqhSXE.s:97     .text.LTE_Update_Data:00000000 LTE_Update_Data
C:\Users\jisu8\AppData\Local\Temp\ccJqhSXE.s:319    .text.LTE_Update_Data:00000180 $d
C:\Users\jisu8\AppData\Local\Temp\ccJqhSXE.s:347    .text.LTE_Transmit:00000000 $t
C:\Users\jisu8\AppData\Local\Temp\ccJqhSXE.s:352    .text.LTE_Transmit:00000000 LTE_Transmit
C:\Users\jisu8\AppData\Local\Temp\ccJqhSXE.s:396    .text.LTE_Transmit:00000028 $d
C:\Users\jisu8\AppData\Local\Temp\ccJqhSXE.s:402    .text.LTE_OK_Check:00000000 $t
C:\Users\jisu8\AppData\Local\Temp\ccJqhSXE.s:407    .text.LTE_OK_Check:00000000 LTE_OK_Check
C:\Users\jisu8\AppData\Local\Temp\ccJqhSXE.s:541    .text.LTE_OK_Check:00000080 $d
C:\Users\jisu8\AppData\Local\Temp\ccJqhSXE.s:548    .text.LTE_Receive_Check:00000000 $t
C:\Users\jisu8\AppData\Local\Temp\ccJqhSXE.s:553    .text.LTE_Receive_Check:00000000 LTE_Receive_Check
C:\Users\jisu8\AppData\Local\Temp\ccJqhSXE.s:616    .text.LTE_Receive_Check:0000002c $d
C:\Users\jisu8\AppData\Local\Temp\ccJqhSXE.s:621    .text.LTE_GPS_Receive_Data:00000000 $t
C:\Users\jisu8\AppData\Local\Temp\ccJqhSXE.s:626    .text.LTE_GPS_Receive_Data:00000000 LTE_GPS_Receive_Data
C:\Users\jisu8\AppData\Local\Temp\ccJqhSXE.s:887    .text.LTE_GPS_Receive_Data:00000110 $d
C:\Users\jisu8\AppData\Local\Temp\ccJqhSXE.s:896    .text.LTE_GPS_Update_Data:00000000 $t
C:\Users\jisu8\AppData\Local\Temp\ccJqhSXE.s:901    .text.LTE_GPS_Update_Data:00000000 LTE_GPS_Update_Data
C:\Users\jisu8\AppData\Local\Temp\ccJqhSXE.s:1456   .text.LTE_GPS_Update_Data:0000029c $d
C:\Users\jisu8\AppData\Local\Temp\ccJqhSXE.s:1468   .rodata.LTE_GPS_Connect.str1.4:00000000 $d
C:\Users\jisu8\AppData\Local\Temp\ccJqhSXE.s:1478   .text.LTE_GPS_Connect:00000000 $t
C:\Users\jisu8\AppData\Local\Temp\ccJqhSXE.s:1483   .text.LTE_GPS_Connect:00000000 LTE_GPS_Connect
C:\Users\jisu8\AppData\Local\Temp\ccJqhSXE.s:1514   .text.LTE_GPS_Connect:0000001e $d
C:\Users\jisu8\AppData\Local\Temp\ccJqhSXE.s:1783   .text.LTE_GPS_Connect:0000016c $d
C:\Users\jisu8\AppData\Local\Temp\ccJqhSXE.s:1793   .text.LTE_Init:00000000 $t
C:\Users\jisu8\AppData\Local\Temp\ccJqhSXE.s:1799   .text.LTE_Init:00000000 LTE_Init
C:\Users\jisu8\AppData\Local\Temp\ccJqhSXE.s:1847   .text.LTE_Init:00000034 $d
C:\Users\jisu8\AppData\Local\Temp\ccJqhSXE.s:1854   .text.LTE_Control:00000000 $t
C:\Users\jisu8\AppData\Local\Temp\ccJqhSXE.s:1860   .text.LTE_Control:00000000 LTE_Control
C:\Users\jisu8\AppData\Local\Temp\ccJqhSXE.s:1893   .text.LTE_Control:00000018 $d
C:\Users\jisu8\AppData\Local\Temp\ccJqhSXE.s:1957   .bss.LTE_DOOR:00000000 LTE_DOOR
C:\Users\jisu8\AppData\Local\Temp\ccJqhSXE.s:1985   .bss.LTE_GPS_LONG_D:00000000 LTE_GPS_LONG_D
C:\Users\jisu8\AppData\Local\Temp\ccJqhSXE.s:1971   .bss.LTE_GPS_LAT_D:00000000 LTE_GPS_LAT_D
C:\Users\jisu8\AppData\Local\Temp\ccJqhSXE.s:1992   .bss.LTE_GPS_LONG_I:00000000 LTE_GPS_LONG_I
C:\Users\jisu8\AppData\Local\Temp\ccJqhSXE.s:1978   .bss.LTE_GPS_LAT_I:00000000 LTE_GPS_LAT_I
C:\Users\jisu8\AppData\Local\Temp\ccJqhSXE.s:1930   .bss.LTE_CHAR_D:00000000 LTE_CHAR_D
C:\Users\jisu8\AppData\Local\Temp\ccJqhSXE.s:1937   .bss.LTE_CHAR_I:00000000 LTE_CHAR_I
C:\Users\jisu8\AppData\Local\Temp\ccJqhSXE.s:1944   .bss.LTE_DIST_D:00000000 LTE_DIST_D
C:\Users\jisu8\AppData\Local\Temp\ccJqhSXE.s:1951   .bss.LTE_DIST_I:00000000 LTE_DIST_I
C:\Users\jisu8\AppData\Local\Temp\ccJqhSXE.s:2005   .bss.LTE_HUMI_D:00000000 LTE_HUMI_D
C:\Users\jisu8\AppData\Local\Temp\ccJqhSXE.s:2012   .bss.LTE_HUMI_I:00000000 LTE_HUMI_I
C:\Users\jisu8\AppData\Local\Temp\ccJqhSXE.s:2038   .bss.LTE_TEMP_D:00000000 LTE_TEMP_D
C:\Users\jisu8\AppData\Local\Temp\ccJqhSXE.s:2045   .bss.LTE_TEMP_I:00000000 LTE_TEMP_I
C:\Users\jisu8\AppData\Local\Temp\ccJqhSXE.s:2083   .data.LTE_ID:00000000 LTE_ID
C:\Users\jisu8\AppData\Local\Temp\ccJqhSXE.s:1998   .bss.LTE_GPS_Status:00000000 LTE_GPS_Status
C:\Users\jisu8\AppData\Local\Temp\ccJqhSXE.s:2031   .bss.LTE_Status:00000000 LTE_Status
C:\Users\jisu8\AppData\Local\Temp\ccJqhSXE.s:2051   .bss.dummy_lte:00000000 dummy_lte
C:\Users\jisu8\AppData\Local\Temp\ccJqhSXE.s:2026   .bss.LTE_Rx_Counter:00000000 LTE_Rx_Counter
C:\Users\jisu8\AppData\Local\Temp\ccJqhSXE.s:1964   .bss.LTE_GPS_Buffer:00000000 LTE_GPS_Buffer
C:\Users\jisu8\AppData\Local\Temp\ccJqhSXE.s:1923   .bss.LTE_ASCII_Buffer:00000000 LTE_ASCII_Buffer
C:\Users\jisu8\AppData\Local\Temp\ccJqhSXE.s:2019   .bss.LTE_Rx_Buffer:00000000 LTE_Rx_Buffer
C:\Users\jisu8\AppData\Local\Temp\ccJqhSXE.s:1919   .bss.LTE_ASCII_Buffer:00000000 $d
ARM GAS  C:\Users\jisu8\AppData\Local\Temp\ccJqhSXE.s 			page 60


C:\Users\jisu8\AppData\Local\Temp\ccJqhSXE.s:1926   .bss.LTE_CHAR_D:00000000 $d
C:\Users\jisu8\AppData\Local\Temp\ccJqhSXE.s:1933   .bss.LTE_CHAR_I:00000000 $d
C:\Users\jisu8\AppData\Local\Temp\ccJqhSXE.s:1940   .bss.LTE_DIST_D:00000000 $d
C:\Users\jisu8\AppData\Local\Temp\ccJqhSXE.s:1947   .bss.LTE_DIST_I:00000000 $d
C:\Users\jisu8\AppData\Local\Temp\ccJqhSXE.s:1958   .bss.LTE_DOOR:00000000 $d
C:\Users\jisu8\AppData\Local\Temp\ccJqhSXE.s:1960   .bss.LTE_GPS_Buffer:00000000 $d
C:\Users\jisu8\AppData\Local\Temp\ccJqhSXE.s:1967   .bss.LTE_GPS_LAT_D:00000000 $d
C:\Users\jisu8\AppData\Local\Temp\ccJqhSXE.s:1974   .bss.LTE_GPS_LAT_I:00000000 $d
C:\Users\jisu8\AppData\Local\Temp\ccJqhSXE.s:1981   .bss.LTE_GPS_LONG_D:00000000 $d
C:\Users\jisu8\AppData\Local\Temp\ccJqhSXE.s:1988   .bss.LTE_GPS_LONG_I:00000000 $d
C:\Users\jisu8\AppData\Local\Temp\ccJqhSXE.s:1999   .bss.LTE_GPS_Status:00000000 $d
C:\Users\jisu8\AppData\Local\Temp\ccJqhSXE.s:2001   .bss.LTE_HUMI_D:00000000 $d
C:\Users\jisu8\AppData\Local\Temp\ccJqhSXE.s:2008   .bss.LTE_HUMI_I:00000000 $d
C:\Users\jisu8\AppData\Local\Temp\ccJqhSXE.s:2015   .bss.LTE_Rx_Buffer:00000000 $d
C:\Users\jisu8\AppData\Local\Temp\ccJqhSXE.s:2022   .bss.LTE_Rx_Counter:00000000 $d
C:\Users\jisu8\AppData\Local\Temp\ccJqhSXE.s:2032   .bss.LTE_Status:00000000 $d
C:\Users\jisu8\AppData\Local\Temp\ccJqhSXE.s:2034   .bss.LTE_TEMP_D:00000000 $d
C:\Users\jisu8\AppData\Local\Temp\ccJqhSXE.s:2041   .bss.LTE_TEMP_I:00000000 $d
C:\Users\jisu8\AppData\Local\Temp\ccJqhSXE.s:2052   .bss.dummy_lte:00000000 $d
C:\Users\jisu8\AppData\Local\Temp\ccJqhSXE.s:2057   .bss.fail_counter.1:00000000 fail_counter.1
C:\Users\jisu8\AppData\Local\Temp\ccJqhSXE.s:2058   .bss.fail_counter.1:00000000 $d
C:\Users\jisu8\AppData\Local\Temp\ccJqhSXE.s:2063   .bss.stDelay.2:00000000 stDelay.2
C:\Users\jisu8\AppData\Local\Temp\ccJqhSXE.s:2064   .bss.stDelay.2:00000000 $d
C:\Users\jisu8\AppData\Local\Temp\ccJqhSXE.s:2066   .bss.timer.0:00000000 $d
C:\Users\jisu8\AppData\Local\Temp\ccJqhSXE.s:2070   .bss.timer.0:00000000 timer.0
C:\Users\jisu8\AppData\Local\Temp\ccJqhSXE.s:2076   .bss.uart_status.3:00000000 uart_status.3
C:\Users\jisu8\AppData\Local\Temp\ccJqhSXE.s:2077   .bss.uart_status.3:00000000 $d
C:\Users\jisu8\AppData\Local\Temp\ccJqhSXE.s:2079   .data.LTE_ID:00000000 $d
C:\Users\jisu8\AppData\Local\Temp\ccJqhSXE.s:1519   .text.LTE_GPS_Connect:00000023 $d
C:\Users\jisu8\AppData\Local\Temp\ccJqhSXE.s:1519   .text.LTE_GPS_Connect:00000024 $t

UNDEFINED SYMBOLS
DHT_getData
sprintf
Lidar_Distance
Device_Batt_Voltage
Device_Sensor_Signal
strlen
HAL_UART_Transmit
huart1
huart3
memset
HAL_NVIC_SystemReset
memcpy
HAL_RTC_SetTime
HAL_RTC_SetDate
hrtc
HAL_UART_Receive_IT
HAL_GPIO_WritePin
HAL_Delay
Error_Handler
