ARM GAS  C:\Users\jisu8\AppData\Local\Temp\ccPyvDcJ.s 			page 1


   1              		.cpu cortex-m4
   2              		.arch armv7e-m
   3              		.fpu fpv4-sp-d16
   4              		.eabi_attribute 27, 1
   5              		.eabi_attribute 28, 1
   6              		.eabi_attribute 20, 1
   7              		.eabi_attribute 21, 1
   8              		.eabi_attribute 23, 3
   9              		.eabi_attribute 24, 1
  10              		.eabi_attribute 25, 1
  11              		.eabi_attribute 26, 1
  12              		.eabi_attribute 30, 1
  13              		.eabi_attribute 34, 1
  14              		.eabi_attribute 18, 4
  15              		.file	"main.c"
  16              		.text
  17              	.Ltext0:
  18              		.cfi_sections	.debug_frame
  19              		.section	.text.MX_GPIO_Init,"ax",%progbits
  20              		.align	1
  21              		.syntax unified
  22              		.thumb
  23              		.thumb_func
  25              	MX_GPIO_Init:
  26              	.LFB145:
  27              		.file 1 "Core/Src/main.c"
   1:Core/Src/main.c **** /* USER CODE BEGIN Header */
   2:Core/Src/main.c **** /**
   3:Core/Src/main.c ****   ******************************************************************************
   4:Core/Src/main.c ****   * @file           : main.c
   5:Core/Src/main.c ****   * @brief          : Main program body
   6:Core/Src/main.c ****   ******************************************************************************
   7:Core/Src/main.c ****   * @attention
   8:Core/Src/main.c ****   *
   9:Core/Src/main.c ****   * Copyright (c) 2022 STMicroelectronics.
  10:Core/Src/main.c ****   * All rights reserved.
  11:Core/Src/main.c ****   *
  12:Core/Src/main.c ****   * This software is licensed under terms that can be found in the LICENSE file
  13:Core/Src/main.c ****   * in the root directory of this software component.
  14:Core/Src/main.c ****   * If no LICENSE file comes with this software, it is provided AS-IS.
  15:Core/Src/main.c ****   *
  16:Core/Src/main.c ****   ******************************************************************************
  17:Core/Src/main.c ****   */
  18:Core/Src/main.c **** /* USER CODE END Header */
  19:Core/Src/main.c **** /* Includes ------------------------------------------------------------------*/
  20:Core/Src/main.c **** #include "main.h"
  21:Core/Src/main.c **** #include "os.h"
  22:Core/Src/main.c **** 
  23:Core/Src/main.c **** /* Private includes ----------------------------------------------------------*/
  24:Core/Src/main.c **** /* USER CODE BEGIN Includes */
  25:Core/Src/main.c **** 
  26:Core/Src/main.c **** /* USER CODE END Includes */
  27:Core/Src/main.c **** 
  28:Core/Src/main.c **** /* Private typedef -----------------------------------------------------------*/
  29:Core/Src/main.c **** /* USER CODE BEGIN PTD */
  30:Core/Src/main.c **** 
  31:Core/Src/main.c **** /* USER CODE END PTD */
ARM GAS  C:\Users\jisu8\AppData\Local\Temp\ccPyvDcJ.s 			page 2


  32:Core/Src/main.c **** 
  33:Core/Src/main.c **** /* Private define ------------------------------------------------------------*/
  34:Core/Src/main.c **** /* USER CODE BEGIN PD */
  35:Core/Src/main.c **** /* USER CODE END PD */
  36:Core/Src/main.c **** 
  37:Core/Src/main.c **** /* Private macro -------------------------------------------------------------*/
  38:Core/Src/main.c **** /* USER CODE BEGIN PM */
  39:Core/Src/main.c **** 
  40:Core/Src/main.c **** /* USER CODE END PM */
  41:Core/Src/main.c **** 
  42:Core/Src/main.c **** /* Private variables ---------------------------------------------------------*/
  43:Core/Src/main.c **** ADC_HandleTypeDef hadc2;
  44:Core/Src/main.c **** DMA_HandleTypeDef hdma_adc2;
  45:Core/Src/main.c **** RTC_HandleTypeDef hrtc;
  46:Core/Src/main.c **** SPI_HandleTypeDef hspi2;
  47:Core/Src/main.c **** TIM_HandleTypeDef htim3;
  48:Core/Src/main.c **** TIM_HandleTypeDef htim16;
  49:Core/Src/main.c **** TIM_HandleTypeDef htim17;
  50:Core/Src/main.c **** UART_HandleTypeDef huart1;
  51:Core/Src/main.c **** UART_HandleTypeDef huart2;
  52:Core/Src/main.c **** UART_HandleTypeDef huart3;
  53:Core/Src/main.c **** DMA_HandleTypeDef hdma_usart1_rx;
  54:Core/Src/main.c **** DMA_HandleTypeDef hdma_usart2_rx;
  55:Core/Src/main.c **** DMA_HandleTypeDef hdma_usart3_rx;
  56:Core/Src/main.c **** 
  57:Core/Src/main.c **** /* USER CODE BEGIN PV */
  58:Core/Src/main.c **** 
  59:Core/Src/main.c **** /* USER CODE END PV */
  60:Core/Src/main.c **** 
  61:Core/Src/main.c **** /* Private function prototypes -----------------------------------------------*/
  62:Core/Src/main.c **** void SystemClock_Config(void);
  63:Core/Src/main.c **** static void MX_GPIO_Init(void);
  64:Core/Src/main.c **** static void MX_DMA_Init(void);
  65:Core/Src/main.c **** static void MX_ADC2_Init(void);
  66:Core/Src/main.c **** static void MX_SPI2_Init(void);
  67:Core/Src/main.c **** static void MX_USART1_UART_Init(void);
  68:Core/Src/main.c **** static void MX_USART2_UART_Init(void);
  69:Core/Src/main.c **** static void MX_USART3_UART_Init(void);
  70:Core/Src/main.c **** static void MX_TIM3_Init(void);
  71:Core/Src/main.c **** static void MX_RTC_Init(void);
  72:Core/Src/main.c **** static void MX_TIM16_Init(void);
  73:Core/Src/main.c **** static void MX_TIM17_Init(void);
  74:Core/Src/main.c **** /* USER CODE BEGIN PFP */
  75:Core/Src/main.c **** 
  76:Core/Src/main.c **** /* USER CODE END PFP */
  77:Core/Src/main.c **** 
  78:Core/Src/main.c **** /* Private user code ---------------------------------------------------------*/
  79:Core/Src/main.c **** /* USER CODE BEGIN 0 */
  80:Core/Src/main.c **** 
  81:Core/Src/main.c **** /* USER CODE END 0 */
  82:Core/Src/main.c **** 
  83:Core/Src/main.c **** /**
  84:Core/Src/main.c ****   * @brief  The application entry point.
  85:Core/Src/main.c ****   * @retval int
  86:Core/Src/main.c ****   */
  87:Core/Src/main.c **** int main(void)
  88:Core/Src/main.c **** {
ARM GAS  C:\Users\jisu8\AppData\Local\Temp\ccPyvDcJ.s 			page 3


  89:Core/Src/main.c ****   /* USER CODE BEGIN 1 */
  90:Core/Src/main.c **** 
  91:Core/Src/main.c ****   /* USER CODE END 1 */
  92:Core/Src/main.c **** 
  93:Core/Src/main.c ****   /* MCU Configuration--------------------------------------------------------*/
  94:Core/Src/main.c **** 
  95:Core/Src/main.c ****   /* Reset of all peripherals, Initializes the Flash interface and the Systick. */
  96:Core/Src/main.c ****   HAL_Init();
  97:Core/Src/main.c **** 
  98:Core/Src/main.c ****   /* USER CODE BEGIN Init */
  99:Core/Src/main.c **** 
 100:Core/Src/main.c ****   /* USER CODE END Init */
 101:Core/Src/main.c **** 
 102:Core/Src/main.c ****   /* Configure the system clock */
 103:Core/Src/main.c ****   SystemClock_Config();
 104:Core/Src/main.c **** 
 105:Core/Src/main.c ****   /* USER CODE BEGIN SysInit */
 106:Core/Src/main.c **** 
 107:Core/Src/main.c ****   /* USER CODE END SysInit */
 108:Core/Src/main.c **** 
 109:Core/Src/main.c ****   /* Initialize all configured peripherals */
 110:Core/Src/main.c ****   MX_GPIO_Init();
 111:Core/Src/main.c ****   MX_DMA_Init();
 112:Core/Src/main.c ****   MX_ADC2_Init();
 113:Core/Src/main.c ****   MX_SPI2_Init();
 114:Core/Src/main.c ****   MX_USART1_UART_Init();
 115:Core/Src/main.c ****   MX_USART2_UART_Init();
 116:Core/Src/main.c ****   MX_USART3_UART_Init();
 117:Core/Src/main.c ****   MX_TIM3_Init();
 118:Core/Src/main.c ****   MX_RTC_Init();
 119:Core/Src/main.c ****   MX_TIM16_Init();
 120:Core/Src/main.c ****   MX_TIM17_Init();
 121:Core/Src/main.c ****   /* USER CODE BEGIN 2 */
 122:Core/Src/main.c ****   HAL_TIM_Base_Start_IT(&htim16);
 123:Core/Src/main.c ****   HAL_TIM_Base_Start_IT(&htim17);
 124:Core/Src/main.c ****   Os_Init_Task();
 125:Core/Src/main.c ****   /* USER CODE END 2 */
 126:Core/Src/main.c ****   /* Infinite loop */
 127:Core/Src/main.c ****   /* USER CODE BEGIN WHILE */
 128:Core/Src/main.c ****   while (1)
 129:Core/Src/main.c ****   {
 130:Core/Src/main.c ****     /* USER CODE END WHILE */
 131:Core/Src/main.c ****     Os_Handler();
 132:Core/Src/main.c ****     /* USER CODE BEGIN 3 */
 133:Core/Src/main.c ****   }
 134:Core/Src/main.c ****   /* USER CODE END 3 */
 135:Core/Src/main.c **** }
 136:Core/Src/main.c **** 
 137:Core/Src/main.c **** /**
 138:Core/Src/main.c ****   * @brief System Clock Configuration
 139:Core/Src/main.c ****   * @retval None
 140:Core/Src/main.c ****   */
 141:Core/Src/main.c **** void SystemClock_Config(void)
 142:Core/Src/main.c **** {
 143:Core/Src/main.c ****   RCC_OscInitTypeDef RCC_OscInitStruct = {0};
 144:Core/Src/main.c ****   RCC_ClkInitTypeDef RCC_ClkInitStruct = {0};
 145:Core/Src/main.c ****   RCC_PeriphCLKInitTypeDef PeriphClkInit = {0};
ARM GAS  C:\Users\jisu8\AppData\Local\Temp\ccPyvDcJ.s 			page 4


 146:Core/Src/main.c **** 
 147:Core/Src/main.c ****   /** Initializes the RCC Oscillators according to the specified parameters
 148:Core/Src/main.c ****   * in the RCC_OscInitTypeDef structure.
 149:Core/Src/main.c ****   */
 150:Core/Src/main.c ****   RCC_OscInitStruct.OscillatorType = RCC_OSCILLATORTYPE_HSE;
 151:Core/Src/main.c ****   RCC_OscInitStruct.HSEState = RCC_HSE_ON;
 152:Core/Src/main.c ****   RCC_OscInitStruct.HSEPredivValue = RCC_HSE_PREDIV_DIV1;
 153:Core/Src/main.c ****   RCC_OscInitStruct.HSIState = RCC_HSI_ON;
 154:Core/Src/main.c ****   RCC_OscInitStruct.PLL.PLLState = RCC_PLL_ON;
 155:Core/Src/main.c ****   RCC_OscInitStruct.PLL.PLLSource = RCC_PLLSOURCE_HSE;
 156:Core/Src/main.c ****   RCC_OscInitStruct.PLL.PLLMUL = RCC_PLL_MUL9;
 157:Core/Src/main.c ****   if (HAL_RCC_OscConfig(&RCC_OscInitStruct) != HAL_OK)
 158:Core/Src/main.c ****   {
 159:Core/Src/main.c ****     Error_Handler();
 160:Core/Src/main.c ****   }
 161:Core/Src/main.c **** 
 162:Core/Src/main.c ****   /** Initializes the CPU, AHB and APB buses clocks
 163:Core/Src/main.c ****   */
 164:Core/Src/main.c ****   RCC_ClkInitStruct.ClockType = RCC_CLOCKTYPE_HCLK|RCC_CLOCKTYPE_SYSCLK
 165:Core/Src/main.c ****                               |RCC_CLOCKTYPE_PCLK1|RCC_CLOCKTYPE_PCLK2;
 166:Core/Src/main.c ****   RCC_ClkInitStruct.SYSCLKSource = RCC_SYSCLKSOURCE_PLLCLK;
 167:Core/Src/main.c ****   RCC_ClkInitStruct.AHBCLKDivider = RCC_SYSCLK_DIV1;
 168:Core/Src/main.c ****   RCC_ClkInitStruct.APB1CLKDivider = RCC_HCLK_DIV2;
 169:Core/Src/main.c ****   RCC_ClkInitStruct.APB2CLKDivider = RCC_HCLK_DIV1;
 170:Core/Src/main.c **** 
 171:Core/Src/main.c ****   if (HAL_RCC_ClockConfig(&RCC_ClkInitStruct, FLASH_LATENCY_2) != HAL_OK)
 172:Core/Src/main.c ****   {
 173:Core/Src/main.c ****     Error_Handler();
 174:Core/Src/main.c ****   }
 175:Core/Src/main.c ****   PeriphClkInit.PeriphClockSelection = RCC_PERIPHCLK_USART1|RCC_PERIPHCLK_USART2
 176:Core/Src/main.c ****                               |RCC_PERIPHCLK_USART3|RCC_PERIPHCLK_RTC
 177:Core/Src/main.c ****                               |RCC_PERIPHCLK_ADC12;
 178:Core/Src/main.c ****   PeriphClkInit.Usart1ClockSelection = RCC_USART1CLKSOURCE_PCLK2;
 179:Core/Src/main.c ****   PeriphClkInit.Usart2ClockSelection = RCC_USART2CLKSOURCE_PCLK1;
 180:Core/Src/main.c ****   PeriphClkInit.Usart3ClockSelection = RCC_USART3CLKSOURCE_PCLK1;
 181:Core/Src/main.c ****   PeriphClkInit.Adc12ClockSelection = RCC_ADC12PLLCLK_DIV1;
 182:Core/Src/main.c ****   PeriphClkInit.RTCClockSelection = RCC_RTCCLKSOURCE_HSE_DIV32;
 183:Core/Src/main.c ****   if (HAL_RCCEx_PeriphCLKConfig(&PeriphClkInit) != HAL_OK)
 184:Core/Src/main.c ****   {
 185:Core/Src/main.c ****     Error_Handler();
 186:Core/Src/main.c ****   }
 187:Core/Src/main.c **** }
 188:Core/Src/main.c **** 
 189:Core/Src/main.c **** /**
 190:Core/Src/main.c ****   * @brief ADC2 Initialization Function
 191:Core/Src/main.c ****   * @param None
 192:Core/Src/main.c ****   * @retval None
 193:Core/Src/main.c ****   */
 194:Core/Src/main.c **** static void MX_ADC2_Init(void)
 195:Core/Src/main.c **** {
 196:Core/Src/main.c **** 
 197:Core/Src/main.c ****   /* USER CODE BEGIN ADC2_Init 0 */
 198:Core/Src/main.c **** 
 199:Core/Src/main.c ****   /* USER CODE END ADC2_Init 0 */
 200:Core/Src/main.c **** 
 201:Core/Src/main.c ****   ADC_ChannelConfTypeDef sConfig = {0};
 202:Core/Src/main.c **** 
ARM GAS  C:\Users\jisu8\AppData\Local\Temp\ccPyvDcJ.s 			page 5


 203:Core/Src/main.c ****   /* USER CODE BEGIN ADC2_Init 1 */
 204:Core/Src/main.c **** 
 205:Core/Src/main.c ****   /* USER CODE END ADC2_Init 1 */
 206:Core/Src/main.c **** 
 207:Core/Src/main.c ****   /** Common config
 208:Core/Src/main.c ****   */
 209:Core/Src/main.c ****   hadc2.Instance = ADC2;
 210:Core/Src/main.c ****   hadc2.Init.ClockPrescaler = ADC_CLOCK_ASYNC_DIV1;
 211:Core/Src/main.c ****   hadc2.Init.Resolution = ADC_RESOLUTION_12B;
 212:Core/Src/main.c ****   hadc2.Init.ScanConvMode = ADC_SCAN_DISABLE;
 213:Core/Src/main.c ****   hadc2.Init.ContinuousConvMode = ENABLE;
 214:Core/Src/main.c ****   hadc2.Init.DiscontinuousConvMode = DISABLE;
 215:Core/Src/main.c ****   hadc2.Init.ExternalTrigConvEdge = ADC_EXTERNALTRIGCONVEDGE_NONE;
 216:Core/Src/main.c ****   hadc2.Init.ExternalTrigConv = ADC_SOFTWARE_START;
 217:Core/Src/main.c ****   hadc2.Init.DataAlign = ADC_DATAALIGN_RIGHT;
 218:Core/Src/main.c ****   hadc2.Init.NbrOfConversion = 1;
 219:Core/Src/main.c ****   hadc2.Init.DMAContinuousRequests = DISABLE;
 220:Core/Src/main.c ****   hadc2.Init.EOCSelection = ADC_EOC_SINGLE_CONV;
 221:Core/Src/main.c ****   hadc2.Init.LowPowerAutoWait = DISABLE;
 222:Core/Src/main.c ****   hadc2.Init.Overrun = ADC_OVR_DATA_OVERWRITTEN;
 223:Core/Src/main.c ****   if (HAL_ADC_Init(&hadc2) != HAL_OK)
 224:Core/Src/main.c ****   {
 225:Core/Src/main.c ****     Error_Handler();
 226:Core/Src/main.c ****   }
 227:Core/Src/main.c **** 
 228:Core/Src/main.c ****   /** Configure Regular Channel
 229:Core/Src/main.c ****   */
 230:Core/Src/main.c ****   sConfig.Channel = ADC_CHANNEL_3;
 231:Core/Src/main.c ****   sConfig.Rank = ADC_REGULAR_RANK_1;
 232:Core/Src/main.c ****   sConfig.SingleDiff = ADC_SINGLE_ENDED;
 233:Core/Src/main.c ****   sConfig.SamplingTime = ADC_SAMPLETIME_19CYCLES_5;
 234:Core/Src/main.c ****   sConfig.OffsetNumber = ADC_OFFSET_NONE;
 235:Core/Src/main.c ****   sConfig.Offset = 0;
 236:Core/Src/main.c ****   if (HAL_ADC_ConfigChannel(&hadc2, &sConfig) != HAL_OK)
 237:Core/Src/main.c ****   {
 238:Core/Src/main.c ****     Error_Handler();
 239:Core/Src/main.c ****   }
 240:Core/Src/main.c ****   /* USER CODE BEGIN ADC2_Init 2 */
 241:Core/Src/main.c **** 
 242:Core/Src/main.c ****   /* USER CODE END ADC2_Init 2 */
 243:Core/Src/main.c **** 
 244:Core/Src/main.c **** }
 245:Core/Src/main.c **** 
 246:Core/Src/main.c **** /**
 247:Core/Src/main.c ****   * @brief RTC Initialization Function
 248:Core/Src/main.c ****   * @param None
 249:Core/Src/main.c ****   * @retval None
 250:Core/Src/main.c ****   */
 251:Core/Src/main.c **** static void MX_RTC_Init(void)
 252:Core/Src/main.c **** {
 253:Core/Src/main.c **** 
 254:Core/Src/main.c ****   /* USER CODE BEGIN RTC_Init 0 */
 255:Core/Src/main.c **** 
 256:Core/Src/main.c ****   /* USER CODE END RTC_Init 0 */
 257:Core/Src/main.c **** 
 258:Core/Src/main.c ****   RTC_TimeTypeDef sTime = {0};
 259:Core/Src/main.c ****   RTC_DateTypeDef sDate = {0};
ARM GAS  C:\Users\jisu8\AppData\Local\Temp\ccPyvDcJ.s 			page 6


 260:Core/Src/main.c **** 
 261:Core/Src/main.c ****   /* USER CODE BEGIN RTC_Init 1 */
 262:Core/Src/main.c **** 
 263:Core/Src/main.c ****   /* USER CODE END RTC_Init 1 */
 264:Core/Src/main.c **** 
 265:Core/Src/main.c ****   /** Initialize RTC Only
 266:Core/Src/main.c ****   */
 267:Core/Src/main.c ****   hrtc.Instance = RTC;
 268:Core/Src/main.c ****   hrtc.Init.HourFormat = RTC_HOURFORMAT_24;
 269:Core/Src/main.c ****   hrtc.Init.AsynchPrediv = 127;
 270:Core/Src/main.c ****   hrtc.Init.SynchPrediv = 255;
 271:Core/Src/main.c ****   hrtc.Init.OutPut = RTC_OUTPUT_DISABLE;
 272:Core/Src/main.c ****   hrtc.Init.OutPutPolarity = RTC_OUTPUT_POLARITY_HIGH;
 273:Core/Src/main.c ****   hrtc.Init.OutPutType = RTC_OUTPUT_TYPE_OPENDRAIN;
 274:Core/Src/main.c ****   if (HAL_RTC_Init(&hrtc) != HAL_OK)
 275:Core/Src/main.c ****   {
 276:Core/Src/main.c ****     Error_Handler();
 277:Core/Src/main.c ****   }
 278:Core/Src/main.c **** 
 279:Core/Src/main.c ****   /* USER CODE BEGIN Check_RTC_BKUP */
 280:Core/Src/main.c **** 
 281:Core/Src/main.c ****   /* USER CODE END Check_RTC_BKUP */
 282:Core/Src/main.c **** 
 283:Core/Src/main.c ****   /** Initialize RTC and set the Time and Date
 284:Core/Src/main.c ****   */
 285:Core/Src/main.c ****   sTime.Hours = 4;
 286:Core/Src/main.c ****   sTime.Minutes = 15;
 287:Core/Src/main.c ****   sTime.Seconds = 55;
 288:Core/Src/main.c ****   sTime.DayLightSaving = RTC_DAYLIGHTSAVING_NONE;
 289:Core/Src/main.c ****   sTime.StoreOperation = RTC_STOREOPERATION_RESET;
 290:Core/Src/main.c ****   if (HAL_RTC_SetTime(&hrtc, &sTime, RTC_FORMAT_BCD) != HAL_OK)
 291:Core/Src/main.c ****   {
 292:Core/Src/main.c ****     Error_Handler();
 293:Core/Src/main.c ****   }
 294:Core/Src/main.c ****   sDate.WeekDay = RTC_WEEKDAY_MONDAY;
 295:Core/Src/main.c ****   sDate.Month = RTC_MONTH_JANUARY;
 296:Core/Src/main.c ****   sDate.Date = 3;
 297:Core/Src/main.c ****   sDate.Year = 2022;
 298:Core/Src/main.c **** 
 299:Core/Src/main.c ****   if (HAL_RTC_SetDate(&hrtc, &sDate, RTC_FORMAT_BCD) != HAL_OK)
 300:Core/Src/main.c ****   {
 301:Core/Src/main.c ****     Error_Handler();
 302:Core/Src/main.c ****   }
 303:Core/Src/main.c ****   /* USER CODE BEGIN RTC_Init 2 */
 304:Core/Src/main.c **** 
 305:Core/Src/main.c ****   /* USER CODE END RTC_Init 2 */
 306:Core/Src/main.c **** 
 307:Core/Src/main.c **** }
 308:Core/Src/main.c **** 
 309:Core/Src/main.c **** /**
 310:Core/Src/main.c ****   * @brief SPI2 Initialization Function
 311:Core/Src/main.c ****   * @param None
 312:Core/Src/main.c ****   * @retval None
 313:Core/Src/main.c ****   */
 314:Core/Src/main.c **** static void MX_SPI2_Init(void)
 315:Core/Src/main.c **** {
 316:Core/Src/main.c **** 
ARM GAS  C:\Users\jisu8\AppData\Local\Temp\ccPyvDcJ.s 			page 7


 317:Core/Src/main.c ****   /* USER CODE BEGIN SPI2_Init 0 */
 318:Core/Src/main.c **** 
 319:Core/Src/main.c ****   /* USER CODE END SPI2_Init 0 */
 320:Core/Src/main.c **** 
 321:Core/Src/main.c ****   /* USER CODE BEGIN SPI2_Init 1 */
 322:Core/Src/main.c **** 
 323:Core/Src/main.c ****   /* USER CODE END SPI2_Init 1 */
 324:Core/Src/main.c ****   /* SPI2 parameter configuration*/
 325:Core/Src/main.c ****   hspi2.Instance = SPI2;
 326:Core/Src/main.c ****   hspi2.Init.Mode = SPI_MODE_MASTER;
 327:Core/Src/main.c ****   hspi2.Init.Direction = SPI_DIRECTION_2LINES;
 328:Core/Src/main.c ****   hspi2.Init.DataSize = SPI_DATASIZE_8BIT;
 329:Core/Src/main.c ****   hspi2.Init.CLKPolarity = SPI_POLARITY_LOW;
 330:Core/Src/main.c ****   hspi2.Init.CLKPhase = SPI_PHASE_1EDGE;
 331:Core/Src/main.c ****   hspi2.Init.NSS = SPI_NSS_SOFT;
 332:Core/Src/main.c ****   hspi2.Init.BaudRatePrescaler = SPI_BAUDRATEPRESCALER_2;
 333:Core/Src/main.c ****   hspi2.Init.FirstBit = SPI_FIRSTBIT_MSB;
 334:Core/Src/main.c ****   hspi2.Init.TIMode = SPI_TIMODE_DISABLE;
 335:Core/Src/main.c ****   hspi2.Init.CRCCalculation = SPI_CRCCALCULATION_DISABLE;
 336:Core/Src/main.c ****   hspi2.Init.CRCPolynomial = 7;
 337:Core/Src/main.c ****   hspi2.Init.CRCLength = SPI_CRC_LENGTH_DATASIZE;
 338:Core/Src/main.c ****   hspi2.Init.NSSPMode = SPI_NSS_PULSE_ENABLE;
 339:Core/Src/main.c ****   if (HAL_SPI_Init(&hspi2) != HAL_OK)
 340:Core/Src/main.c ****   {
 341:Core/Src/main.c ****     Error_Handler();
 342:Core/Src/main.c ****   }
 343:Core/Src/main.c ****   /* USER CODE BEGIN SPI2_Init 2 */
 344:Core/Src/main.c **** 
 345:Core/Src/main.c ****   /* USER CODE END SPI2_Init 2 */
 346:Core/Src/main.c **** 
 347:Core/Src/main.c **** }
 348:Core/Src/main.c **** 
 349:Core/Src/main.c **** /**
 350:Core/Src/main.c ****   * @brief TIM3 Initialization Function
 351:Core/Src/main.c ****   * @param None
 352:Core/Src/main.c ****   * @retval None
 353:Core/Src/main.c ****   */
 354:Core/Src/main.c **** static void MX_TIM3_Init(void)
 355:Core/Src/main.c **** {
 356:Core/Src/main.c **** 
 357:Core/Src/main.c ****   /* USER CODE BEGIN TIM3_Init 0 */
 358:Core/Src/main.c **** 
 359:Core/Src/main.c ****   /* USER CODE END TIM3_Init 0 */
 360:Core/Src/main.c **** 
 361:Core/Src/main.c ****   TIM_MasterConfigTypeDef sMasterConfig = {0};
 362:Core/Src/main.c ****   TIM_OC_InitTypeDef sConfigOC = {0};
 363:Core/Src/main.c **** 
 364:Core/Src/main.c ****   /* USER CODE BEGIN TIM3_Init 1 */
 365:Core/Src/main.c **** 
 366:Core/Src/main.c ****   /* USER CODE END TIM3_Init 1 */
 367:Core/Src/main.c ****   htim3.Instance = TIM3;
 368:Core/Src/main.c ****   htim3.Init.Prescaler = 71;
 369:Core/Src/main.c ****   htim3.Init.CounterMode = TIM_COUNTERMODE_UP;
 370:Core/Src/main.c ****   htim3.Init.Period = 300;
 371:Core/Src/main.c ****   htim3.Init.ClockDivision = TIM_CLOCKDIVISION_DIV1;
 372:Core/Src/main.c ****   htim3.Init.AutoReloadPreload = TIM_AUTORELOAD_PRELOAD_DISABLE;
 373:Core/Src/main.c ****   if (HAL_TIM_PWM_Init(&htim3) != HAL_OK)
ARM GAS  C:\Users\jisu8\AppData\Local\Temp\ccPyvDcJ.s 			page 8


 374:Core/Src/main.c ****   {
 375:Core/Src/main.c ****     Error_Handler();
 376:Core/Src/main.c ****   }
 377:Core/Src/main.c ****   sMasterConfig.MasterOutputTrigger = TIM_TRGO_RESET;
 378:Core/Src/main.c ****   sMasterConfig.MasterSlaveMode = TIM_MASTERSLAVEMODE_DISABLE;
 379:Core/Src/main.c ****   if (HAL_TIMEx_MasterConfigSynchronization(&htim3, &sMasterConfig) != HAL_OK)
 380:Core/Src/main.c ****   {
 381:Core/Src/main.c ****     Error_Handler();
 382:Core/Src/main.c ****   }
 383:Core/Src/main.c ****   sConfigOC.OCMode = TIM_OCMODE_PWM1;
 384:Core/Src/main.c ****   sConfigOC.Pulse = 0;
 385:Core/Src/main.c ****   sConfigOC.OCPolarity = TIM_OCPOLARITY_HIGH;
 386:Core/Src/main.c ****   sConfigOC.OCFastMode = TIM_OCFAST_DISABLE;
 387:Core/Src/main.c ****   if (HAL_TIM_PWM_ConfigChannel(&htim3, &sConfigOC, TIM_CHANNEL_3) != HAL_OK)
 388:Core/Src/main.c ****   {
 389:Core/Src/main.c ****     Error_Handler();
 390:Core/Src/main.c ****   }
 391:Core/Src/main.c ****   /* USER CODE BEGIN TIM3_Init 2 */
 392:Core/Src/main.c **** 
 393:Core/Src/main.c ****   /* USER CODE END TIM3_Init 2 */
 394:Core/Src/main.c ****   HAL_TIM_MspPostInit(&htim3);
 395:Core/Src/main.c **** 
 396:Core/Src/main.c **** }
 397:Core/Src/main.c **** 
 398:Core/Src/main.c **** /**
 399:Core/Src/main.c ****   * @brief TIM16 Initialization Function
 400:Core/Src/main.c ****   * @param None
 401:Core/Src/main.c ****   * @retval None
 402:Core/Src/main.c ****   */
 403:Core/Src/main.c **** static void MX_TIM16_Init(void)
 404:Core/Src/main.c **** {
 405:Core/Src/main.c **** 
 406:Core/Src/main.c ****   /* USER CODE BEGIN TIM16_Init 0 */
 407:Core/Src/main.c **** 
 408:Core/Src/main.c ****   /* USER CODE END TIM16_Init 0 */
 409:Core/Src/main.c **** 
 410:Core/Src/main.c ****   /* USER CODE BEGIN TIM16_Init 1 */
 411:Core/Src/main.c **** 
 412:Core/Src/main.c ****   /* USER CODE END TIM16_Init 1 */
 413:Core/Src/main.c ****   htim16.Instance = TIM16;
 414:Core/Src/main.c ****   htim16.Init.Prescaler = 71;
 415:Core/Src/main.c ****   htim16.Init.CounterMode = TIM_COUNTERMODE_UP;
 416:Core/Src/main.c ****   htim16.Init.Period = 100;
 417:Core/Src/main.c ****   htim16.Init.ClockDivision = TIM_CLOCKDIVISION_DIV1;
 418:Core/Src/main.c ****   htim16.Init.RepetitionCounter = 0;
 419:Core/Src/main.c ****   htim16.Init.AutoReloadPreload = TIM_AUTORELOAD_PRELOAD_DISABLE;
 420:Core/Src/main.c ****   if (HAL_TIM_Base_Init(&htim16) != HAL_OK)
 421:Core/Src/main.c ****   {
 422:Core/Src/main.c ****     Error_Handler();
 423:Core/Src/main.c ****   }
 424:Core/Src/main.c ****   /* USER CODE BEGIN TIM16_Init 2 */
 425:Core/Src/main.c **** 
 426:Core/Src/main.c ****   /* USER CODE END TIM16_Init 2 */
 427:Core/Src/main.c **** 
 428:Core/Src/main.c **** }
 429:Core/Src/main.c **** 
 430:Core/Src/main.c **** /**
ARM GAS  C:\Users\jisu8\AppData\Local\Temp\ccPyvDcJ.s 			page 9


 431:Core/Src/main.c ****   * @brief TIM17 Initialization Function
 432:Core/Src/main.c ****   * @param None
 433:Core/Src/main.c ****   * @retval None
 434:Core/Src/main.c ****   */
 435:Core/Src/main.c **** static void MX_TIM17_Init(void)
 436:Core/Src/main.c **** {
 437:Core/Src/main.c **** 
 438:Core/Src/main.c ****   /* USER CODE BEGIN TIM17_Init 0 */
 439:Core/Src/main.c **** 
 440:Core/Src/main.c ****   /* USER CODE END TIM17_Init 0 */
 441:Core/Src/main.c **** 
 442:Core/Src/main.c ****   /* USER CODE BEGIN TIM17_Init 1 */
 443:Core/Src/main.c **** 
 444:Core/Src/main.c ****   /* USER CODE END TIM17_Init 1 */
 445:Core/Src/main.c ****   htim17.Instance = TIM17;
 446:Core/Src/main.c ****   htim17.Init.Prescaler = 71;
 447:Core/Src/main.c ****   htim17.Init.CounterMode = TIM_COUNTERMODE_UP;
 448:Core/Src/main.c ****   htim17.Init.Period = 10000;
 449:Core/Src/main.c ****   htim17.Init.ClockDivision = TIM_CLOCKDIVISION_DIV1;
 450:Core/Src/main.c ****   htim17.Init.RepetitionCounter = 0;
 451:Core/Src/main.c ****   htim17.Init.AutoReloadPreload = TIM_AUTORELOAD_PRELOAD_DISABLE;
 452:Core/Src/main.c ****   if (HAL_TIM_Base_Init(&htim17) != HAL_OK)
 453:Core/Src/main.c ****   {
 454:Core/Src/main.c ****     Error_Handler();
 455:Core/Src/main.c ****   }
 456:Core/Src/main.c ****   /* USER CODE BEGIN TIM17_Init 2 */
 457:Core/Src/main.c **** 
 458:Core/Src/main.c ****   /* USER CODE END TIM17_Init 2 */
 459:Core/Src/main.c **** 
 460:Core/Src/main.c **** }
 461:Core/Src/main.c **** 
 462:Core/Src/main.c **** /**
 463:Core/Src/main.c ****   * @brief USART1 Initialization Function
 464:Core/Src/main.c ****   * @param None
 465:Core/Src/main.c ****   * @retval None
 466:Core/Src/main.c ****   */
 467:Core/Src/main.c **** static void MX_USART1_UART_Init(void)
 468:Core/Src/main.c **** {
 469:Core/Src/main.c **** 
 470:Core/Src/main.c ****   /* USER CODE BEGIN USART1_Init 0 */
 471:Core/Src/main.c **** 
 472:Core/Src/main.c ****   /* USER CODE END USART1_Init 0 */
 473:Core/Src/main.c **** 
 474:Core/Src/main.c ****   /* USER CODE BEGIN USART1_Init 1 */
 475:Core/Src/main.c **** 
 476:Core/Src/main.c ****   /* USER CODE END USART1_Init 1 */
 477:Core/Src/main.c ****   huart1.Instance = USART1;
 478:Core/Src/main.c ****   huart1.Init.BaudRate = 115200;
 479:Core/Src/main.c ****   huart1.Init.WordLength = UART_WORDLENGTH_8B;
 480:Core/Src/main.c ****   huart1.Init.StopBits = UART_STOPBITS_1;
 481:Core/Src/main.c ****   huart1.Init.Parity = UART_PARITY_NONE;
 482:Core/Src/main.c ****   huart1.Init.Mode = UART_MODE_TX_RX;
 483:Core/Src/main.c ****   huart1.Init.HwFlowCtl = UART_HWCONTROL_NONE;
 484:Core/Src/main.c ****   huart1.Init.OverSampling = UART_OVERSAMPLING_16;
 485:Core/Src/main.c ****   huart1.Init.OneBitSampling = UART_ONE_BIT_SAMPLE_DISABLE;
 486:Core/Src/main.c ****   huart1.AdvancedInit.AdvFeatureInit = UART_ADVFEATURE_NO_INIT;
 487:Core/Src/main.c ****   if (HAL_UART_Init(&huart1) != HAL_OK)
ARM GAS  C:\Users\jisu8\AppData\Local\Temp\ccPyvDcJ.s 			page 10


 488:Core/Src/main.c ****   {
 489:Core/Src/main.c ****     Error_Handler();
 490:Core/Src/main.c ****   }
 491:Core/Src/main.c ****   /* USER CODE BEGIN USART1_Init 2 */
 492:Core/Src/main.c **** 
 493:Core/Src/main.c ****   /* USER CODE END USART1_Init 2 */
 494:Core/Src/main.c **** 
 495:Core/Src/main.c **** }
 496:Core/Src/main.c **** 
 497:Core/Src/main.c **** /**
 498:Core/Src/main.c ****   * @brief USART2 Initialization Function
 499:Core/Src/main.c ****   * @param None
 500:Core/Src/main.c ****   * @retval None
 501:Core/Src/main.c ****   */
 502:Core/Src/main.c **** static void MX_USART2_UART_Init(void)
 503:Core/Src/main.c **** {
 504:Core/Src/main.c **** 
 505:Core/Src/main.c ****   /* USER CODE BEGIN USART2_Init 0 */
 506:Core/Src/main.c **** 
 507:Core/Src/main.c ****   /* USER CODE END USART2_Init 0 */
 508:Core/Src/main.c **** 
 509:Core/Src/main.c ****   /* USER CODE BEGIN USART2_Init 1 */
 510:Core/Src/main.c **** 
 511:Core/Src/main.c ****   /* USER CODE END USART2_Init 1 */
 512:Core/Src/main.c ****   huart2.Instance = USART2;
 513:Core/Src/main.c ****   huart2.Init.BaudRate = 115200;
 514:Core/Src/main.c ****   huart2.Init.WordLength = UART_WORDLENGTH_8B;
 515:Core/Src/main.c ****   huart2.Init.StopBits = UART_STOPBITS_1;
 516:Core/Src/main.c ****   huart2.Init.Parity = UART_PARITY_NONE;
 517:Core/Src/main.c ****   huart2.Init.Mode = UART_MODE_TX_RX;
 518:Core/Src/main.c ****   huart2.Init.HwFlowCtl = UART_HWCONTROL_NONE;
 519:Core/Src/main.c ****   huart2.Init.OverSampling = UART_OVERSAMPLING_16;
 520:Core/Src/main.c ****   huart2.Init.OneBitSampling = UART_ONE_BIT_SAMPLE_DISABLE;
 521:Core/Src/main.c ****   huart2.AdvancedInit.AdvFeatureInit = UART_ADVFEATURE_NO_INIT;
 522:Core/Src/main.c ****   if (HAL_UART_Init(&huart2) != HAL_OK)
 523:Core/Src/main.c ****   {
 524:Core/Src/main.c ****     Error_Handler();
 525:Core/Src/main.c ****   }
 526:Core/Src/main.c ****   /* USER CODE BEGIN USART2_Init 2 */
 527:Core/Src/main.c **** 
 528:Core/Src/main.c ****   /* USER CODE END USART2_Init 2 */
 529:Core/Src/main.c **** 
 530:Core/Src/main.c **** }
 531:Core/Src/main.c **** 
 532:Core/Src/main.c **** /**
 533:Core/Src/main.c ****   * @brief USART3 Initialization Function
 534:Core/Src/main.c ****   * @param None
 535:Core/Src/main.c ****   * @retval None
 536:Core/Src/main.c ****   */
 537:Core/Src/main.c **** static void MX_USART3_UART_Init(void)
 538:Core/Src/main.c **** {
 539:Core/Src/main.c **** 
 540:Core/Src/main.c ****   /* USER CODE BEGIN USART3_Init 0 */
 541:Core/Src/main.c **** 
 542:Core/Src/main.c ****   /* USER CODE END USART3_Init 0 */
 543:Core/Src/main.c **** 
 544:Core/Src/main.c ****   /* USER CODE BEGIN USART3_Init 1 */
ARM GAS  C:\Users\jisu8\AppData\Local\Temp\ccPyvDcJ.s 			page 11


 545:Core/Src/main.c **** 
 546:Core/Src/main.c ****   /* USER CODE END USART3_Init 1 */
 547:Core/Src/main.c ****   huart3.Instance = USART3;
 548:Core/Src/main.c ****   huart3.Init.BaudRate = 115200;
 549:Core/Src/main.c ****   huart3.Init.WordLength = UART_WORDLENGTH_8B;
 550:Core/Src/main.c ****   huart3.Init.StopBits = UART_STOPBITS_1;
 551:Core/Src/main.c ****   huart3.Init.Parity = UART_PARITY_NONE;
 552:Core/Src/main.c ****   huart3.Init.Mode = UART_MODE_TX_RX;
 553:Core/Src/main.c ****   huart3.Init.HwFlowCtl = UART_HWCONTROL_NONE;
 554:Core/Src/main.c ****   huart3.Init.OverSampling = UART_OVERSAMPLING_16;
 555:Core/Src/main.c ****   huart3.Init.OneBitSampling = UART_ONE_BIT_SAMPLE_DISABLE;
 556:Core/Src/main.c ****   huart3.AdvancedInit.AdvFeatureInit = UART_ADVFEATURE_NO_INIT;
 557:Core/Src/main.c ****   if (HAL_UART_Init(&huart3) != HAL_OK)
 558:Core/Src/main.c ****   {
 559:Core/Src/main.c ****     Error_Handler();
 560:Core/Src/main.c ****   }
 561:Core/Src/main.c ****   /* USER CODE BEGIN USART3_Init 2 */
 562:Core/Src/main.c **** 
 563:Core/Src/main.c ****   /* USER CODE END USART3_Init 2 */
 564:Core/Src/main.c **** 
 565:Core/Src/main.c **** }
 566:Core/Src/main.c **** 
 567:Core/Src/main.c **** /**
 568:Core/Src/main.c ****   * Enable DMA controller clock
 569:Core/Src/main.c ****   */
 570:Core/Src/main.c **** static void MX_DMA_Init(void)
 571:Core/Src/main.c **** {
 572:Core/Src/main.c **** 
 573:Core/Src/main.c ****   /* DMA controller clock enable */
 574:Core/Src/main.c ****   __HAL_RCC_DMA2_CLK_ENABLE();
 575:Core/Src/main.c ****   __HAL_RCC_DMA1_CLK_ENABLE();
 576:Core/Src/main.c **** 
 577:Core/Src/main.c ****   /* DMA interrupt init */
 578:Core/Src/main.c ****   /* DMA1_Channel6_IRQn interrupt configuration */
 579:Core/Src/main.c ****   HAL_NVIC_SetPriority(DMA1_Channel6_IRQn, 7, 0);
 580:Core/Src/main.c ****   HAL_NVIC_EnableIRQ(DMA1_Channel6_IRQn);
 581:Core/Src/main.c ****   /* DMA2_Channel1_IRQn interrupt configuration */
 582:Core/Src/main.c ****   HAL_NVIC_SetPriority(DMA2_Channel1_IRQn, 0, 0);
 583:Core/Src/main.c ****   HAL_NVIC_EnableIRQ(DMA2_Channel1_IRQn);
 584:Core/Src/main.c **** 
 585:Core/Src/main.c **** }
 586:Core/Src/main.c **** 
 587:Core/Src/main.c **** /**
 588:Core/Src/main.c ****   * @brief GPIO Initialization Function
 589:Core/Src/main.c ****   * @param None
 590:Core/Src/main.c ****   * @retval None
 591:Core/Src/main.c ****   */
 592:Core/Src/main.c **** static void MX_GPIO_Init(void)
 593:Core/Src/main.c **** {
  28              		.loc 1 593 1 view -0
  29              		.cfi_startproc
  30              		@ args = 0, pretend = 0, frame = 40
  31              		@ frame_needed = 0, uses_anonymous_args = 0
  32 0000 70B5     		push	{r4, r5, r6, lr}
  33              	.LCFI0:
  34              		.cfi_def_cfa_offset 16
  35              		.cfi_offset 4, -16
ARM GAS  C:\Users\jisu8\AppData\Local\Temp\ccPyvDcJ.s 			page 12


  36              		.cfi_offset 5, -12
  37              		.cfi_offset 6, -8
  38              		.cfi_offset 14, -4
  39 0002 8AB0     		sub	sp, sp, #40
  40              	.LCFI1:
  41              		.cfi_def_cfa_offset 56
 594:Core/Src/main.c ****   GPIO_InitTypeDef GPIO_InitStruct = {0};
  42              		.loc 1 594 3 view .LVU1
  43              		.loc 1 594 20 is_stmt 0 view .LVU2
  44 0004 0024     		movs	r4, #0
  45 0006 0594     		str	r4, [sp, #20]
  46 0008 0694     		str	r4, [sp, #24]
  47 000a 0794     		str	r4, [sp, #28]
  48 000c 0894     		str	r4, [sp, #32]
  49 000e 0994     		str	r4, [sp, #36]
 595:Core/Src/main.c **** 
 596:Core/Src/main.c ****   /* GPIO Ports Clock Enable */
 597:Core/Src/main.c ****   __HAL_RCC_GPIOC_CLK_ENABLE();
  50              		.loc 1 597 3 is_stmt 1 view .LVU3
  51              	.LBB4:
  52              		.loc 1 597 3 view .LVU4
  53              		.loc 1 597 3 view .LVU5
  54 0010 304B     		ldr	r3, .L3
  55 0012 5A69     		ldr	r2, [r3, #20]
  56 0014 42F40022 		orr	r2, r2, #524288
  57 0018 5A61     		str	r2, [r3, #20]
  58              		.loc 1 597 3 view .LVU6
  59 001a 5A69     		ldr	r2, [r3, #20]
  60 001c 02F40022 		and	r2, r2, #524288
  61 0020 0192     		str	r2, [sp, #4]
  62              		.loc 1 597 3 view .LVU7
  63 0022 019A     		ldr	r2, [sp, #4]
  64              	.LBE4:
  65              		.loc 1 597 3 view .LVU8
 598:Core/Src/main.c ****   __HAL_RCC_GPIOF_CLK_ENABLE();
  66              		.loc 1 598 3 view .LVU9
  67              	.LBB5:
  68              		.loc 1 598 3 view .LVU10
  69              		.loc 1 598 3 view .LVU11
  70 0024 5A69     		ldr	r2, [r3, #20]
  71 0026 42F48002 		orr	r2, r2, #4194304
  72 002a 5A61     		str	r2, [r3, #20]
  73              		.loc 1 598 3 view .LVU12
  74 002c 5A69     		ldr	r2, [r3, #20]
  75 002e 02F48002 		and	r2, r2, #4194304
  76 0032 0292     		str	r2, [sp, #8]
  77              		.loc 1 598 3 view .LVU13
  78 0034 029A     		ldr	r2, [sp, #8]
  79              	.LBE5:
  80              		.loc 1 598 3 view .LVU14
 599:Core/Src/main.c ****   __HAL_RCC_GPIOA_CLK_ENABLE();
  81              		.loc 1 599 3 view .LVU15
  82              	.LBB6:
  83              		.loc 1 599 3 view .LVU16
  84              		.loc 1 599 3 view .LVU17
  85 0036 5A69     		ldr	r2, [r3, #20]
  86 0038 42F40032 		orr	r2, r2, #131072
ARM GAS  C:\Users\jisu8\AppData\Local\Temp\ccPyvDcJ.s 			page 13


  87 003c 5A61     		str	r2, [r3, #20]
  88              		.loc 1 599 3 view .LVU18
  89 003e 5A69     		ldr	r2, [r3, #20]
  90 0040 02F40032 		and	r2, r2, #131072
  91 0044 0392     		str	r2, [sp, #12]
  92              		.loc 1 599 3 view .LVU19
  93 0046 039A     		ldr	r2, [sp, #12]
  94              	.LBE6:
  95              		.loc 1 599 3 view .LVU20
 600:Core/Src/main.c ****   __HAL_RCC_GPIOB_CLK_ENABLE();
  96              		.loc 1 600 3 view .LVU21
  97              	.LBB7:
  98              		.loc 1 600 3 view .LVU22
  99              		.loc 1 600 3 view .LVU23
 100 0048 5A69     		ldr	r2, [r3, #20]
 101 004a 42F48022 		orr	r2, r2, #262144
 102 004e 5A61     		str	r2, [r3, #20]
 103              		.loc 1 600 3 view .LVU24
 104 0050 5B69     		ldr	r3, [r3, #20]
 105 0052 03F48023 		and	r3, r3, #262144
 106 0056 0493     		str	r3, [sp, #16]
 107              		.loc 1 600 3 view .LVU25
 108 0058 049B     		ldr	r3, [sp, #16]
 109              	.LBE7:
 110              		.loc 1 600 3 view .LVU26
 601:Core/Src/main.c **** 
 602:Core/Src/main.c ****   /*Configure GPIO pin Output Level */
 603:Core/Src/main.c ****   HAL_GPIO_WritePin(GPIOA, LTE_STATUS_Pin|Lidar_ONOFF_Pin|DHT_INOUT_Pin, GPIO_PIN_RESET);
 111              		.loc 1 603 3 view .LVU27
 112 005a 2246     		mov	r2, r4
 113 005c 9221     		movs	r1, #146
 114 005e 4FF09040 		mov	r0, #1207959552
 115 0062 FFF7FEFF 		bl	HAL_GPIO_WritePin
 116              	.LVL0:
 604:Core/Src/main.c **** 
 605:Core/Src/main.c ****   /*Configure GPIO pin Output Level */
 606:Core/Src/main.c ****   HAL_GPIO_WritePin(GPIOB, TEMP_ONOFF_Pin|SPI2_CS_Pin|POWER_KEY_Pin|RESET_ONOFF_Pin, GPIO_PIN_RESET
 117              		.loc 1 606 3 view .LVU28
 118 0066 1C4E     		ldr	r6, .L3+4
 119 0068 2246     		mov	r2, r4
 120 006a 41F26201 		movw	r1, #4194
 121 006e 3046     		mov	r0, r6
 122 0070 FFF7FEFF 		bl	HAL_GPIO_WritePin
 123              	.LVL1:
 607:Core/Src/main.c ****   HAL_GPIO_WritePin(GPIOB, POWER_KEY_Pin|RESET_ONOFF_Pin, GPIO_PIN_SET);
 124              		.loc 1 607 3 view .LVU29
 125 0074 0122     		movs	r2, #1
 126 0076 6021     		movs	r1, #96
 127 0078 3046     		mov	r0, r6
 128 007a FFF7FEFF 		bl	HAL_GPIO_WritePin
 129              	.LVL2:
 608:Core/Src/main.c **** 
 609:Core/Src/main.c ****   /*Configure GPIO pins : LTE_STATUS_Pin Lidar_ONOFF_Pin DHT_INOUT_Pin */
 610:Core/Src/main.c ****   GPIO_InitStruct.Pin = LTE_STATUS_Pin|Lidar_ONOFF_Pin|DHT_INOUT_Pin;
 130              		.loc 1 610 3 view .LVU30
 131              		.loc 1 610 23 is_stmt 0 view .LVU31
 132 007e 9223     		movs	r3, #146
ARM GAS  C:\Users\jisu8\AppData\Local\Temp\ccPyvDcJ.s 			page 14


 133 0080 0593     		str	r3, [sp, #20]
 611:Core/Src/main.c ****   GPIO_InitStruct.Mode = GPIO_MODE_OUTPUT_PP;
 134              		.loc 1 611 3 is_stmt 1 view .LVU32
 135              		.loc 1 611 24 is_stmt 0 view .LVU33
 136 0082 0125     		movs	r5, #1
 137 0084 0695     		str	r5, [sp, #24]
 612:Core/Src/main.c ****   GPIO_InitStruct.Pull = GPIO_NOPULL;
 138              		.loc 1 612 3 is_stmt 1 view .LVU34
 139              		.loc 1 612 24 is_stmt 0 view .LVU35
 140 0086 0794     		str	r4, [sp, #28]
 613:Core/Src/main.c ****   GPIO_InitStruct.Speed = GPIO_SPEED_FREQ_LOW;
 141              		.loc 1 613 3 is_stmt 1 view .LVU36
 142              		.loc 1 613 25 is_stmt 0 view .LVU37
 143 0088 0894     		str	r4, [sp, #32]
 614:Core/Src/main.c ****   HAL_GPIO_Init(GPIOA, &GPIO_InitStruct);
 144              		.loc 1 614 3 is_stmt 1 view .LVU38
 145 008a 05A9     		add	r1, sp, #20
 146 008c 4FF09040 		mov	r0, #1207959552
 147 0090 FFF7FEFF 		bl	HAL_GPIO_Init
 148              	.LVL3:
 615:Core/Src/main.c **** 
 616:Core/Src/main.c ****   /*Configure GPIO pin : DOOR_INT_Pin */
 617:Core/Src/main.c ****   GPIO_InitStruct.Pin = DOOR_INT_Pin;
 149              		.loc 1 617 3 view .LVU39
 150              		.loc 1 617 23 is_stmt 0 view .LVU40
 151 0094 2023     		movs	r3, #32
 152 0096 0593     		str	r3, [sp, #20]
 618:Core/Src/main.c ****   GPIO_InitStruct.Mode = GPIO_MODE_IT_RISING;
 153              		.loc 1 618 3 is_stmt 1 view .LVU41
 154              		.loc 1 618 24 is_stmt 0 view .LVU42
 155 0098 4FF48813 		mov	r3, #1114112
 156 009c 0693     		str	r3, [sp, #24]
 619:Core/Src/main.c ****   GPIO_InitStruct.Pull = GPIO_NOPULL;
 157              		.loc 1 619 3 is_stmt 1 view .LVU43
 158              		.loc 1 619 24 is_stmt 0 view .LVU44
 159 009e 0794     		str	r4, [sp, #28]
 620:Core/Src/main.c ****   HAL_GPIO_Init(DOOR_INT_GPIO_Port, &GPIO_InitStruct);
 160              		.loc 1 620 3 is_stmt 1 view .LVU45
 161 00a0 05A9     		add	r1, sp, #20
 162 00a2 4FF09040 		mov	r0, #1207959552
 163 00a6 FFF7FEFF 		bl	HAL_GPIO_Init
 164              	.LVL4:
 621:Core/Src/main.c **** 
 622:Core/Src/main.c ****   /*Configure GPIO pins : TEMP_ONOFF_Pin SPI2_CS_Pin POWER_KEY_Pin RESET_ONOFF_Pin */
 623:Core/Src/main.c ****   GPIO_InitStruct.Pin = TEMP_ONOFF_Pin|SPI2_CS_Pin|POWER_KEY_Pin|RESET_ONOFF_Pin;
 165              		.loc 1 623 3 view .LVU46
 166              		.loc 1 623 23 is_stmt 0 view .LVU47
 167 00aa 41F26203 		movw	r3, #4194
 168 00ae 0593     		str	r3, [sp, #20]
 624:Core/Src/main.c ****   GPIO_InitStruct.Mode = GPIO_MODE_OUTPUT_PP;
 169              		.loc 1 624 3 is_stmt 1 view .LVU48
 170              		.loc 1 624 24 is_stmt 0 view .LVU49
 171 00b0 0695     		str	r5, [sp, #24]
 625:Core/Src/main.c ****   GPIO_InitStruct.Pull = GPIO_NOPULL;
 172              		.loc 1 625 3 is_stmt 1 view .LVU50
 173              		.loc 1 625 24 is_stmt 0 view .LVU51
 174 00b2 0794     		str	r4, [sp, #28]
ARM GAS  C:\Users\jisu8\AppData\Local\Temp\ccPyvDcJ.s 			page 15


 626:Core/Src/main.c ****   GPIO_InitStruct.Speed = GPIO_SPEED_FREQ_LOW;
 175              		.loc 1 626 3 is_stmt 1 view .LVU52
 176              		.loc 1 626 25 is_stmt 0 view .LVU53
 177 00b4 0894     		str	r4, [sp, #32]
 627:Core/Src/main.c ****   HAL_GPIO_Init(GPIOB, &GPIO_InitStruct);
 178              		.loc 1 627 3 is_stmt 1 view .LVU54
 179 00b6 05A9     		add	r1, sp, #20
 180 00b8 3046     		mov	r0, r6
 181 00ba FFF7FEFF 		bl	HAL_GPIO_Init
 182              	.LVL5:
 628:Core/Src/main.c **** 
 629:Core/Src/main.c ****   /* EXTI interrupt init*/
 630:Core/Src/main.c ****   HAL_NVIC_SetPriority(EXTI9_5_IRQn, 1, 0);
 183              		.loc 1 630 3 view .LVU55
 184 00be 2246     		mov	r2, r4
 185 00c0 2946     		mov	r1, r5
 186 00c2 1720     		movs	r0, #23
 187 00c4 FFF7FEFF 		bl	HAL_NVIC_SetPriority
 188              	.LVL6:
 631:Core/Src/main.c ****   HAL_NVIC_EnableIRQ(EXTI9_5_IRQn);
 189              		.loc 1 631 3 view .LVU56
 190 00c8 1720     		movs	r0, #23
 191 00ca FFF7FEFF 		bl	HAL_NVIC_EnableIRQ
 192              	.LVL7:
 632:Core/Src/main.c **** 
 633:Core/Src/main.c **** }
 193              		.loc 1 633 1 is_stmt 0 view .LVU57
 194 00ce 0AB0     		add	sp, sp, #40
 195              	.LCFI2:
 196              		.cfi_def_cfa_offset 16
 197              		@ sp needed
 198 00d0 70BD     		pop	{r4, r5, r6, pc}
 199              	.L4:
 200 00d2 00BF     		.align	2
 201              	.L3:
 202 00d4 00100240 		.word	1073876992
 203 00d8 00040048 		.word	1207960576
 204              		.cfi_endproc
 205              	.LFE145:
 207              		.section	.text.MX_DMA_Init,"ax",%progbits
 208              		.align	1
 209              		.syntax unified
 210              		.thumb
 211              		.thumb_func
 213              	MX_DMA_Init:
 214              	.LFB144:
 571:Core/Src/main.c **** 
 215              		.loc 1 571 1 is_stmt 1 view -0
 216              		.cfi_startproc
 217              		@ args = 0, pretend = 0, frame = 8
 218              		@ frame_needed = 0, uses_anonymous_args = 0
 219 0000 00B5     		push	{lr}
 220              	.LCFI3:
 221              		.cfi_def_cfa_offset 4
 222              		.cfi_offset 14, -4
 223 0002 83B0     		sub	sp, sp, #12
 224              	.LCFI4:
ARM GAS  C:\Users\jisu8\AppData\Local\Temp\ccPyvDcJ.s 			page 16


 225              		.cfi_def_cfa_offset 16
 574:Core/Src/main.c ****   __HAL_RCC_DMA1_CLK_ENABLE();
 226              		.loc 1 574 3 view .LVU59
 227              	.LBB8:
 574:Core/Src/main.c ****   __HAL_RCC_DMA1_CLK_ENABLE();
 228              		.loc 1 574 3 view .LVU60
 574:Core/Src/main.c ****   __HAL_RCC_DMA1_CLK_ENABLE();
 229              		.loc 1 574 3 view .LVU61
 230 0004 124B     		ldr	r3, .L7
 231 0006 5A69     		ldr	r2, [r3, #20]
 232 0008 42F00202 		orr	r2, r2, #2
 233 000c 5A61     		str	r2, [r3, #20]
 574:Core/Src/main.c ****   __HAL_RCC_DMA1_CLK_ENABLE();
 234              		.loc 1 574 3 view .LVU62
 235 000e 5A69     		ldr	r2, [r3, #20]
 236 0010 02F00202 		and	r2, r2, #2
 237 0014 0092     		str	r2, [sp]
 574:Core/Src/main.c ****   __HAL_RCC_DMA1_CLK_ENABLE();
 238              		.loc 1 574 3 view .LVU63
 239 0016 009A     		ldr	r2, [sp]
 240              	.LBE8:
 574:Core/Src/main.c ****   __HAL_RCC_DMA1_CLK_ENABLE();
 241              		.loc 1 574 3 view .LVU64
 575:Core/Src/main.c **** 
 242              		.loc 1 575 3 view .LVU65
 243              	.LBB9:
 575:Core/Src/main.c **** 
 244              		.loc 1 575 3 view .LVU66
 575:Core/Src/main.c **** 
 245              		.loc 1 575 3 view .LVU67
 246 0018 5A69     		ldr	r2, [r3, #20]
 247 001a 42F00102 		orr	r2, r2, #1
 248 001e 5A61     		str	r2, [r3, #20]
 575:Core/Src/main.c **** 
 249              		.loc 1 575 3 view .LVU68
 250 0020 5B69     		ldr	r3, [r3, #20]
 251 0022 03F00103 		and	r3, r3, #1
 252 0026 0193     		str	r3, [sp, #4]
 575:Core/Src/main.c **** 
 253              		.loc 1 575 3 view .LVU69
 254 0028 019B     		ldr	r3, [sp, #4]
 255              	.LBE9:
 575:Core/Src/main.c **** 
 256              		.loc 1 575 3 view .LVU70
 579:Core/Src/main.c ****   HAL_NVIC_EnableIRQ(DMA1_Channel6_IRQn);
 257              		.loc 1 579 3 view .LVU71
 258 002a 0022     		movs	r2, #0
 259 002c 0721     		movs	r1, #7
 260 002e 1020     		movs	r0, #16
 261 0030 FFF7FEFF 		bl	HAL_NVIC_SetPriority
 262              	.LVL8:
 580:Core/Src/main.c ****   /* DMA2_Channel1_IRQn interrupt configuration */
 263              		.loc 1 580 3 view .LVU72
 264 0034 1020     		movs	r0, #16
 265 0036 FFF7FEFF 		bl	HAL_NVIC_EnableIRQ
 266              	.LVL9:
 582:Core/Src/main.c ****   HAL_NVIC_EnableIRQ(DMA2_Channel1_IRQn);
ARM GAS  C:\Users\jisu8\AppData\Local\Temp\ccPyvDcJ.s 			page 17


 267              		.loc 1 582 3 view .LVU73
 268 003a 0022     		movs	r2, #0
 269 003c 1146     		mov	r1, r2
 270 003e 3820     		movs	r0, #56
 271 0040 FFF7FEFF 		bl	HAL_NVIC_SetPriority
 272              	.LVL10:
 583:Core/Src/main.c **** 
 273              		.loc 1 583 3 view .LVU74
 274 0044 3820     		movs	r0, #56
 275 0046 FFF7FEFF 		bl	HAL_NVIC_EnableIRQ
 276              	.LVL11:
 585:Core/Src/main.c **** 
 277              		.loc 1 585 1 is_stmt 0 view .LVU75
 278 004a 03B0     		add	sp, sp, #12
 279              	.LCFI5:
 280              		.cfi_def_cfa_offset 4
 281              		@ sp needed
 282 004c 5DF804FB 		ldr	pc, [sp], #4
 283              	.L8:
 284              		.align	2
 285              	.L7:
 286 0050 00100240 		.word	1073876992
 287              		.cfi_endproc
 288              	.LFE144:
 290              		.section	.text.Error_Handler,"ax",%progbits
 291              		.align	1
 292              		.global	Error_Handler
 293              		.syntax unified
 294              		.thumb
 295              		.thumb_func
 297              	Error_Handler:
 298              	.LFB146:
 634:Core/Src/main.c **** 
 635:Core/Src/main.c **** /* USER CODE BEGIN 4 */
 636:Core/Src/main.c **** 
 637:Core/Src/main.c **** /* USER CODE END 4 */
 638:Core/Src/main.c **** 
 639:Core/Src/main.c **** /**
 640:Core/Src/main.c ****   * @brief  This function is executed in case of error occurrence.
 641:Core/Src/main.c ****   * @retval None
 642:Core/Src/main.c ****   */
 643:Core/Src/main.c **** void Error_Handler(void)
 644:Core/Src/main.c **** {
 299              		.loc 1 644 1 is_stmt 1 view -0
 300              		.cfi_startproc
 301              		@ Volatile: function does not return.
 302              		@ args = 0, pretend = 0, frame = 0
 303              		@ frame_needed = 0, uses_anonymous_args = 0
 304              		@ link register save eliminated.
 645:Core/Src/main.c ****   /* USER CODE BEGIN Error_Handler_Debug */
 646:Core/Src/main.c ****   /* User can add his own implementation to report the HAL error return state */
 647:Core/Src/main.c ****   __disable_irq();
 305              		.loc 1 647 3 view .LVU77
 306              	.LBB10:
 307              	.LBI10:
 308              		.file 2 "Drivers/CMSIS/Include/cmsis_gcc.h"
   1:Drivers/CMSIS/Include/cmsis_gcc.h **** /**************************************************************************//**
ARM GAS  C:\Users\jisu8\AppData\Local\Temp\ccPyvDcJ.s 			page 18


   2:Drivers/CMSIS/Include/cmsis_gcc.h ****  * @file     cmsis_gcc.h
   3:Drivers/CMSIS/Include/cmsis_gcc.h ****  * @brief    CMSIS compiler GCC header file
   4:Drivers/CMSIS/Include/cmsis_gcc.h ****  * @version  V5.0.4
   5:Drivers/CMSIS/Include/cmsis_gcc.h ****  * @date     09. April 2018
   6:Drivers/CMSIS/Include/cmsis_gcc.h ****  ******************************************************************************/
   7:Drivers/CMSIS/Include/cmsis_gcc.h **** /*
   8:Drivers/CMSIS/Include/cmsis_gcc.h ****  * Copyright (c) 2009-2018 Arm Limited. All rights reserved.
   9:Drivers/CMSIS/Include/cmsis_gcc.h ****  *
  10:Drivers/CMSIS/Include/cmsis_gcc.h ****  * SPDX-License-Identifier: Apache-2.0
  11:Drivers/CMSIS/Include/cmsis_gcc.h ****  *
  12:Drivers/CMSIS/Include/cmsis_gcc.h ****  * Licensed under the Apache License, Version 2.0 (the License); you may
  13:Drivers/CMSIS/Include/cmsis_gcc.h ****  * not use this file except in compliance with the License.
  14:Drivers/CMSIS/Include/cmsis_gcc.h ****  * You may obtain a copy of the License at
  15:Drivers/CMSIS/Include/cmsis_gcc.h ****  *
  16:Drivers/CMSIS/Include/cmsis_gcc.h ****  * www.apache.org/licenses/LICENSE-2.0
  17:Drivers/CMSIS/Include/cmsis_gcc.h ****  *
  18:Drivers/CMSIS/Include/cmsis_gcc.h ****  * Unless required by applicable law or agreed to in writing, software
  19:Drivers/CMSIS/Include/cmsis_gcc.h ****  * distributed under the License is distributed on an AS IS BASIS, WITHOUT
  20:Drivers/CMSIS/Include/cmsis_gcc.h ****  * WARRANTIES OR CONDITIONS OF ANY KIND, either express or implied.
  21:Drivers/CMSIS/Include/cmsis_gcc.h ****  * See the License for the specific language governing permissions and
  22:Drivers/CMSIS/Include/cmsis_gcc.h ****  * limitations under the License.
  23:Drivers/CMSIS/Include/cmsis_gcc.h ****  */
  24:Drivers/CMSIS/Include/cmsis_gcc.h **** 
  25:Drivers/CMSIS/Include/cmsis_gcc.h **** #ifndef __CMSIS_GCC_H
  26:Drivers/CMSIS/Include/cmsis_gcc.h **** #define __CMSIS_GCC_H
  27:Drivers/CMSIS/Include/cmsis_gcc.h **** 
  28:Drivers/CMSIS/Include/cmsis_gcc.h **** /* ignore some GCC warnings */
  29:Drivers/CMSIS/Include/cmsis_gcc.h **** #pragma GCC diagnostic push
  30:Drivers/CMSIS/Include/cmsis_gcc.h **** #pragma GCC diagnostic ignored "-Wsign-conversion"
  31:Drivers/CMSIS/Include/cmsis_gcc.h **** #pragma GCC diagnostic ignored "-Wconversion"
  32:Drivers/CMSIS/Include/cmsis_gcc.h **** #pragma GCC diagnostic ignored "-Wunused-parameter"
  33:Drivers/CMSIS/Include/cmsis_gcc.h **** 
  34:Drivers/CMSIS/Include/cmsis_gcc.h **** /* Fallback for __has_builtin */
  35:Drivers/CMSIS/Include/cmsis_gcc.h **** #ifndef __has_builtin
  36:Drivers/CMSIS/Include/cmsis_gcc.h ****   #define __has_builtin(x) (0)
  37:Drivers/CMSIS/Include/cmsis_gcc.h **** #endif
  38:Drivers/CMSIS/Include/cmsis_gcc.h **** 
  39:Drivers/CMSIS/Include/cmsis_gcc.h **** /* CMSIS compiler specific defines */
  40:Drivers/CMSIS/Include/cmsis_gcc.h **** #ifndef   __ASM
  41:Drivers/CMSIS/Include/cmsis_gcc.h ****   #define __ASM                                  __asm
  42:Drivers/CMSIS/Include/cmsis_gcc.h **** #endif
  43:Drivers/CMSIS/Include/cmsis_gcc.h **** #ifndef   __INLINE
  44:Drivers/CMSIS/Include/cmsis_gcc.h ****   #define __INLINE                               inline
  45:Drivers/CMSIS/Include/cmsis_gcc.h **** #endif
  46:Drivers/CMSIS/Include/cmsis_gcc.h **** #ifndef   __STATIC_INLINE
  47:Drivers/CMSIS/Include/cmsis_gcc.h ****   #define __STATIC_INLINE                        static inline
  48:Drivers/CMSIS/Include/cmsis_gcc.h **** #endif
  49:Drivers/CMSIS/Include/cmsis_gcc.h **** #ifndef   __STATIC_FORCEINLINE                 
  50:Drivers/CMSIS/Include/cmsis_gcc.h ****   #define __STATIC_FORCEINLINE                   __attribute__((always_inline)) static inline
  51:Drivers/CMSIS/Include/cmsis_gcc.h **** #endif                                           
  52:Drivers/CMSIS/Include/cmsis_gcc.h **** #ifndef   __NO_RETURN
  53:Drivers/CMSIS/Include/cmsis_gcc.h ****   #define __NO_RETURN                            __attribute__((__noreturn__))
  54:Drivers/CMSIS/Include/cmsis_gcc.h **** #endif
  55:Drivers/CMSIS/Include/cmsis_gcc.h **** #ifndef   __USED
  56:Drivers/CMSIS/Include/cmsis_gcc.h ****   #define __USED                                 __attribute__((used))
  57:Drivers/CMSIS/Include/cmsis_gcc.h **** #endif
  58:Drivers/CMSIS/Include/cmsis_gcc.h **** #ifndef   __WEAK
ARM GAS  C:\Users\jisu8\AppData\Local\Temp\ccPyvDcJ.s 			page 19


  59:Drivers/CMSIS/Include/cmsis_gcc.h ****   #define __WEAK                                 __attribute__((weak))
  60:Drivers/CMSIS/Include/cmsis_gcc.h **** #endif
  61:Drivers/CMSIS/Include/cmsis_gcc.h **** #ifndef   __PACKED
  62:Drivers/CMSIS/Include/cmsis_gcc.h ****   #define __PACKED                               __attribute__((packed, aligned(1)))
  63:Drivers/CMSIS/Include/cmsis_gcc.h **** #endif
  64:Drivers/CMSIS/Include/cmsis_gcc.h **** #ifndef   __PACKED_STRUCT
  65:Drivers/CMSIS/Include/cmsis_gcc.h ****   #define __PACKED_STRUCT                        struct __attribute__((packed, aligned(1)))
  66:Drivers/CMSIS/Include/cmsis_gcc.h **** #endif
  67:Drivers/CMSIS/Include/cmsis_gcc.h **** #ifndef   __PACKED_UNION
  68:Drivers/CMSIS/Include/cmsis_gcc.h ****   #define __PACKED_UNION                         union __attribute__((packed, aligned(1)))
  69:Drivers/CMSIS/Include/cmsis_gcc.h **** #endif
  70:Drivers/CMSIS/Include/cmsis_gcc.h **** #ifndef   __UNALIGNED_UINT32        /* deprecated */
  71:Drivers/CMSIS/Include/cmsis_gcc.h ****   #pragma GCC diagnostic push
  72:Drivers/CMSIS/Include/cmsis_gcc.h ****   #pragma GCC diagnostic ignored "-Wpacked"
  73:Drivers/CMSIS/Include/cmsis_gcc.h ****   #pragma GCC diagnostic ignored "-Wattributes"
  74:Drivers/CMSIS/Include/cmsis_gcc.h ****   struct __attribute__((packed)) T_UINT32 { uint32_t v; };
  75:Drivers/CMSIS/Include/cmsis_gcc.h ****   #pragma GCC diagnostic pop
  76:Drivers/CMSIS/Include/cmsis_gcc.h ****   #define __UNALIGNED_UINT32(x)                  (((struct T_UINT32 *)(x))->v)
  77:Drivers/CMSIS/Include/cmsis_gcc.h **** #endif
  78:Drivers/CMSIS/Include/cmsis_gcc.h **** #ifndef   __UNALIGNED_UINT16_WRITE
  79:Drivers/CMSIS/Include/cmsis_gcc.h ****   #pragma GCC diagnostic push
  80:Drivers/CMSIS/Include/cmsis_gcc.h ****   #pragma GCC diagnostic ignored "-Wpacked"
  81:Drivers/CMSIS/Include/cmsis_gcc.h ****   #pragma GCC diagnostic ignored "-Wattributes"
  82:Drivers/CMSIS/Include/cmsis_gcc.h ****   __PACKED_STRUCT T_UINT16_WRITE { uint16_t v; };
  83:Drivers/CMSIS/Include/cmsis_gcc.h ****   #pragma GCC diagnostic pop
  84:Drivers/CMSIS/Include/cmsis_gcc.h ****   #define __UNALIGNED_UINT16_WRITE(addr, val)    (void)((((struct T_UINT16_WRITE *)(void *)(addr))-
  85:Drivers/CMSIS/Include/cmsis_gcc.h **** #endif
  86:Drivers/CMSIS/Include/cmsis_gcc.h **** #ifndef   __UNALIGNED_UINT16_READ
  87:Drivers/CMSIS/Include/cmsis_gcc.h ****   #pragma GCC diagnostic push
  88:Drivers/CMSIS/Include/cmsis_gcc.h ****   #pragma GCC diagnostic ignored "-Wpacked"
  89:Drivers/CMSIS/Include/cmsis_gcc.h ****   #pragma GCC diagnostic ignored "-Wattributes"
  90:Drivers/CMSIS/Include/cmsis_gcc.h ****   __PACKED_STRUCT T_UINT16_READ { uint16_t v; };
  91:Drivers/CMSIS/Include/cmsis_gcc.h ****   #pragma GCC diagnostic pop
  92:Drivers/CMSIS/Include/cmsis_gcc.h ****   #define __UNALIGNED_UINT16_READ(addr)          (((const struct T_UINT16_READ *)(const void *)(add
  93:Drivers/CMSIS/Include/cmsis_gcc.h **** #endif
  94:Drivers/CMSIS/Include/cmsis_gcc.h **** #ifndef   __UNALIGNED_UINT32_WRITE
  95:Drivers/CMSIS/Include/cmsis_gcc.h ****   #pragma GCC diagnostic push
  96:Drivers/CMSIS/Include/cmsis_gcc.h ****   #pragma GCC diagnostic ignored "-Wpacked"
  97:Drivers/CMSIS/Include/cmsis_gcc.h ****   #pragma GCC diagnostic ignored "-Wattributes"
  98:Drivers/CMSIS/Include/cmsis_gcc.h ****   __PACKED_STRUCT T_UINT32_WRITE { uint32_t v; };
  99:Drivers/CMSIS/Include/cmsis_gcc.h ****   #pragma GCC diagnostic pop
 100:Drivers/CMSIS/Include/cmsis_gcc.h ****   #define __UNALIGNED_UINT32_WRITE(addr, val)    (void)((((struct T_UINT32_WRITE *)(void *)(addr))-
 101:Drivers/CMSIS/Include/cmsis_gcc.h **** #endif
 102:Drivers/CMSIS/Include/cmsis_gcc.h **** #ifndef   __UNALIGNED_UINT32_READ
 103:Drivers/CMSIS/Include/cmsis_gcc.h ****   #pragma GCC diagnostic push
 104:Drivers/CMSIS/Include/cmsis_gcc.h ****   #pragma GCC diagnostic ignored "-Wpacked"
 105:Drivers/CMSIS/Include/cmsis_gcc.h ****   #pragma GCC diagnostic ignored "-Wattributes"
 106:Drivers/CMSIS/Include/cmsis_gcc.h ****   __PACKED_STRUCT T_UINT32_READ { uint32_t v; };
 107:Drivers/CMSIS/Include/cmsis_gcc.h ****   #pragma GCC diagnostic pop
 108:Drivers/CMSIS/Include/cmsis_gcc.h ****   #define __UNALIGNED_UINT32_READ(addr)          (((const struct T_UINT32_READ *)(const void *)(add
 109:Drivers/CMSIS/Include/cmsis_gcc.h **** #endif
 110:Drivers/CMSIS/Include/cmsis_gcc.h **** #ifndef   __ALIGNED
 111:Drivers/CMSIS/Include/cmsis_gcc.h ****   #define __ALIGNED(x)                           __attribute__((aligned(x)))
 112:Drivers/CMSIS/Include/cmsis_gcc.h **** #endif
 113:Drivers/CMSIS/Include/cmsis_gcc.h **** #ifndef   __RESTRICT
 114:Drivers/CMSIS/Include/cmsis_gcc.h ****   #define __RESTRICT                             __restrict
 115:Drivers/CMSIS/Include/cmsis_gcc.h **** #endif
ARM GAS  C:\Users\jisu8\AppData\Local\Temp\ccPyvDcJ.s 			page 20


 116:Drivers/CMSIS/Include/cmsis_gcc.h **** 
 117:Drivers/CMSIS/Include/cmsis_gcc.h **** 
 118:Drivers/CMSIS/Include/cmsis_gcc.h **** /* ###########################  Core Function Access  ########################### */
 119:Drivers/CMSIS/Include/cmsis_gcc.h **** /** \ingroup  CMSIS_Core_FunctionInterface
 120:Drivers/CMSIS/Include/cmsis_gcc.h ****     \defgroup CMSIS_Core_RegAccFunctions CMSIS Core Register Access Functions
 121:Drivers/CMSIS/Include/cmsis_gcc.h ****   @{
 122:Drivers/CMSIS/Include/cmsis_gcc.h ****  */
 123:Drivers/CMSIS/Include/cmsis_gcc.h **** 
 124:Drivers/CMSIS/Include/cmsis_gcc.h **** /**
 125:Drivers/CMSIS/Include/cmsis_gcc.h ****   \brief   Enable IRQ Interrupts
 126:Drivers/CMSIS/Include/cmsis_gcc.h ****   \details Enables IRQ interrupts by clearing the I-bit in the CPSR.
 127:Drivers/CMSIS/Include/cmsis_gcc.h ****            Can only be executed in Privileged modes.
 128:Drivers/CMSIS/Include/cmsis_gcc.h ****  */
 129:Drivers/CMSIS/Include/cmsis_gcc.h **** __STATIC_FORCEINLINE void __enable_irq(void)
 130:Drivers/CMSIS/Include/cmsis_gcc.h **** {
 131:Drivers/CMSIS/Include/cmsis_gcc.h ****   __ASM volatile ("cpsie i" : : : "memory");
 132:Drivers/CMSIS/Include/cmsis_gcc.h **** }
 133:Drivers/CMSIS/Include/cmsis_gcc.h **** 
 134:Drivers/CMSIS/Include/cmsis_gcc.h **** 
 135:Drivers/CMSIS/Include/cmsis_gcc.h **** /**
 136:Drivers/CMSIS/Include/cmsis_gcc.h ****   \brief   Disable IRQ Interrupts
 137:Drivers/CMSIS/Include/cmsis_gcc.h ****   \details Disables IRQ interrupts by setting the I-bit in the CPSR.
 138:Drivers/CMSIS/Include/cmsis_gcc.h ****            Can only be executed in Privileged modes.
 139:Drivers/CMSIS/Include/cmsis_gcc.h ****  */
 140:Drivers/CMSIS/Include/cmsis_gcc.h **** __STATIC_FORCEINLINE void __disable_irq(void)
 309              		.loc 2 140 27 view .LVU78
 310              	.LBB11:
 141:Drivers/CMSIS/Include/cmsis_gcc.h **** {
 142:Drivers/CMSIS/Include/cmsis_gcc.h ****   __ASM volatile ("cpsid i" : : : "memory");
 311              		.loc 2 142 3 view .LVU79
 312              		.syntax unified
 313              	@ 142 "Drivers/CMSIS/Include/cmsis_gcc.h" 1
 314 0000 72B6     		cpsid i
 315              	@ 0 "" 2
 316              		.thumb
 317              		.syntax unified
 318              	.L10:
 319              	.LBE11:
 320              	.LBE10:
 648:Core/Src/main.c ****   while (1)
 321              		.loc 1 648 3 discriminator 1 view .LVU80
 649:Core/Src/main.c ****   {
 650:Core/Src/main.c ****   }
 322              		.loc 1 650 3 discriminator 1 view .LVU81
 648:Core/Src/main.c ****   while (1)
 323              		.loc 1 648 9 discriminator 1 view .LVU82
 324 0002 FEE7     		b	.L10
 325              		.cfi_endproc
 326              	.LFE146:
 328              		.section	.text.MX_ADC2_Init,"ax",%progbits
 329              		.align	1
 330              		.syntax unified
 331              		.thumb
 332              		.thumb_func
 334              	MX_ADC2_Init:
 335              	.LFB135:
 195:Core/Src/main.c **** 
ARM GAS  C:\Users\jisu8\AppData\Local\Temp\ccPyvDcJ.s 			page 21


 336              		.loc 1 195 1 view -0
 337              		.cfi_startproc
 338              		@ args = 0, pretend = 0, frame = 24
 339              		@ frame_needed = 0, uses_anonymous_args = 0
 340 0000 00B5     		push	{lr}
 341              	.LCFI6:
 342              		.cfi_def_cfa_offset 4
 343              		.cfi_offset 14, -4
 344 0002 87B0     		sub	sp, sp, #28
 345              	.LCFI7:
 346              		.cfi_def_cfa_offset 32
 201:Core/Src/main.c **** 
 347              		.loc 1 201 3 view .LVU84
 201:Core/Src/main.c **** 
 348              		.loc 1 201 26 is_stmt 0 view .LVU85
 349 0004 0023     		movs	r3, #0
 350 0006 0093     		str	r3, [sp]
 351 0008 0193     		str	r3, [sp, #4]
 352 000a 0293     		str	r3, [sp, #8]
 353 000c 0393     		str	r3, [sp, #12]
 354 000e 0493     		str	r3, [sp, #16]
 355 0010 0593     		str	r3, [sp, #20]
 209:Core/Src/main.c ****   hadc2.Init.ClockPrescaler = ADC_CLOCK_ASYNC_DIV1;
 356              		.loc 1 209 3 is_stmt 1 view .LVU86
 209:Core/Src/main.c ****   hadc2.Init.ClockPrescaler = ADC_CLOCK_ASYNC_DIV1;
 357              		.loc 1 209 18 is_stmt 0 view .LVU87
 358 0012 1648     		ldr	r0, .L17
 359 0014 164A     		ldr	r2, .L17+4
 360 0016 0260     		str	r2, [r0]
 210:Core/Src/main.c ****   hadc2.Init.Resolution = ADC_RESOLUTION_12B;
 361              		.loc 1 210 3 is_stmt 1 view .LVU88
 210:Core/Src/main.c ****   hadc2.Init.Resolution = ADC_RESOLUTION_12B;
 362              		.loc 1 210 29 is_stmt 0 view .LVU89
 363 0018 4360     		str	r3, [r0, #4]
 211:Core/Src/main.c ****   hadc2.Init.ScanConvMode = ADC_SCAN_DISABLE;
 364              		.loc 1 211 3 is_stmt 1 view .LVU90
 211:Core/Src/main.c ****   hadc2.Init.ScanConvMode = ADC_SCAN_DISABLE;
 365              		.loc 1 211 25 is_stmt 0 view .LVU91
 366 001a 8360     		str	r3, [r0, #8]
 212:Core/Src/main.c ****   hadc2.Init.ContinuousConvMode = ENABLE;
 367              		.loc 1 212 3 is_stmt 1 view .LVU92
 212:Core/Src/main.c ****   hadc2.Init.ContinuousConvMode = ENABLE;
 368              		.loc 1 212 27 is_stmt 0 view .LVU93
 369 001c 0361     		str	r3, [r0, #16]
 213:Core/Src/main.c ****   hadc2.Init.DiscontinuousConvMode = DISABLE;
 370              		.loc 1 213 3 is_stmt 1 view .LVU94
 213:Core/Src/main.c ****   hadc2.Init.DiscontinuousConvMode = DISABLE;
 371              		.loc 1 213 33 is_stmt 0 view .LVU95
 372 001e 0122     		movs	r2, #1
 373 0020 4276     		strb	r2, [r0, #25]
 214:Core/Src/main.c ****   hadc2.Init.ExternalTrigConvEdge = ADC_EXTERNALTRIGCONVEDGE_NONE;
 374              		.loc 1 214 3 is_stmt 1 view .LVU96
 214:Core/Src/main.c ****   hadc2.Init.ExternalTrigConvEdge = ADC_EXTERNALTRIGCONVEDGE_NONE;
 375              		.loc 1 214 36 is_stmt 0 view .LVU97
 376 0022 80F82030 		strb	r3, [r0, #32]
 215:Core/Src/main.c ****   hadc2.Init.ExternalTrigConv = ADC_SOFTWARE_START;
 377              		.loc 1 215 3 is_stmt 1 view .LVU98
ARM GAS  C:\Users\jisu8\AppData\Local\Temp\ccPyvDcJ.s 			page 22


 215:Core/Src/main.c ****   hadc2.Init.ExternalTrigConv = ADC_SOFTWARE_START;
 378              		.loc 1 215 35 is_stmt 0 view .LVU99
 379 0026 C362     		str	r3, [r0, #44]
 216:Core/Src/main.c ****   hadc2.Init.DataAlign = ADC_DATAALIGN_RIGHT;
 380              		.loc 1 216 3 is_stmt 1 view .LVU100
 216:Core/Src/main.c ****   hadc2.Init.DataAlign = ADC_DATAALIGN_RIGHT;
 381              		.loc 1 216 31 is_stmt 0 view .LVU101
 382 0028 8262     		str	r2, [r0, #40]
 217:Core/Src/main.c ****   hadc2.Init.NbrOfConversion = 1;
 383              		.loc 1 217 3 is_stmt 1 view .LVU102
 217:Core/Src/main.c ****   hadc2.Init.NbrOfConversion = 1;
 384              		.loc 1 217 24 is_stmt 0 view .LVU103
 385 002a C360     		str	r3, [r0, #12]
 218:Core/Src/main.c ****   hadc2.Init.DMAContinuousRequests = DISABLE;
 386              		.loc 1 218 3 is_stmt 1 view .LVU104
 218:Core/Src/main.c ****   hadc2.Init.DMAContinuousRequests = DISABLE;
 387              		.loc 1 218 30 is_stmt 0 view .LVU105
 388 002c C261     		str	r2, [r0, #28]
 219:Core/Src/main.c ****   hadc2.Init.EOCSelection = ADC_EOC_SINGLE_CONV;
 389              		.loc 1 219 3 is_stmt 1 view .LVU106
 219:Core/Src/main.c ****   hadc2.Init.EOCSelection = ADC_EOC_SINGLE_CONV;
 390              		.loc 1 219 36 is_stmt 0 view .LVU107
 391 002e 80F83030 		strb	r3, [r0, #48]
 220:Core/Src/main.c ****   hadc2.Init.LowPowerAutoWait = DISABLE;
 392              		.loc 1 220 3 is_stmt 1 view .LVU108
 220:Core/Src/main.c ****   hadc2.Init.LowPowerAutoWait = DISABLE;
 393              		.loc 1 220 27 is_stmt 0 view .LVU109
 394 0032 0422     		movs	r2, #4
 395 0034 4261     		str	r2, [r0, #20]
 221:Core/Src/main.c ****   hadc2.Init.Overrun = ADC_OVR_DATA_OVERWRITTEN;
 396              		.loc 1 221 3 is_stmt 1 view .LVU110
 221:Core/Src/main.c ****   hadc2.Init.Overrun = ADC_OVR_DATA_OVERWRITTEN;
 397              		.loc 1 221 31 is_stmt 0 view .LVU111
 398 0036 0376     		strb	r3, [r0, #24]
 222:Core/Src/main.c ****   if (HAL_ADC_Init(&hadc2) != HAL_OK)
 399              		.loc 1 222 3 is_stmt 1 view .LVU112
 222:Core/Src/main.c ****   if (HAL_ADC_Init(&hadc2) != HAL_OK)
 400              		.loc 1 222 22 is_stmt 0 view .LVU113
 401 0038 4363     		str	r3, [r0, #52]
 223:Core/Src/main.c ****   {
 402              		.loc 1 223 3 is_stmt 1 view .LVU114
 223:Core/Src/main.c ****   {
 403              		.loc 1 223 7 is_stmt 0 view .LVU115
 404 003a FFF7FEFF 		bl	HAL_ADC_Init
 405              	.LVL12:
 223:Core/Src/main.c ****   {
 406              		.loc 1 223 6 view .LVU116
 407 003e 88B9     		cbnz	r0, .L15
 230:Core/Src/main.c ****   sConfig.Rank = ADC_REGULAR_RANK_1;
 408              		.loc 1 230 3 is_stmt 1 view .LVU117
 230:Core/Src/main.c ****   sConfig.Rank = ADC_REGULAR_RANK_1;
 409              		.loc 1 230 19 is_stmt 0 view .LVU118
 410 0040 0323     		movs	r3, #3
 411 0042 0093     		str	r3, [sp]
 231:Core/Src/main.c ****   sConfig.SingleDiff = ADC_SINGLE_ENDED;
 412              		.loc 1 231 3 is_stmt 1 view .LVU119
 231:Core/Src/main.c ****   sConfig.SingleDiff = ADC_SINGLE_ENDED;
ARM GAS  C:\Users\jisu8\AppData\Local\Temp\ccPyvDcJ.s 			page 23


 413              		.loc 1 231 16 is_stmt 0 view .LVU120
 414 0044 0123     		movs	r3, #1
 415 0046 0193     		str	r3, [sp, #4]
 232:Core/Src/main.c ****   sConfig.SamplingTime = ADC_SAMPLETIME_19CYCLES_5;
 416              		.loc 1 232 3 is_stmt 1 view .LVU121
 232:Core/Src/main.c ****   sConfig.SamplingTime = ADC_SAMPLETIME_19CYCLES_5;
 417              		.loc 1 232 22 is_stmt 0 view .LVU122
 418 0048 0023     		movs	r3, #0
 419 004a 0393     		str	r3, [sp, #12]
 233:Core/Src/main.c ****   sConfig.OffsetNumber = ADC_OFFSET_NONE;
 420              		.loc 1 233 3 is_stmt 1 view .LVU123
 233:Core/Src/main.c ****   sConfig.OffsetNumber = ADC_OFFSET_NONE;
 421              		.loc 1 233 24 is_stmt 0 view .LVU124
 422 004c 0422     		movs	r2, #4
 423 004e 0292     		str	r2, [sp, #8]
 234:Core/Src/main.c ****   sConfig.Offset = 0;
 424              		.loc 1 234 3 is_stmt 1 view .LVU125
 234:Core/Src/main.c ****   sConfig.Offset = 0;
 425              		.loc 1 234 24 is_stmt 0 view .LVU126
 426 0050 0493     		str	r3, [sp, #16]
 235:Core/Src/main.c ****   if (HAL_ADC_ConfigChannel(&hadc2, &sConfig) != HAL_OK)
 427              		.loc 1 235 3 is_stmt 1 view .LVU127
 235:Core/Src/main.c ****   if (HAL_ADC_ConfigChannel(&hadc2, &sConfig) != HAL_OK)
 428              		.loc 1 235 18 is_stmt 0 view .LVU128
 429 0052 0593     		str	r3, [sp, #20]
 236:Core/Src/main.c ****   {
 430              		.loc 1 236 3 is_stmt 1 view .LVU129
 236:Core/Src/main.c ****   {
 431              		.loc 1 236 7 is_stmt 0 view .LVU130
 432 0054 6946     		mov	r1, sp
 433 0056 0548     		ldr	r0, .L17
 434 0058 FFF7FEFF 		bl	HAL_ADC_ConfigChannel
 435              	.LVL13:
 236:Core/Src/main.c ****   {
 436              		.loc 1 236 6 view .LVU131
 437 005c 20B9     		cbnz	r0, .L16
 244:Core/Src/main.c **** 
 438              		.loc 1 244 1 view .LVU132
 439 005e 07B0     		add	sp, sp, #28
 440              	.LCFI8:
 441              		.cfi_remember_state
 442              		.cfi_def_cfa_offset 4
 443              		@ sp needed
 444 0060 5DF804FB 		ldr	pc, [sp], #4
 445              	.L15:
 446              	.LCFI9:
 447              		.cfi_restore_state
 225:Core/Src/main.c ****   }
 448              		.loc 1 225 5 is_stmt 1 view .LVU133
 449 0064 FFF7FEFF 		bl	Error_Handler
 450              	.LVL14:
 451              	.L16:
 238:Core/Src/main.c ****   }
 452              		.loc 1 238 5 view .LVU134
 453 0068 FFF7FEFF 		bl	Error_Handler
 454              	.LVL15:
 455              	.L18:
ARM GAS  C:\Users\jisu8\AppData\Local\Temp\ccPyvDcJ.s 			page 24


 456              		.align	2
 457              	.L17:
 458 006c 00000000 		.word	.LANCHOR0
 459 0070 00010050 		.word	1342177536
 460              		.cfi_endproc
 461              	.LFE135:
 463              		.section	.text.MX_SPI2_Init,"ax",%progbits
 464              		.align	1
 465              		.syntax unified
 466              		.thumb
 467              		.thumb_func
 469              	MX_SPI2_Init:
 470              	.LFB137:
 315:Core/Src/main.c **** 
 471              		.loc 1 315 1 view -0
 472              		.cfi_startproc
 473              		@ args = 0, pretend = 0, frame = 0
 474              		@ frame_needed = 0, uses_anonymous_args = 0
 475 0000 08B5     		push	{r3, lr}
 476              	.LCFI10:
 477              		.cfi_def_cfa_offset 8
 478              		.cfi_offset 3, -8
 479              		.cfi_offset 14, -4
 325:Core/Src/main.c ****   hspi2.Init.Mode = SPI_MODE_MASTER;
 480              		.loc 1 325 3 view .LVU136
 325:Core/Src/main.c ****   hspi2.Init.Mode = SPI_MODE_MASTER;
 481              		.loc 1 325 18 is_stmt 0 view .LVU137
 482 0002 0F48     		ldr	r0, .L23
 483 0004 0F4B     		ldr	r3, .L23+4
 484 0006 0360     		str	r3, [r0]
 326:Core/Src/main.c ****   hspi2.Init.Direction = SPI_DIRECTION_2LINES;
 485              		.loc 1 326 3 is_stmt 1 view .LVU138
 326:Core/Src/main.c ****   hspi2.Init.Direction = SPI_DIRECTION_2LINES;
 486              		.loc 1 326 19 is_stmt 0 view .LVU139
 487 0008 4FF48273 		mov	r3, #260
 488 000c 4360     		str	r3, [r0, #4]
 327:Core/Src/main.c ****   hspi2.Init.DataSize = SPI_DATASIZE_8BIT;
 489              		.loc 1 327 3 is_stmt 1 view .LVU140
 327:Core/Src/main.c ****   hspi2.Init.DataSize = SPI_DATASIZE_8BIT;
 490              		.loc 1 327 24 is_stmt 0 view .LVU141
 491 000e 0023     		movs	r3, #0
 492 0010 8360     		str	r3, [r0, #8]
 328:Core/Src/main.c ****   hspi2.Init.CLKPolarity = SPI_POLARITY_LOW;
 493              		.loc 1 328 3 is_stmt 1 view .LVU142
 328:Core/Src/main.c ****   hspi2.Init.CLKPolarity = SPI_POLARITY_LOW;
 494              		.loc 1 328 23 is_stmt 0 view .LVU143
 495 0012 4FF4E062 		mov	r2, #1792
 496 0016 C260     		str	r2, [r0, #12]
 329:Core/Src/main.c ****   hspi2.Init.CLKPhase = SPI_PHASE_1EDGE;
 497              		.loc 1 329 3 is_stmt 1 view .LVU144
 329:Core/Src/main.c ****   hspi2.Init.CLKPhase = SPI_PHASE_1EDGE;
 498              		.loc 1 329 26 is_stmt 0 view .LVU145
 499 0018 0361     		str	r3, [r0, #16]
 330:Core/Src/main.c ****   hspi2.Init.NSS = SPI_NSS_SOFT;
 500              		.loc 1 330 3 is_stmt 1 view .LVU146
 330:Core/Src/main.c ****   hspi2.Init.NSS = SPI_NSS_SOFT;
 501              		.loc 1 330 23 is_stmt 0 view .LVU147
ARM GAS  C:\Users\jisu8\AppData\Local\Temp\ccPyvDcJ.s 			page 25


 502 001a 4361     		str	r3, [r0, #20]
 331:Core/Src/main.c ****   hspi2.Init.BaudRatePrescaler = SPI_BAUDRATEPRESCALER_2;
 503              		.loc 1 331 3 is_stmt 1 view .LVU148
 331:Core/Src/main.c ****   hspi2.Init.BaudRatePrescaler = SPI_BAUDRATEPRESCALER_2;
 504              		.loc 1 331 18 is_stmt 0 view .LVU149
 505 001c 4FF40072 		mov	r2, #512
 506 0020 8261     		str	r2, [r0, #24]
 332:Core/Src/main.c ****   hspi2.Init.FirstBit = SPI_FIRSTBIT_MSB;
 507              		.loc 1 332 3 is_stmt 1 view .LVU150
 332:Core/Src/main.c ****   hspi2.Init.FirstBit = SPI_FIRSTBIT_MSB;
 508              		.loc 1 332 32 is_stmt 0 view .LVU151
 509 0022 C361     		str	r3, [r0, #28]
 333:Core/Src/main.c ****   hspi2.Init.TIMode = SPI_TIMODE_DISABLE;
 510              		.loc 1 333 3 is_stmt 1 view .LVU152
 333:Core/Src/main.c ****   hspi2.Init.TIMode = SPI_TIMODE_DISABLE;
 511              		.loc 1 333 23 is_stmt 0 view .LVU153
 512 0024 0362     		str	r3, [r0, #32]
 334:Core/Src/main.c ****   hspi2.Init.CRCCalculation = SPI_CRCCALCULATION_DISABLE;
 513              		.loc 1 334 3 is_stmt 1 view .LVU154
 334:Core/Src/main.c ****   hspi2.Init.CRCCalculation = SPI_CRCCALCULATION_DISABLE;
 514              		.loc 1 334 21 is_stmt 0 view .LVU155
 515 0026 4362     		str	r3, [r0, #36]
 335:Core/Src/main.c ****   hspi2.Init.CRCPolynomial = 7;
 516              		.loc 1 335 3 is_stmt 1 view .LVU156
 335:Core/Src/main.c ****   hspi2.Init.CRCPolynomial = 7;
 517              		.loc 1 335 29 is_stmt 0 view .LVU157
 518 0028 8362     		str	r3, [r0, #40]
 336:Core/Src/main.c ****   hspi2.Init.CRCLength = SPI_CRC_LENGTH_DATASIZE;
 519              		.loc 1 336 3 is_stmt 1 view .LVU158
 336:Core/Src/main.c ****   hspi2.Init.CRCLength = SPI_CRC_LENGTH_DATASIZE;
 520              		.loc 1 336 28 is_stmt 0 view .LVU159
 521 002a 0722     		movs	r2, #7
 522 002c C262     		str	r2, [r0, #44]
 337:Core/Src/main.c ****   hspi2.Init.NSSPMode = SPI_NSS_PULSE_ENABLE;
 523              		.loc 1 337 3 is_stmt 1 view .LVU160
 337:Core/Src/main.c ****   hspi2.Init.NSSPMode = SPI_NSS_PULSE_ENABLE;
 524              		.loc 1 337 24 is_stmt 0 view .LVU161
 525 002e 0363     		str	r3, [r0, #48]
 338:Core/Src/main.c ****   if (HAL_SPI_Init(&hspi2) != HAL_OK)
 526              		.loc 1 338 3 is_stmt 1 view .LVU162
 338:Core/Src/main.c ****   if (HAL_SPI_Init(&hspi2) != HAL_OK)
 527              		.loc 1 338 23 is_stmt 0 view .LVU163
 528 0030 0823     		movs	r3, #8
 529 0032 4363     		str	r3, [r0, #52]
 339:Core/Src/main.c ****   {
 530              		.loc 1 339 3 is_stmt 1 view .LVU164
 339:Core/Src/main.c ****   {
 531              		.loc 1 339 7 is_stmt 0 view .LVU165
 532 0034 FFF7FEFF 		bl	HAL_SPI_Init
 533              	.LVL16:
 339:Core/Src/main.c ****   {
 534              		.loc 1 339 6 view .LVU166
 535 0038 00B9     		cbnz	r0, .L22
 347:Core/Src/main.c **** 
 536              		.loc 1 347 1 view .LVU167
 537 003a 08BD     		pop	{r3, pc}
 538              	.L22:
ARM GAS  C:\Users\jisu8\AppData\Local\Temp\ccPyvDcJ.s 			page 26


 341:Core/Src/main.c ****   }
 539              		.loc 1 341 5 is_stmt 1 view .LVU168
 540 003c FFF7FEFF 		bl	Error_Handler
 541              	.LVL17:
 542              	.L24:
 543              		.align	2
 544              	.L23:
 545 0040 00000000 		.word	.LANCHOR1
 546 0044 00380040 		.word	1073756160
 547              		.cfi_endproc
 548              	.LFE137:
 550              		.section	.text.MX_USART1_UART_Init,"ax",%progbits
 551              		.align	1
 552              		.syntax unified
 553              		.thumb
 554              		.thumb_func
 556              	MX_USART1_UART_Init:
 557              	.LFB141:
 468:Core/Src/main.c **** 
 558              		.loc 1 468 1 view -0
 559              		.cfi_startproc
 560              		@ args = 0, pretend = 0, frame = 0
 561              		@ frame_needed = 0, uses_anonymous_args = 0
 562 0000 08B5     		push	{r3, lr}
 563              	.LCFI11:
 564              		.cfi_def_cfa_offset 8
 565              		.cfi_offset 3, -8
 566              		.cfi_offset 14, -4
 477:Core/Src/main.c ****   huart1.Init.BaudRate = 115200;
 567              		.loc 1 477 3 view .LVU170
 477:Core/Src/main.c ****   huart1.Init.BaudRate = 115200;
 568              		.loc 1 477 19 is_stmt 0 view .LVU171
 569 0002 0B48     		ldr	r0, .L29
 570 0004 0B4B     		ldr	r3, .L29+4
 571 0006 0360     		str	r3, [r0]
 478:Core/Src/main.c ****   huart1.Init.WordLength = UART_WORDLENGTH_8B;
 572              		.loc 1 478 3 is_stmt 1 view .LVU172
 478:Core/Src/main.c ****   huart1.Init.WordLength = UART_WORDLENGTH_8B;
 573              		.loc 1 478 24 is_stmt 0 view .LVU173
 574 0008 4FF4E133 		mov	r3, #115200
 575 000c 4360     		str	r3, [r0, #4]
 479:Core/Src/main.c ****   huart1.Init.StopBits = UART_STOPBITS_1;
 576              		.loc 1 479 3 is_stmt 1 view .LVU174
 479:Core/Src/main.c ****   huart1.Init.StopBits = UART_STOPBITS_1;
 577              		.loc 1 479 26 is_stmt 0 view .LVU175
 578 000e 0023     		movs	r3, #0
 579 0010 8360     		str	r3, [r0, #8]
 480:Core/Src/main.c ****   huart1.Init.Parity = UART_PARITY_NONE;
 580              		.loc 1 480 3 is_stmt 1 view .LVU176
 480:Core/Src/main.c ****   huart1.Init.Parity = UART_PARITY_NONE;
 581              		.loc 1 480 24 is_stmt 0 view .LVU177
 582 0012 C360     		str	r3, [r0, #12]
 481:Core/Src/main.c ****   huart1.Init.Mode = UART_MODE_TX_RX;
 583              		.loc 1 481 3 is_stmt 1 view .LVU178
 481:Core/Src/main.c ****   huart1.Init.Mode = UART_MODE_TX_RX;
 584              		.loc 1 481 22 is_stmt 0 view .LVU179
 585 0014 0361     		str	r3, [r0, #16]
ARM GAS  C:\Users\jisu8\AppData\Local\Temp\ccPyvDcJ.s 			page 27


 482:Core/Src/main.c ****   huart1.Init.HwFlowCtl = UART_HWCONTROL_NONE;
 586              		.loc 1 482 3 is_stmt 1 view .LVU180
 482:Core/Src/main.c ****   huart1.Init.HwFlowCtl = UART_HWCONTROL_NONE;
 587              		.loc 1 482 20 is_stmt 0 view .LVU181
 588 0016 0C22     		movs	r2, #12
 589 0018 4261     		str	r2, [r0, #20]
 483:Core/Src/main.c ****   huart1.Init.OverSampling = UART_OVERSAMPLING_16;
 590              		.loc 1 483 3 is_stmt 1 view .LVU182
 483:Core/Src/main.c ****   huart1.Init.OverSampling = UART_OVERSAMPLING_16;
 591              		.loc 1 483 25 is_stmt 0 view .LVU183
 592 001a 8361     		str	r3, [r0, #24]
 484:Core/Src/main.c ****   huart1.Init.OneBitSampling = UART_ONE_BIT_SAMPLE_DISABLE;
 593              		.loc 1 484 3 is_stmt 1 view .LVU184
 484:Core/Src/main.c ****   huart1.Init.OneBitSampling = UART_ONE_BIT_SAMPLE_DISABLE;
 594              		.loc 1 484 28 is_stmt 0 view .LVU185
 595 001c C361     		str	r3, [r0, #28]
 485:Core/Src/main.c ****   huart1.AdvancedInit.AdvFeatureInit = UART_ADVFEATURE_NO_INIT;
 596              		.loc 1 485 3 is_stmt 1 view .LVU186
 485:Core/Src/main.c ****   huart1.AdvancedInit.AdvFeatureInit = UART_ADVFEATURE_NO_INIT;
 597              		.loc 1 485 30 is_stmt 0 view .LVU187
 598 001e 0362     		str	r3, [r0, #32]
 486:Core/Src/main.c ****   if (HAL_UART_Init(&huart1) != HAL_OK)
 599              		.loc 1 486 3 is_stmt 1 view .LVU188
 486:Core/Src/main.c ****   if (HAL_UART_Init(&huart1) != HAL_OK)
 600              		.loc 1 486 38 is_stmt 0 view .LVU189
 601 0020 4362     		str	r3, [r0, #36]
 487:Core/Src/main.c ****   {
 602              		.loc 1 487 3 is_stmt 1 view .LVU190
 487:Core/Src/main.c ****   {
 603              		.loc 1 487 7 is_stmt 0 view .LVU191
 604 0022 FFF7FEFF 		bl	HAL_UART_Init
 605              	.LVL18:
 487:Core/Src/main.c ****   {
 606              		.loc 1 487 6 view .LVU192
 607 0026 00B9     		cbnz	r0, .L28
 495:Core/Src/main.c **** 
 608              		.loc 1 495 1 view .LVU193
 609 0028 08BD     		pop	{r3, pc}
 610              	.L28:
 489:Core/Src/main.c ****   }
 611              		.loc 1 489 5 is_stmt 1 view .LVU194
 612 002a FFF7FEFF 		bl	Error_Handler
 613              	.LVL19:
 614              	.L30:
 615 002e 00BF     		.align	2
 616              	.L29:
 617 0030 00000000 		.word	.LANCHOR2
 618 0034 00380140 		.word	1073821696
 619              		.cfi_endproc
 620              	.LFE141:
 622              		.section	.text.MX_USART2_UART_Init,"ax",%progbits
 623              		.align	1
 624              		.syntax unified
 625              		.thumb
 626              		.thumb_func
 628              	MX_USART2_UART_Init:
 629              	.LFB142:
ARM GAS  C:\Users\jisu8\AppData\Local\Temp\ccPyvDcJ.s 			page 28


 503:Core/Src/main.c **** 
 630              		.loc 1 503 1 view -0
 631              		.cfi_startproc
 632              		@ args = 0, pretend = 0, frame = 0
 633              		@ frame_needed = 0, uses_anonymous_args = 0
 634 0000 08B5     		push	{r3, lr}
 635              	.LCFI12:
 636              		.cfi_def_cfa_offset 8
 637              		.cfi_offset 3, -8
 638              		.cfi_offset 14, -4
 512:Core/Src/main.c ****   huart2.Init.BaudRate = 115200;
 639              		.loc 1 512 3 view .LVU196
 512:Core/Src/main.c ****   huart2.Init.BaudRate = 115200;
 640              		.loc 1 512 19 is_stmt 0 view .LVU197
 641 0002 0B48     		ldr	r0, .L35
 642 0004 0B4B     		ldr	r3, .L35+4
 643 0006 0360     		str	r3, [r0]
 513:Core/Src/main.c ****   huart2.Init.WordLength = UART_WORDLENGTH_8B;
 644              		.loc 1 513 3 is_stmt 1 view .LVU198
 513:Core/Src/main.c ****   huart2.Init.WordLength = UART_WORDLENGTH_8B;
 645              		.loc 1 513 24 is_stmt 0 view .LVU199
 646 0008 4FF4E133 		mov	r3, #115200
 647 000c 4360     		str	r3, [r0, #4]
 514:Core/Src/main.c ****   huart2.Init.StopBits = UART_STOPBITS_1;
 648              		.loc 1 514 3 is_stmt 1 view .LVU200
 514:Core/Src/main.c ****   huart2.Init.StopBits = UART_STOPBITS_1;
 649              		.loc 1 514 26 is_stmt 0 view .LVU201
 650 000e 0023     		movs	r3, #0
 651 0010 8360     		str	r3, [r0, #8]
 515:Core/Src/main.c ****   huart2.Init.Parity = UART_PARITY_NONE;
 652              		.loc 1 515 3 is_stmt 1 view .LVU202
 515:Core/Src/main.c ****   huart2.Init.Parity = UART_PARITY_NONE;
 653              		.loc 1 515 24 is_stmt 0 view .LVU203
 654 0012 C360     		str	r3, [r0, #12]
 516:Core/Src/main.c ****   huart2.Init.Mode = UART_MODE_TX_RX;
 655              		.loc 1 516 3 is_stmt 1 view .LVU204
 516:Core/Src/main.c ****   huart2.Init.Mode = UART_MODE_TX_RX;
 656              		.loc 1 516 22 is_stmt 0 view .LVU205
 657 0014 0361     		str	r3, [r0, #16]
 517:Core/Src/main.c ****   huart2.Init.HwFlowCtl = UART_HWCONTROL_NONE;
 658              		.loc 1 517 3 is_stmt 1 view .LVU206
 517:Core/Src/main.c ****   huart2.Init.HwFlowCtl = UART_HWCONTROL_NONE;
 659              		.loc 1 517 20 is_stmt 0 view .LVU207
 660 0016 0C22     		movs	r2, #12
 661 0018 4261     		str	r2, [r0, #20]
 518:Core/Src/main.c ****   huart2.Init.OverSampling = UART_OVERSAMPLING_16;
 662              		.loc 1 518 3 is_stmt 1 view .LVU208
 518:Core/Src/main.c ****   huart2.Init.OverSampling = UART_OVERSAMPLING_16;
 663              		.loc 1 518 25 is_stmt 0 view .LVU209
 664 001a 8361     		str	r3, [r0, #24]
 519:Core/Src/main.c ****   huart2.Init.OneBitSampling = UART_ONE_BIT_SAMPLE_DISABLE;
 665              		.loc 1 519 3 is_stmt 1 view .LVU210
 519:Core/Src/main.c ****   huart2.Init.OneBitSampling = UART_ONE_BIT_SAMPLE_DISABLE;
 666              		.loc 1 519 28 is_stmt 0 view .LVU211
 667 001c C361     		str	r3, [r0, #28]
 520:Core/Src/main.c ****   huart2.AdvancedInit.AdvFeatureInit = UART_ADVFEATURE_NO_INIT;
 668              		.loc 1 520 3 is_stmt 1 view .LVU212
ARM GAS  C:\Users\jisu8\AppData\Local\Temp\ccPyvDcJ.s 			page 29


 520:Core/Src/main.c ****   huart2.AdvancedInit.AdvFeatureInit = UART_ADVFEATURE_NO_INIT;
 669              		.loc 1 520 30 is_stmt 0 view .LVU213
 670 001e 0362     		str	r3, [r0, #32]
 521:Core/Src/main.c ****   if (HAL_UART_Init(&huart2) != HAL_OK)
 671              		.loc 1 521 3 is_stmt 1 view .LVU214
 521:Core/Src/main.c ****   if (HAL_UART_Init(&huart2) != HAL_OK)
 672              		.loc 1 521 38 is_stmt 0 view .LVU215
 673 0020 4362     		str	r3, [r0, #36]
 522:Core/Src/main.c ****   {
 674              		.loc 1 522 3 is_stmt 1 view .LVU216
 522:Core/Src/main.c ****   {
 675              		.loc 1 522 7 is_stmt 0 view .LVU217
 676 0022 FFF7FEFF 		bl	HAL_UART_Init
 677              	.LVL20:
 522:Core/Src/main.c ****   {
 678              		.loc 1 522 6 view .LVU218
 679 0026 00B9     		cbnz	r0, .L34
 530:Core/Src/main.c **** 
 680              		.loc 1 530 1 view .LVU219
 681 0028 08BD     		pop	{r3, pc}
 682              	.L34:
 524:Core/Src/main.c ****   }
 683              		.loc 1 524 5 is_stmt 1 view .LVU220
 684 002a FFF7FEFF 		bl	Error_Handler
 685              	.LVL21:
 686              	.L36:
 687 002e 00BF     		.align	2
 688              	.L35:
 689 0030 00000000 		.word	.LANCHOR3
 690 0034 00440040 		.word	1073759232
 691              		.cfi_endproc
 692              	.LFE142:
 694              		.section	.text.MX_USART3_UART_Init,"ax",%progbits
 695              		.align	1
 696              		.syntax unified
 697              		.thumb
 698              		.thumb_func
 700              	MX_USART3_UART_Init:
 701              	.LFB143:
 538:Core/Src/main.c **** 
 702              		.loc 1 538 1 view -0
 703              		.cfi_startproc
 704              		@ args = 0, pretend = 0, frame = 0
 705              		@ frame_needed = 0, uses_anonymous_args = 0
 706 0000 08B5     		push	{r3, lr}
 707              	.LCFI13:
 708              		.cfi_def_cfa_offset 8
 709              		.cfi_offset 3, -8
 710              		.cfi_offset 14, -4
 547:Core/Src/main.c ****   huart3.Init.BaudRate = 115200;
 711              		.loc 1 547 3 view .LVU222
 547:Core/Src/main.c ****   huart3.Init.BaudRate = 115200;
 712              		.loc 1 547 19 is_stmt 0 view .LVU223
 713 0002 0B48     		ldr	r0, .L41
 714 0004 0B4B     		ldr	r3, .L41+4
 715 0006 0360     		str	r3, [r0]
 548:Core/Src/main.c ****   huart3.Init.WordLength = UART_WORDLENGTH_8B;
ARM GAS  C:\Users\jisu8\AppData\Local\Temp\ccPyvDcJ.s 			page 30


 716              		.loc 1 548 3 is_stmt 1 view .LVU224
 548:Core/Src/main.c ****   huart3.Init.WordLength = UART_WORDLENGTH_8B;
 717              		.loc 1 548 24 is_stmt 0 view .LVU225
 718 0008 4FF4E133 		mov	r3, #115200
 719 000c 4360     		str	r3, [r0, #4]
 549:Core/Src/main.c ****   huart3.Init.StopBits = UART_STOPBITS_1;
 720              		.loc 1 549 3 is_stmt 1 view .LVU226
 549:Core/Src/main.c ****   huart3.Init.StopBits = UART_STOPBITS_1;
 721              		.loc 1 549 26 is_stmt 0 view .LVU227
 722 000e 0023     		movs	r3, #0
 723 0010 8360     		str	r3, [r0, #8]
 550:Core/Src/main.c ****   huart3.Init.Parity = UART_PARITY_NONE;
 724              		.loc 1 550 3 is_stmt 1 view .LVU228
 550:Core/Src/main.c ****   huart3.Init.Parity = UART_PARITY_NONE;
 725              		.loc 1 550 24 is_stmt 0 view .LVU229
 726 0012 C360     		str	r3, [r0, #12]
 551:Core/Src/main.c ****   huart3.Init.Mode = UART_MODE_TX_RX;
 727              		.loc 1 551 3 is_stmt 1 view .LVU230
 551:Core/Src/main.c ****   huart3.Init.Mode = UART_MODE_TX_RX;
 728              		.loc 1 551 22 is_stmt 0 view .LVU231
 729 0014 0361     		str	r3, [r0, #16]
 552:Core/Src/main.c ****   huart3.Init.HwFlowCtl = UART_HWCONTROL_NONE;
 730              		.loc 1 552 3 is_stmt 1 view .LVU232
 552:Core/Src/main.c ****   huart3.Init.HwFlowCtl = UART_HWCONTROL_NONE;
 731              		.loc 1 552 20 is_stmt 0 view .LVU233
 732 0016 0C22     		movs	r2, #12
 733 0018 4261     		str	r2, [r0, #20]
 553:Core/Src/main.c ****   huart3.Init.OverSampling = UART_OVERSAMPLING_16;
 734              		.loc 1 553 3 is_stmt 1 view .LVU234
 553:Core/Src/main.c ****   huart3.Init.OverSampling = UART_OVERSAMPLING_16;
 735              		.loc 1 553 25 is_stmt 0 view .LVU235
 736 001a 8361     		str	r3, [r0, #24]
 554:Core/Src/main.c ****   huart3.Init.OneBitSampling = UART_ONE_BIT_SAMPLE_DISABLE;
 737              		.loc 1 554 3 is_stmt 1 view .LVU236
 554:Core/Src/main.c ****   huart3.Init.OneBitSampling = UART_ONE_BIT_SAMPLE_DISABLE;
 738              		.loc 1 554 28 is_stmt 0 view .LVU237
 739 001c C361     		str	r3, [r0, #28]
 555:Core/Src/main.c ****   huart3.AdvancedInit.AdvFeatureInit = UART_ADVFEATURE_NO_INIT;
 740              		.loc 1 555 3 is_stmt 1 view .LVU238
 555:Core/Src/main.c ****   huart3.AdvancedInit.AdvFeatureInit = UART_ADVFEATURE_NO_INIT;
 741              		.loc 1 555 30 is_stmt 0 view .LVU239
 742 001e 0362     		str	r3, [r0, #32]
 556:Core/Src/main.c ****   if (HAL_UART_Init(&huart3) != HAL_OK)
 743              		.loc 1 556 3 is_stmt 1 view .LVU240
 556:Core/Src/main.c ****   if (HAL_UART_Init(&huart3) != HAL_OK)
 744              		.loc 1 556 38 is_stmt 0 view .LVU241
 745 0020 4362     		str	r3, [r0, #36]
 557:Core/Src/main.c ****   {
 746              		.loc 1 557 3 is_stmt 1 view .LVU242
 557:Core/Src/main.c ****   {
 747              		.loc 1 557 7 is_stmt 0 view .LVU243
 748 0022 FFF7FEFF 		bl	HAL_UART_Init
 749              	.LVL22:
 557:Core/Src/main.c ****   {
 750              		.loc 1 557 6 view .LVU244
 751 0026 00B9     		cbnz	r0, .L40
 565:Core/Src/main.c **** 
ARM GAS  C:\Users\jisu8\AppData\Local\Temp\ccPyvDcJ.s 			page 31


 752              		.loc 1 565 1 view .LVU245
 753 0028 08BD     		pop	{r3, pc}
 754              	.L40:
 559:Core/Src/main.c ****   }
 755              		.loc 1 559 5 is_stmt 1 view .LVU246
 756 002a FFF7FEFF 		bl	Error_Handler
 757              	.LVL23:
 758              	.L42:
 759 002e 00BF     		.align	2
 760              	.L41:
 761 0030 00000000 		.word	.LANCHOR4
 762 0034 00480040 		.word	1073760256
 763              		.cfi_endproc
 764              	.LFE143:
 766              		.section	.text.MX_TIM3_Init,"ax",%progbits
 767              		.align	1
 768              		.syntax unified
 769              		.thumb
 770              		.thumb_func
 772              	MX_TIM3_Init:
 773              	.LFB138:
 355:Core/Src/main.c **** 
 774              		.loc 1 355 1 view -0
 775              		.cfi_startproc
 776              		@ args = 0, pretend = 0, frame = 40
 777              		@ frame_needed = 0, uses_anonymous_args = 0
 778 0000 00B5     		push	{lr}
 779              	.LCFI14:
 780              		.cfi_def_cfa_offset 4
 781              		.cfi_offset 14, -4
 782 0002 8BB0     		sub	sp, sp, #44
 783              	.LCFI15:
 784              		.cfi_def_cfa_offset 48
 361:Core/Src/main.c ****   TIM_OC_InitTypeDef sConfigOC = {0};
 785              		.loc 1 361 3 view .LVU248
 361:Core/Src/main.c ****   TIM_OC_InitTypeDef sConfigOC = {0};
 786              		.loc 1 361 27 is_stmt 0 view .LVU249
 787 0004 0023     		movs	r3, #0
 788 0006 0793     		str	r3, [sp, #28]
 789 0008 0893     		str	r3, [sp, #32]
 790 000a 0993     		str	r3, [sp, #36]
 362:Core/Src/main.c **** 
 791              		.loc 1 362 3 is_stmt 1 view .LVU250
 362:Core/Src/main.c **** 
 792              		.loc 1 362 22 is_stmt 0 view .LVU251
 793 000c 0093     		str	r3, [sp]
 794 000e 0193     		str	r3, [sp, #4]
 795 0010 0293     		str	r3, [sp, #8]
 796 0012 0393     		str	r3, [sp, #12]
 797 0014 0493     		str	r3, [sp, #16]
 798 0016 0593     		str	r3, [sp, #20]
 799 0018 0693     		str	r3, [sp, #24]
 367:Core/Src/main.c ****   htim3.Init.Prescaler = 71;
 800              		.loc 1 367 3 is_stmt 1 view .LVU252
 367:Core/Src/main.c ****   htim3.Init.Prescaler = 71;
 801              		.loc 1 367 18 is_stmt 0 view .LVU253
 802 001a 1748     		ldr	r0, .L51
ARM GAS  C:\Users\jisu8\AppData\Local\Temp\ccPyvDcJ.s 			page 32


 803 001c 174A     		ldr	r2, .L51+4
 804 001e 0260     		str	r2, [r0]
 368:Core/Src/main.c ****   htim3.Init.CounterMode = TIM_COUNTERMODE_UP;
 805              		.loc 1 368 3 is_stmt 1 view .LVU254
 368:Core/Src/main.c ****   htim3.Init.CounterMode = TIM_COUNTERMODE_UP;
 806              		.loc 1 368 24 is_stmt 0 view .LVU255
 807 0020 4722     		movs	r2, #71
 808 0022 4260     		str	r2, [r0, #4]
 369:Core/Src/main.c ****   htim3.Init.Period = 300;
 809              		.loc 1 369 3 is_stmt 1 view .LVU256
 369:Core/Src/main.c ****   htim3.Init.Period = 300;
 810              		.loc 1 369 26 is_stmt 0 view .LVU257
 811 0024 8360     		str	r3, [r0, #8]
 370:Core/Src/main.c ****   htim3.Init.ClockDivision = TIM_CLOCKDIVISION_DIV1;
 812              		.loc 1 370 3 is_stmt 1 view .LVU258
 370:Core/Src/main.c ****   htim3.Init.ClockDivision = TIM_CLOCKDIVISION_DIV1;
 813              		.loc 1 370 21 is_stmt 0 view .LVU259
 814 0026 4FF49672 		mov	r2, #300
 815 002a C260     		str	r2, [r0, #12]
 371:Core/Src/main.c ****   htim3.Init.AutoReloadPreload = TIM_AUTORELOAD_PRELOAD_DISABLE;
 816              		.loc 1 371 3 is_stmt 1 view .LVU260
 371:Core/Src/main.c ****   htim3.Init.AutoReloadPreload = TIM_AUTORELOAD_PRELOAD_DISABLE;
 817              		.loc 1 371 28 is_stmt 0 view .LVU261
 818 002c 0361     		str	r3, [r0, #16]
 372:Core/Src/main.c ****   if (HAL_TIM_PWM_Init(&htim3) != HAL_OK)
 819              		.loc 1 372 3 is_stmt 1 view .LVU262
 372:Core/Src/main.c ****   if (HAL_TIM_PWM_Init(&htim3) != HAL_OK)
 820              		.loc 1 372 32 is_stmt 0 view .LVU263
 821 002e 8361     		str	r3, [r0, #24]
 373:Core/Src/main.c ****   {
 822              		.loc 1 373 3 is_stmt 1 view .LVU264
 373:Core/Src/main.c ****   {
 823              		.loc 1 373 7 is_stmt 0 view .LVU265
 824 0030 FFF7FEFF 		bl	HAL_TIM_PWM_Init
 825              	.LVL24:
 373:Core/Src/main.c ****   {
 826              		.loc 1 373 6 view .LVU266
 827 0034 C8B9     		cbnz	r0, .L48
 377:Core/Src/main.c ****   sMasterConfig.MasterSlaveMode = TIM_MASTERSLAVEMODE_DISABLE;
 828              		.loc 1 377 3 is_stmt 1 view .LVU267
 377:Core/Src/main.c ****   sMasterConfig.MasterSlaveMode = TIM_MASTERSLAVEMODE_DISABLE;
 829              		.loc 1 377 37 is_stmt 0 view .LVU268
 830 0036 0023     		movs	r3, #0
 831 0038 0793     		str	r3, [sp, #28]
 378:Core/Src/main.c ****   if (HAL_TIMEx_MasterConfigSynchronization(&htim3, &sMasterConfig) != HAL_OK)
 832              		.loc 1 378 3 is_stmt 1 view .LVU269
 378:Core/Src/main.c ****   if (HAL_TIMEx_MasterConfigSynchronization(&htim3, &sMasterConfig) != HAL_OK)
 833              		.loc 1 378 33 is_stmt 0 view .LVU270
 834 003a 0993     		str	r3, [sp, #36]
 379:Core/Src/main.c ****   {
 835              		.loc 1 379 3 is_stmt 1 view .LVU271
 379:Core/Src/main.c ****   {
 836              		.loc 1 379 7 is_stmt 0 view .LVU272
 837 003c 07A9     		add	r1, sp, #28
 838 003e 0E48     		ldr	r0, .L51
 839 0040 FFF7FEFF 		bl	HAL_TIMEx_MasterConfigSynchronization
 840              	.LVL25:
ARM GAS  C:\Users\jisu8\AppData\Local\Temp\ccPyvDcJ.s 			page 33


 379:Core/Src/main.c ****   {
 841              		.loc 1 379 6 view .LVU273
 842 0044 98B9     		cbnz	r0, .L49
 383:Core/Src/main.c ****   sConfigOC.Pulse = 0;
 843              		.loc 1 383 3 is_stmt 1 view .LVU274
 383:Core/Src/main.c ****   sConfigOC.Pulse = 0;
 844              		.loc 1 383 20 is_stmt 0 view .LVU275
 845 0046 6023     		movs	r3, #96
 846 0048 0093     		str	r3, [sp]
 384:Core/Src/main.c ****   sConfigOC.OCPolarity = TIM_OCPOLARITY_HIGH;
 847              		.loc 1 384 3 is_stmt 1 view .LVU276
 384:Core/Src/main.c ****   sConfigOC.OCPolarity = TIM_OCPOLARITY_HIGH;
 848              		.loc 1 384 19 is_stmt 0 view .LVU277
 849 004a 0023     		movs	r3, #0
 850 004c 0193     		str	r3, [sp, #4]
 385:Core/Src/main.c ****   sConfigOC.OCFastMode = TIM_OCFAST_DISABLE;
 851              		.loc 1 385 3 is_stmt 1 view .LVU278
 385:Core/Src/main.c ****   sConfigOC.OCFastMode = TIM_OCFAST_DISABLE;
 852              		.loc 1 385 24 is_stmt 0 view .LVU279
 853 004e 0293     		str	r3, [sp, #8]
 386:Core/Src/main.c ****   if (HAL_TIM_PWM_ConfigChannel(&htim3, &sConfigOC, TIM_CHANNEL_3) != HAL_OK)
 854              		.loc 1 386 3 is_stmt 1 view .LVU280
 386:Core/Src/main.c ****   if (HAL_TIM_PWM_ConfigChannel(&htim3, &sConfigOC, TIM_CHANNEL_3) != HAL_OK)
 855              		.loc 1 386 24 is_stmt 0 view .LVU281
 856 0050 0493     		str	r3, [sp, #16]
 387:Core/Src/main.c ****   {
 857              		.loc 1 387 3 is_stmt 1 view .LVU282
 387:Core/Src/main.c ****   {
 858              		.loc 1 387 7 is_stmt 0 view .LVU283
 859 0052 0822     		movs	r2, #8
 860 0054 6946     		mov	r1, sp
 861 0056 0848     		ldr	r0, .L51
 862 0058 FFF7FEFF 		bl	HAL_TIM_PWM_ConfigChannel
 863              	.LVL26:
 387:Core/Src/main.c ****   {
 864              		.loc 1 387 6 view .LVU284
 865 005c 48B9     		cbnz	r0, .L50
 394:Core/Src/main.c **** 
 866              		.loc 1 394 3 is_stmt 1 view .LVU285
 867 005e 0648     		ldr	r0, .L51
 868 0060 FFF7FEFF 		bl	HAL_TIM_MspPostInit
 869              	.LVL27:
 396:Core/Src/main.c **** 
 870              		.loc 1 396 1 is_stmt 0 view .LVU286
 871 0064 0BB0     		add	sp, sp, #44
 872              	.LCFI16:
 873              		.cfi_remember_state
 874              		.cfi_def_cfa_offset 4
 875              		@ sp needed
 876 0066 5DF804FB 		ldr	pc, [sp], #4
 877              	.L48:
 878              	.LCFI17:
 879              		.cfi_restore_state
 375:Core/Src/main.c ****   }
 880              		.loc 1 375 5 is_stmt 1 view .LVU287
 881 006a FFF7FEFF 		bl	Error_Handler
 882              	.LVL28:
ARM GAS  C:\Users\jisu8\AppData\Local\Temp\ccPyvDcJ.s 			page 34


 883              	.L49:
 381:Core/Src/main.c ****   }
 884              		.loc 1 381 5 view .LVU288
 885 006e FFF7FEFF 		bl	Error_Handler
 886              	.LVL29:
 887              	.L50:
 389:Core/Src/main.c ****   }
 888              		.loc 1 389 5 view .LVU289
 889 0072 FFF7FEFF 		bl	Error_Handler
 890              	.LVL30:
 891              	.L52:
 892 0076 00BF     		.align	2
 893              	.L51:
 894 0078 00000000 		.word	.LANCHOR5
 895 007c 00040040 		.word	1073742848
 896              		.cfi_endproc
 897              	.LFE138:
 899              		.section	.text.MX_RTC_Init,"ax",%progbits
 900              		.align	1
 901              		.syntax unified
 902              		.thumb
 903              		.thumb_func
 905              	MX_RTC_Init:
 906              	.LFB136:
 252:Core/Src/main.c **** 
 907              		.loc 1 252 1 view -0
 908              		.cfi_startproc
 909              		@ args = 0, pretend = 0, frame = 24
 910              		@ frame_needed = 0, uses_anonymous_args = 0
 911 0000 00B5     		push	{lr}
 912              	.LCFI18:
 913              		.cfi_def_cfa_offset 4
 914              		.cfi_offset 14, -4
 915 0002 87B0     		sub	sp, sp, #28
 916              	.LCFI19:
 917              		.cfi_def_cfa_offset 32
 258:Core/Src/main.c ****   RTC_DateTypeDef sDate = {0};
 918              		.loc 1 258 3 view .LVU291
 258:Core/Src/main.c ****   RTC_DateTypeDef sDate = {0};
 919              		.loc 1 258 19 is_stmt 0 view .LVU292
 920 0004 0023     		movs	r3, #0
 921 0006 0193     		str	r3, [sp, #4]
 922 0008 0293     		str	r3, [sp, #8]
 923 000a 0393     		str	r3, [sp, #12]
 924 000c 0493     		str	r3, [sp, #16]
 925 000e 0593     		str	r3, [sp, #20]
 259:Core/Src/main.c **** 
 926              		.loc 1 259 3 is_stmt 1 view .LVU293
 259:Core/Src/main.c **** 
 927              		.loc 1 259 19 is_stmt 0 view .LVU294
 928 0010 0093     		str	r3, [sp]
 267:Core/Src/main.c ****   hrtc.Init.HourFormat = RTC_HOURFORMAT_24;
 929              		.loc 1 267 3 is_stmt 1 view .LVU295
 267:Core/Src/main.c ****   hrtc.Init.HourFormat = RTC_HOURFORMAT_24;
 930              		.loc 1 267 17 is_stmt 0 view .LVU296
 931 0012 1C48     		ldr	r0, .L61
 932 0014 1C4A     		ldr	r2, .L61+4
ARM GAS  C:\Users\jisu8\AppData\Local\Temp\ccPyvDcJ.s 			page 35


 933 0016 0260     		str	r2, [r0]
 268:Core/Src/main.c ****   hrtc.Init.AsynchPrediv = 127;
 934              		.loc 1 268 3 is_stmt 1 view .LVU297
 268:Core/Src/main.c ****   hrtc.Init.AsynchPrediv = 127;
 935              		.loc 1 268 24 is_stmt 0 view .LVU298
 936 0018 4360     		str	r3, [r0, #4]
 269:Core/Src/main.c ****   hrtc.Init.SynchPrediv = 255;
 937              		.loc 1 269 3 is_stmt 1 view .LVU299
 269:Core/Src/main.c ****   hrtc.Init.SynchPrediv = 255;
 938              		.loc 1 269 26 is_stmt 0 view .LVU300
 939 001a 7F22     		movs	r2, #127
 940 001c 8260     		str	r2, [r0, #8]
 270:Core/Src/main.c ****   hrtc.Init.OutPut = RTC_OUTPUT_DISABLE;
 941              		.loc 1 270 3 is_stmt 1 view .LVU301
 270:Core/Src/main.c ****   hrtc.Init.OutPut = RTC_OUTPUT_DISABLE;
 942              		.loc 1 270 25 is_stmt 0 view .LVU302
 943 001e FF22     		movs	r2, #255
 944 0020 C260     		str	r2, [r0, #12]
 271:Core/Src/main.c ****   hrtc.Init.OutPutPolarity = RTC_OUTPUT_POLARITY_HIGH;
 945              		.loc 1 271 3 is_stmt 1 view .LVU303
 271:Core/Src/main.c ****   hrtc.Init.OutPutPolarity = RTC_OUTPUT_POLARITY_HIGH;
 946              		.loc 1 271 20 is_stmt 0 view .LVU304
 947 0022 0361     		str	r3, [r0, #16]
 272:Core/Src/main.c ****   hrtc.Init.OutPutType = RTC_OUTPUT_TYPE_OPENDRAIN;
 948              		.loc 1 272 3 is_stmt 1 view .LVU305
 272:Core/Src/main.c ****   hrtc.Init.OutPutType = RTC_OUTPUT_TYPE_OPENDRAIN;
 949              		.loc 1 272 28 is_stmt 0 view .LVU306
 950 0024 4361     		str	r3, [r0, #20]
 273:Core/Src/main.c ****   if (HAL_RTC_Init(&hrtc) != HAL_OK)
 951              		.loc 1 273 3 is_stmt 1 view .LVU307
 273:Core/Src/main.c ****   if (HAL_RTC_Init(&hrtc) != HAL_OK)
 952              		.loc 1 273 24 is_stmt 0 view .LVU308
 953 0026 8361     		str	r3, [r0, #24]
 274:Core/Src/main.c ****   {
 954              		.loc 1 274 3 is_stmt 1 view .LVU309
 274:Core/Src/main.c ****   {
 955              		.loc 1 274 7 is_stmt 0 view .LVU310
 956 0028 FFF7FEFF 		bl	HAL_RTC_Init
 957              	.LVL31:
 274:Core/Src/main.c ****   {
 958              		.loc 1 274 6 view .LVU311
 959 002c 20BB     		cbnz	r0, .L58
 285:Core/Src/main.c ****   sTime.Minutes = 15;
 960              		.loc 1 285 3 is_stmt 1 view .LVU312
 285:Core/Src/main.c ****   sTime.Minutes = 15;
 961              		.loc 1 285 15 is_stmt 0 view .LVU313
 962 002e 0423     		movs	r3, #4
 963 0030 8DF80430 		strb	r3, [sp, #4]
 286:Core/Src/main.c ****   sTime.Seconds = 55;
 964              		.loc 1 286 3 is_stmt 1 view .LVU314
 286:Core/Src/main.c ****   sTime.Seconds = 55;
 965              		.loc 1 286 17 is_stmt 0 view .LVU315
 966 0034 0F23     		movs	r3, #15
 967 0036 8DF80530 		strb	r3, [sp, #5]
 287:Core/Src/main.c ****   sTime.DayLightSaving = RTC_DAYLIGHTSAVING_NONE;
 968              		.loc 1 287 3 is_stmt 1 view .LVU316
 287:Core/Src/main.c ****   sTime.DayLightSaving = RTC_DAYLIGHTSAVING_NONE;
ARM GAS  C:\Users\jisu8\AppData\Local\Temp\ccPyvDcJ.s 			page 36


 969              		.loc 1 287 17 is_stmt 0 view .LVU317
 970 003a 3723     		movs	r3, #55
 971 003c 8DF80630 		strb	r3, [sp, #6]
 288:Core/Src/main.c ****   sTime.StoreOperation = RTC_STOREOPERATION_RESET;
 972              		.loc 1 288 3 is_stmt 1 view .LVU318
 288:Core/Src/main.c ****   sTime.StoreOperation = RTC_STOREOPERATION_RESET;
 973              		.loc 1 288 24 is_stmt 0 view .LVU319
 974 0040 0023     		movs	r3, #0
 975 0042 0493     		str	r3, [sp, #16]
 289:Core/Src/main.c ****   if (HAL_RTC_SetTime(&hrtc, &sTime, RTC_FORMAT_BCD) != HAL_OK)
 976              		.loc 1 289 3 is_stmt 1 view .LVU320
 289:Core/Src/main.c ****   if (HAL_RTC_SetTime(&hrtc, &sTime, RTC_FORMAT_BCD) != HAL_OK)
 977              		.loc 1 289 24 is_stmt 0 view .LVU321
 978 0044 0593     		str	r3, [sp, #20]
 290:Core/Src/main.c ****   {
 979              		.loc 1 290 3 is_stmt 1 view .LVU322
 290:Core/Src/main.c ****   {
 980              		.loc 1 290 7 is_stmt 0 view .LVU323
 981 0046 0122     		movs	r2, #1
 982 0048 01A9     		add	r1, sp, #4
 983 004a 0E48     		ldr	r0, .L61
 984 004c FFF7FEFF 		bl	HAL_RTC_SetTime
 985              	.LVL32:
 290:Core/Src/main.c ****   {
 986              		.loc 1 290 6 view .LVU324
 987 0050 A0B9     		cbnz	r0, .L59
 294:Core/Src/main.c ****   sDate.Month = RTC_MONTH_JANUARY;
 988              		.loc 1 294 3 is_stmt 1 view .LVU325
 294:Core/Src/main.c ****   sDate.Month = RTC_MONTH_JANUARY;
 989              		.loc 1 294 17 is_stmt 0 view .LVU326
 990 0052 0122     		movs	r2, #1
 991 0054 8DF80020 		strb	r2, [sp]
 295:Core/Src/main.c ****   sDate.Date = 3;
 992              		.loc 1 295 3 is_stmt 1 view .LVU327
 295:Core/Src/main.c ****   sDate.Date = 3;
 993              		.loc 1 295 15 is_stmt 0 view .LVU328
 994 0058 8DF80120 		strb	r2, [sp, #1]
 296:Core/Src/main.c ****   sDate.Year = 2022;
 995              		.loc 1 296 3 is_stmt 1 view .LVU329
 296:Core/Src/main.c ****   sDate.Year = 2022;
 996              		.loc 1 296 14 is_stmt 0 view .LVU330
 997 005c 0323     		movs	r3, #3
 998 005e 8DF80230 		strb	r3, [sp, #2]
 297:Core/Src/main.c **** 
 999              		.loc 1 297 3 is_stmt 1 view .LVU331
 297:Core/Src/main.c **** 
 1000              		.loc 1 297 14 is_stmt 0 view .LVU332
 1001 0062 E623     		movs	r3, #230
 1002 0064 8DF80330 		strb	r3, [sp, #3]
 299:Core/Src/main.c ****   {
 1003              		.loc 1 299 3 is_stmt 1 view .LVU333
 299:Core/Src/main.c ****   {
 1004              		.loc 1 299 7 is_stmt 0 view .LVU334
 1005 0068 6946     		mov	r1, sp
 1006 006a 0648     		ldr	r0, .L61
 1007 006c FFF7FEFF 		bl	HAL_RTC_SetDate
 1008              	.LVL33:
ARM GAS  C:\Users\jisu8\AppData\Local\Temp\ccPyvDcJ.s 			page 37


 299:Core/Src/main.c ****   {
 1009              		.loc 1 299 6 view .LVU335
 1010 0070 30B9     		cbnz	r0, .L60
 307:Core/Src/main.c **** 
 1011              		.loc 1 307 1 view .LVU336
 1012 0072 07B0     		add	sp, sp, #28
 1013              	.LCFI20:
 1014              		.cfi_remember_state
 1015              		.cfi_def_cfa_offset 4
 1016              		@ sp needed
 1017 0074 5DF804FB 		ldr	pc, [sp], #4
 1018              	.L58:
 1019              	.LCFI21:
 1020              		.cfi_restore_state
 276:Core/Src/main.c ****   }
 1021              		.loc 1 276 5 is_stmt 1 view .LVU337
 1022 0078 FFF7FEFF 		bl	Error_Handler
 1023              	.LVL34:
 1024              	.L59:
 292:Core/Src/main.c ****   }
 1025              		.loc 1 292 5 view .LVU338
 1026 007c FFF7FEFF 		bl	Error_Handler
 1027              	.LVL35:
 1028              	.L60:
 301:Core/Src/main.c ****   }
 1029              		.loc 1 301 5 view .LVU339
 1030 0080 FFF7FEFF 		bl	Error_Handler
 1031              	.LVL36:
 1032              	.L62:
 1033              		.align	2
 1034              	.L61:
 1035 0084 00000000 		.word	.LANCHOR6
 1036 0088 00280040 		.word	1073752064
 1037              		.cfi_endproc
 1038              	.LFE136:
 1040              		.section	.text.MX_TIM16_Init,"ax",%progbits
 1041              		.align	1
 1042              		.syntax unified
 1043              		.thumb
 1044              		.thumb_func
 1046              	MX_TIM16_Init:
 1047              	.LFB139:
 404:Core/Src/main.c **** 
 1048              		.loc 1 404 1 view -0
 1049              		.cfi_startproc
 1050              		@ args = 0, pretend = 0, frame = 0
 1051              		@ frame_needed = 0, uses_anonymous_args = 0
 1052 0000 08B5     		push	{r3, lr}
 1053              	.LCFI22:
 1054              		.cfi_def_cfa_offset 8
 1055              		.cfi_offset 3, -8
 1056              		.cfi_offset 14, -4
 413:Core/Src/main.c ****   htim16.Init.Prescaler = 71;
 1057              		.loc 1 413 3 view .LVU341
 413:Core/Src/main.c ****   htim16.Init.Prescaler = 71;
 1058              		.loc 1 413 19 is_stmt 0 view .LVU342
 1059 0002 0948     		ldr	r0, .L67
ARM GAS  C:\Users\jisu8\AppData\Local\Temp\ccPyvDcJ.s 			page 38


 1060 0004 094B     		ldr	r3, .L67+4
 1061 0006 0360     		str	r3, [r0]
 414:Core/Src/main.c ****   htim16.Init.CounterMode = TIM_COUNTERMODE_UP;
 1062              		.loc 1 414 3 is_stmt 1 view .LVU343
 414:Core/Src/main.c ****   htim16.Init.CounterMode = TIM_COUNTERMODE_UP;
 1063              		.loc 1 414 25 is_stmt 0 view .LVU344
 1064 0008 4723     		movs	r3, #71
 1065 000a 4360     		str	r3, [r0, #4]
 415:Core/Src/main.c ****   htim16.Init.Period = 100;
 1066              		.loc 1 415 3 is_stmt 1 view .LVU345
 415:Core/Src/main.c ****   htim16.Init.Period = 100;
 1067              		.loc 1 415 27 is_stmt 0 view .LVU346
 1068 000c 0023     		movs	r3, #0
 1069 000e 8360     		str	r3, [r0, #8]
 416:Core/Src/main.c ****   htim16.Init.ClockDivision = TIM_CLOCKDIVISION_DIV1;
 1070              		.loc 1 416 3 is_stmt 1 view .LVU347
 416:Core/Src/main.c ****   htim16.Init.ClockDivision = TIM_CLOCKDIVISION_DIV1;
 1071              		.loc 1 416 22 is_stmt 0 view .LVU348
 1072 0010 6422     		movs	r2, #100
 1073 0012 C260     		str	r2, [r0, #12]
 417:Core/Src/main.c ****   htim16.Init.RepetitionCounter = 0;
 1074              		.loc 1 417 3 is_stmt 1 view .LVU349
 417:Core/Src/main.c ****   htim16.Init.RepetitionCounter = 0;
 1075              		.loc 1 417 29 is_stmt 0 view .LVU350
 1076 0014 0361     		str	r3, [r0, #16]
 418:Core/Src/main.c ****   htim16.Init.AutoReloadPreload = TIM_AUTORELOAD_PRELOAD_DISABLE;
 1077              		.loc 1 418 3 is_stmt 1 view .LVU351
 418:Core/Src/main.c ****   htim16.Init.AutoReloadPreload = TIM_AUTORELOAD_PRELOAD_DISABLE;
 1078              		.loc 1 418 33 is_stmt 0 view .LVU352
 1079 0016 4361     		str	r3, [r0, #20]
 419:Core/Src/main.c ****   if (HAL_TIM_Base_Init(&htim16) != HAL_OK)
 1080              		.loc 1 419 3 is_stmt 1 view .LVU353
 419:Core/Src/main.c ****   if (HAL_TIM_Base_Init(&htim16) != HAL_OK)
 1081              		.loc 1 419 33 is_stmt 0 view .LVU354
 1082 0018 8361     		str	r3, [r0, #24]
 420:Core/Src/main.c ****   {
 1083              		.loc 1 420 3 is_stmt 1 view .LVU355
 420:Core/Src/main.c ****   {
 1084              		.loc 1 420 7 is_stmt 0 view .LVU356
 1085 001a FFF7FEFF 		bl	HAL_TIM_Base_Init
 1086              	.LVL37:
 420:Core/Src/main.c ****   {
 1087              		.loc 1 420 6 view .LVU357
 1088 001e 00B9     		cbnz	r0, .L66
 428:Core/Src/main.c **** 
 1089              		.loc 1 428 1 view .LVU358
 1090 0020 08BD     		pop	{r3, pc}
 1091              	.L66:
 422:Core/Src/main.c ****   }
 1092              		.loc 1 422 5 is_stmt 1 view .LVU359
 1093 0022 FFF7FEFF 		bl	Error_Handler
 1094              	.LVL38:
 1095              	.L68:
 1096 0026 00BF     		.align	2
 1097              	.L67:
 1098 0028 00000000 		.word	.LANCHOR7
 1099 002c 00440140 		.word	1073824768
ARM GAS  C:\Users\jisu8\AppData\Local\Temp\ccPyvDcJ.s 			page 39


 1100              		.cfi_endproc
 1101              	.LFE139:
 1103              		.section	.text.MX_TIM17_Init,"ax",%progbits
 1104              		.align	1
 1105              		.syntax unified
 1106              		.thumb
 1107              		.thumb_func
 1109              	MX_TIM17_Init:
 1110              	.LFB140:
 436:Core/Src/main.c **** 
 1111              		.loc 1 436 1 view -0
 1112              		.cfi_startproc
 1113              		@ args = 0, pretend = 0, frame = 0
 1114              		@ frame_needed = 0, uses_anonymous_args = 0
 1115 0000 08B5     		push	{r3, lr}
 1116              	.LCFI23:
 1117              		.cfi_def_cfa_offset 8
 1118              		.cfi_offset 3, -8
 1119              		.cfi_offset 14, -4
 445:Core/Src/main.c ****   htim17.Init.Prescaler = 71;
 1120              		.loc 1 445 3 view .LVU361
 445:Core/Src/main.c ****   htim17.Init.Prescaler = 71;
 1121              		.loc 1 445 19 is_stmt 0 view .LVU362
 1122 0002 0948     		ldr	r0, .L73
 1123 0004 094B     		ldr	r3, .L73+4
 1124 0006 0360     		str	r3, [r0]
 446:Core/Src/main.c ****   htim17.Init.CounterMode = TIM_COUNTERMODE_UP;
 1125              		.loc 1 446 3 is_stmt 1 view .LVU363
 446:Core/Src/main.c ****   htim17.Init.CounterMode = TIM_COUNTERMODE_UP;
 1126              		.loc 1 446 25 is_stmt 0 view .LVU364
 1127 0008 4723     		movs	r3, #71
 1128 000a 4360     		str	r3, [r0, #4]
 447:Core/Src/main.c ****   htim17.Init.Period = 10000;
 1129              		.loc 1 447 3 is_stmt 1 view .LVU365
 447:Core/Src/main.c ****   htim17.Init.Period = 10000;
 1130              		.loc 1 447 27 is_stmt 0 view .LVU366
 1131 000c 0023     		movs	r3, #0
 1132 000e 8360     		str	r3, [r0, #8]
 448:Core/Src/main.c ****   htim17.Init.ClockDivision = TIM_CLOCKDIVISION_DIV1;
 1133              		.loc 1 448 3 is_stmt 1 view .LVU367
 448:Core/Src/main.c ****   htim17.Init.ClockDivision = TIM_CLOCKDIVISION_DIV1;
 1134              		.loc 1 448 22 is_stmt 0 view .LVU368
 1135 0010 42F21072 		movw	r2, #10000
 1136 0014 C260     		str	r2, [r0, #12]
 449:Core/Src/main.c ****   htim17.Init.RepetitionCounter = 0;
 1137              		.loc 1 449 3 is_stmt 1 view .LVU369
 449:Core/Src/main.c ****   htim17.Init.RepetitionCounter = 0;
 1138              		.loc 1 449 29 is_stmt 0 view .LVU370
 1139 0016 0361     		str	r3, [r0, #16]
 450:Core/Src/main.c ****   htim17.Init.AutoReloadPreload = TIM_AUTORELOAD_PRELOAD_DISABLE;
 1140              		.loc 1 450 3 is_stmt 1 view .LVU371
 450:Core/Src/main.c ****   htim17.Init.AutoReloadPreload = TIM_AUTORELOAD_PRELOAD_DISABLE;
 1141              		.loc 1 450 33 is_stmt 0 view .LVU372
 1142 0018 4361     		str	r3, [r0, #20]
 451:Core/Src/main.c ****   if (HAL_TIM_Base_Init(&htim17) != HAL_OK)
 1143              		.loc 1 451 3 is_stmt 1 view .LVU373
 451:Core/Src/main.c ****   if (HAL_TIM_Base_Init(&htim17) != HAL_OK)
ARM GAS  C:\Users\jisu8\AppData\Local\Temp\ccPyvDcJ.s 			page 40


 1144              		.loc 1 451 33 is_stmt 0 view .LVU374
 1145 001a 8361     		str	r3, [r0, #24]
 452:Core/Src/main.c ****   {
 1146              		.loc 1 452 3 is_stmt 1 view .LVU375
 452:Core/Src/main.c ****   {
 1147              		.loc 1 452 7 is_stmt 0 view .LVU376
 1148 001c FFF7FEFF 		bl	HAL_TIM_Base_Init
 1149              	.LVL39:
 452:Core/Src/main.c ****   {
 1150              		.loc 1 452 6 view .LVU377
 1151 0020 00B9     		cbnz	r0, .L72
 460:Core/Src/main.c **** 
 1152              		.loc 1 460 1 view .LVU378
 1153 0022 08BD     		pop	{r3, pc}
 1154              	.L72:
 454:Core/Src/main.c ****   }
 1155              		.loc 1 454 5 is_stmt 1 view .LVU379
 1156 0024 FFF7FEFF 		bl	Error_Handler
 1157              	.LVL40:
 1158              	.L74:
 1159              		.align	2
 1160              	.L73:
 1161 0028 00000000 		.word	.LANCHOR8
 1162 002c 00480140 		.word	1073825792
 1163              		.cfi_endproc
 1164              	.LFE140:
 1166              		.section	.text.SystemClock_Config,"ax",%progbits
 1167              		.align	1
 1168              		.global	SystemClock_Config
 1169              		.syntax unified
 1170              		.thumb
 1171              		.thumb_func
 1173              	SystemClock_Config:
 1174              	.LFB134:
 142:Core/Src/main.c ****   RCC_OscInitTypeDef RCC_OscInitStruct = {0};
 1175              		.loc 1 142 1 view -0
 1176              		.cfi_startproc
 1177              		@ args = 0, pretend = 0, frame = 120
 1178              		@ frame_needed = 0, uses_anonymous_args = 0
 1179 0000 00B5     		push	{lr}
 1180              	.LCFI24:
 1181              		.cfi_def_cfa_offset 4
 1182              		.cfi_offset 14, -4
 1183 0002 9FB0     		sub	sp, sp, #124
 1184              	.LCFI25:
 1185              		.cfi_def_cfa_offset 128
 143:Core/Src/main.c ****   RCC_ClkInitTypeDef RCC_ClkInitStruct = {0};
 1186              		.loc 1 143 3 view .LVU381
 143:Core/Src/main.c ****   RCC_ClkInitTypeDef RCC_ClkInitStruct = {0};
 1187              		.loc 1 143 22 is_stmt 0 view .LVU382
 1188 0004 2822     		movs	r2, #40
 1189 0006 0021     		movs	r1, #0
 1190 0008 14A8     		add	r0, sp, #80
 1191 000a FFF7FEFF 		bl	memset
 1192              	.LVL41:
 144:Core/Src/main.c ****   RCC_PeriphCLKInitTypeDef PeriphClkInit = {0};
 1193              		.loc 1 144 3 is_stmt 1 view .LVU383
ARM GAS  C:\Users\jisu8\AppData\Local\Temp\ccPyvDcJ.s 			page 41


 144:Core/Src/main.c ****   RCC_PeriphCLKInitTypeDef PeriphClkInit = {0};
 1194              		.loc 1 144 22 is_stmt 0 view .LVU384
 1195 000e 0021     		movs	r1, #0
 1196 0010 0F91     		str	r1, [sp, #60]
 1197 0012 1091     		str	r1, [sp, #64]
 1198 0014 1191     		str	r1, [sp, #68]
 1199 0016 1291     		str	r1, [sp, #72]
 1200 0018 1391     		str	r1, [sp, #76]
 145:Core/Src/main.c **** 
 1201              		.loc 1 145 3 is_stmt 1 view .LVU385
 145:Core/Src/main.c **** 
 1202              		.loc 1 145 28 is_stmt 0 view .LVU386
 1203 001a 3C22     		movs	r2, #60
 1204 001c 6846     		mov	r0, sp
 1205 001e FFF7FEFF 		bl	memset
 1206              	.LVL42:
 150:Core/Src/main.c ****   RCC_OscInitStruct.HSEState = RCC_HSE_ON;
 1207              		.loc 1 150 3 is_stmt 1 view .LVU387
 150:Core/Src/main.c ****   RCC_OscInitStruct.HSEState = RCC_HSE_ON;
 1208              		.loc 1 150 36 is_stmt 0 view .LVU388
 1209 0022 0122     		movs	r2, #1
 1210 0024 1492     		str	r2, [sp, #80]
 151:Core/Src/main.c ****   RCC_OscInitStruct.HSEPredivValue = RCC_HSE_PREDIV_DIV1;
 1211              		.loc 1 151 3 is_stmt 1 view .LVU389
 151:Core/Src/main.c ****   RCC_OscInitStruct.HSEPredivValue = RCC_HSE_PREDIV_DIV1;
 1212              		.loc 1 151 30 is_stmt 0 view .LVU390
 1213 0026 4FF48033 		mov	r3, #65536
 1214 002a 1593     		str	r3, [sp, #84]
 152:Core/Src/main.c ****   RCC_OscInitStruct.HSIState = RCC_HSI_ON;
 1215              		.loc 1 152 3 is_stmt 1 view .LVU391
 153:Core/Src/main.c ****   RCC_OscInitStruct.PLL.PLLState = RCC_PLL_ON;
 1216              		.loc 1 153 3 view .LVU392
 153:Core/Src/main.c ****   RCC_OscInitStruct.PLL.PLLState = RCC_PLL_ON;
 1217              		.loc 1 153 30 is_stmt 0 view .LVU393
 1218 002c 1892     		str	r2, [sp, #96]
 154:Core/Src/main.c ****   RCC_OscInitStruct.PLL.PLLSource = RCC_PLLSOURCE_HSE;
 1219              		.loc 1 154 3 is_stmt 1 view .LVU394
 154:Core/Src/main.c ****   RCC_OscInitStruct.PLL.PLLSource = RCC_PLLSOURCE_HSE;
 1220              		.loc 1 154 34 is_stmt 0 view .LVU395
 1221 002e 0222     		movs	r2, #2
 1222 0030 1B92     		str	r2, [sp, #108]
 155:Core/Src/main.c ****   RCC_OscInitStruct.PLL.PLLMUL = RCC_PLL_MUL9;
 1223              		.loc 1 155 3 is_stmt 1 view .LVU396
 155:Core/Src/main.c ****   RCC_OscInitStruct.PLL.PLLMUL = RCC_PLL_MUL9;
 1224              		.loc 1 155 35 is_stmt 0 view .LVU397
 1225 0032 1C93     		str	r3, [sp, #112]
 156:Core/Src/main.c ****   if (HAL_RCC_OscConfig(&RCC_OscInitStruct) != HAL_OK)
 1226              		.loc 1 156 3 is_stmt 1 view .LVU398
 156:Core/Src/main.c ****   if (HAL_RCC_OscConfig(&RCC_OscInitStruct) != HAL_OK)
 1227              		.loc 1 156 32 is_stmt 0 view .LVU399
 1228 0034 4FF4E013 		mov	r3, #1835008
 1229 0038 1D93     		str	r3, [sp, #116]
 157:Core/Src/main.c ****   {
 1230              		.loc 1 157 3 is_stmt 1 view .LVU400
 157:Core/Src/main.c ****   {
 1231              		.loc 1 157 7 is_stmt 0 view .LVU401
 1232 003a 14A8     		add	r0, sp, #80
ARM GAS  C:\Users\jisu8\AppData\Local\Temp\ccPyvDcJ.s 			page 42


 1233 003c FFF7FEFF 		bl	HAL_RCC_OscConfig
 1234              	.LVL43:
 157:Core/Src/main.c ****   {
 1235              		.loc 1 157 6 view .LVU402
 1236 0040 00BB     		cbnz	r0, .L80
 164:Core/Src/main.c ****                               |RCC_CLOCKTYPE_PCLK1|RCC_CLOCKTYPE_PCLK2;
 1237              		.loc 1 164 3 is_stmt 1 view .LVU403
 164:Core/Src/main.c ****                               |RCC_CLOCKTYPE_PCLK1|RCC_CLOCKTYPE_PCLK2;
 1238              		.loc 1 164 31 is_stmt 0 view .LVU404
 1239 0042 0F23     		movs	r3, #15
 1240 0044 0F93     		str	r3, [sp, #60]
 166:Core/Src/main.c ****   RCC_ClkInitStruct.AHBCLKDivider = RCC_SYSCLK_DIV1;
 1241              		.loc 1 166 3 is_stmt 1 view .LVU405
 166:Core/Src/main.c ****   RCC_ClkInitStruct.AHBCLKDivider = RCC_SYSCLK_DIV1;
 1242              		.loc 1 166 34 is_stmt 0 view .LVU406
 1243 0046 0221     		movs	r1, #2
 1244 0048 1091     		str	r1, [sp, #64]
 167:Core/Src/main.c ****   RCC_ClkInitStruct.APB1CLKDivider = RCC_HCLK_DIV2;
 1245              		.loc 1 167 3 is_stmt 1 view .LVU407
 167:Core/Src/main.c ****   RCC_ClkInitStruct.APB1CLKDivider = RCC_HCLK_DIV2;
 1246              		.loc 1 167 35 is_stmt 0 view .LVU408
 1247 004a 0023     		movs	r3, #0
 1248 004c 1193     		str	r3, [sp, #68]
 168:Core/Src/main.c ****   RCC_ClkInitStruct.APB2CLKDivider = RCC_HCLK_DIV1;
 1249              		.loc 1 168 3 is_stmt 1 view .LVU409
 168:Core/Src/main.c ****   RCC_ClkInitStruct.APB2CLKDivider = RCC_HCLK_DIV1;
 1250              		.loc 1 168 36 is_stmt 0 view .LVU410
 1251 004e 4FF48062 		mov	r2, #1024
 1252 0052 1292     		str	r2, [sp, #72]
 169:Core/Src/main.c **** 
 1253              		.loc 1 169 3 is_stmt 1 view .LVU411
 169:Core/Src/main.c **** 
 1254              		.loc 1 169 36 is_stmt 0 view .LVU412
 1255 0054 1393     		str	r3, [sp, #76]
 171:Core/Src/main.c ****   {
 1256              		.loc 1 171 3 is_stmt 1 view .LVU413
 171:Core/Src/main.c ****   {
 1257              		.loc 1 171 7 is_stmt 0 view .LVU414
 1258 0056 0FA8     		add	r0, sp, #60
 1259 0058 FFF7FEFF 		bl	HAL_RCC_ClockConfig
 1260              	.LVL44:
 171:Core/Src/main.c ****   {
 1261              		.loc 1 171 6 view .LVU415
 1262 005c A0B9     		cbnz	r0, .L81
 175:Core/Src/main.c ****                               |RCC_PERIPHCLK_USART3|RCC_PERIPHCLK_RTC
 1263              		.loc 1 175 3 is_stmt 1 view .LVU416
 175:Core/Src/main.c ****                               |RCC_PERIPHCLK_USART3|RCC_PERIPHCLK_RTC
 1264              		.loc 1 175 38 is_stmt 0 view .LVU417
 1265 005e 0C4B     		ldr	r3, .L83
 1266 0060 0093     		str	r3, [sp]
 178:Core/Src/main.c ****   PeriphClkInit.Usart2ClockSelection = RCC_USART2CLKSOURCE_PCLK1;
 1267              		.loc 1 178 3 is_stmt 1 view .LVU418
 178:Core/Src/main.c ****   PeriphClkInit.Usart2ClockSelection = RCC_USART2CLKSOURCE_PCLK1;
 1268              		.loc 1 178 38 is_stmt 0 view .LVU419
 1269 0062 0023     		movs	r3, #0
 1270 0064 0293     		str	r3, [sp, #8]
 179:Core/Src/main.c ****   PeriphClkInit.Usart3ClockSelection = RCC_USART3CLKSOURCE_PCLK1;
ARM GAS  C:\Users\jisu8\AppData\Local\Temp\ccPyvDcJ.s 			page 43


 1271              		.loc 1 179 3 is_stmt 1 view .LVU420
 179:Core/Src/main.c ****   PeriphClkInit.Usart3ClockSelection = RCC_USART3CLKSOURCE_PCLK1;
 1272              		.loc 1 179 38 is_stmt 0 view .LVU421
 1273 0066 0393     		str	r3, [sp, #12]
 180:Core/Src/main.c ****   PeriphClkInit.Adc12ClockSelection = RCC_ADC12PLLCLK_DIV1;
 1274              		.loc 1 180 3 is_stmt 1 view .LVU422
 180:Core/Src/main.c ****   PeriphClkInit.Adc12ClockSelection = RCC_ADC12PLLCLK_DIV1;
 1275              		.loc 1 180 38 is_stmt 0 view .LVU423
 1276 0068 0493     		str	r3, [sp, #16]
 181:Core/Src/main.c ****   PeriphClkInit.RTCClockSelection = RCC_RTCCLKSOURCE_HSE_DIV32;
 1277              		.loc 1 181 3 is_stmt 1 view .LVU424
 181:Core/Src/main.c ****   PeriphClkInit.RTCClockSelection = RCC_RTCCLKSOURCE_HSE_DIV32;
 1278              		.loc 1 181 37 is_stmt 0 view .LVU425
 1279 006a 4FF48073 		mov	r3, #256
 1280 006e 0993     		str	r3, [sp, #36]
 182:Core/Src/main.c ****   if (HAL_RCCEx_PeriphCLKConfig(&PeriphClkInit) != HAL_OK)
 1281              		.loc 1 182 3 is_stmt 1 view .LVU426
 182:Core/Src/main.c ****   if (HAL_RCCEx_PeriphCLKConfig(&PeriphClkInit) != HAL_OK)
 1282              		.loc 1 182 35 is_stmt 0 view .LVU427
 1283 0070 4FF44073 		mov	r3, #768
 1284 0074 0193     		str	r3, [sp, #4]
 183:Core/Src/main.c ****   {
 1285              		.loc 1 183 3 is_stmt 1 view .LVU428
 183:Core/Src/main.c ****   {
 1286              		.loc 1 183 7 is_stmt 0 view .LVU429
 1287 0076 6846     		mov	r0, sp
 1288 0078 FFF7FEFF 		bl	HAL_RCCEx_PeriphCLKConfig
 1289              	.LVL45:
 183:Core/Src/main.c ****   {
 1290              		.loc 1 183 6 view .LVU430
 1291 007c 30B9     		cbnz	r0, .L82
 187:Core/Src/main.c **** 
 1292              		.loc 1 187 1 view .LVU431
 1293 007e 1FB0     		add	sp, sp, #124
 1294              	.LCFI26:
 1295              		.cfi_remember_state
 1296              		.cfi_def_cfa_offset 4
 1297              		@ sp needed
 1298 0080 5DF804FB 		ldr	pc, [sp], #4
 1299              	.L80:
 1300              	.LCFI27:
 1301              		.cfi_restore_state
 159:Core/Src/main.c ****   }
 1302              		.loc 1 159 5 is_stmt 1 view .LVU432
 1303 0084 FFF7FEFF 		bl	Error_Handler
 1304              	.LVL46:
 1305              	.L81:
 173:Core/Src/main.c ****   }
 1306              		.loc 1 173 5 view .LVU433
 1307 0088 FFF7FEFF 		bl	Error_Handler
 1308              	.LVL47:
 1309              	.L82:
 185:Core/Src/main.c ****   }
 1310              		.loc 1 185 5 view .LVU434
 1311 008c FFF7FEFF 		bl	Error_Handler
 1312              	.LVL48:
 1313              	.L84:
ARM GAS  C:\Users\jisu8\AppData\Local\Temp\ccPyvDcJ.s 			page 44


 1314              		.align	2
 1315              	.L83:
 1316 0090 87000100 		.word	65671
 1317              		.cfi_endproc
 1318              	.LFE134:
 1320              		.section	.text.main,"ax",%progbits
 1321              		.align	1
 1322              		.global	main
 1323              		.syntax unified
 1324              		.thumb
 1325              		.thumb_func
 1327              	main:
 1328              	.LFB133:
  88:Core/Src/main.c ****   /* USER CODE BEGIN 1 */
 1329              		.loc 1 88 1 view -0
 1330              		.cfi_startproc
 1331              		@ Volatile: function does not return.
 1332              		@ args = 0, pretend = 0, frame = 0
 1333              		@ frame_needed = 0, uses_anonymous_args = 0
 1334 0000 08B5     		push	{r3, lr}
 1335              	.LCFI28:
 1336              		.cfi_def_cfa_offset 8
 1337              		.cfi_offset 3, -8
 1338              		.cfi_offset 14, -4
  96:Core/Src/main.c **** 
 1339              		.loc 1 96 3 view .LVU436
 1340 0002 FFF7FEFF 		bl	HAL_Init
 1341              	.LVL49:
 103:Core/Src/main.c **** 
 1342              		.loc 1 103 3 view .LVU437
 1343 0006 FFF7FEFF 		bl	SystemClock_Config
 1344              	.LVL50:
 110:Core/Src/main.c ****   MX_DMA_Init();
 1345              		.loc 1 110 3 view .LVU438
 1346 000a FFF7FEFF 		bl	MX_GPIO_Init
 1347              	.LVL51:
 111:Core/Src/main.c ****   MX_ADC2_Init();
 1348              		.loc 1 111 3 view .LVU439
 1349 000e FFF7FEFF 		bl	MX_DMA_Init
 1350              	.LVL52:
 112:Core/Src/main.c ****   MX_SPI2_Init();
 1351              		.loc 1 112 3 view .LVU440
 1352 0012 FFF7FEFF 		bl	MX_ADC2_Init
 1353              	.LVL53:
 113:Core/Src/main.c ****   MX_USART1_UART_Init();
 1354              		.loc 1 113 3 view .LVU441
 1355 0016 FFF7FEFF 		bl	MX_SPI2_Init
 1356              	.LVL54:
 114:Core/Src/main.c ****   MX_USART2_UART_Init();
 1357              		.loc 1 114 3 view .LVU442
 1358 001a FFF7FEFF 		bl	MX_USART1_UART_Init
 1359              	.LVL55:
 115:Core/Src/main.c ****   MX_USART3_UART_Init();
 1360              		.loc 1 115 3 view .LVU443
 1361 001e FFF7FEFF 		bl	MX_USART2_UART_Init
 1362              	.LVL56:
 116:Core/Src/main.c ****   MX_TIM3_Init();
ARM GAS  C:\Users\jisu8\AppData\Local\Temp\ccPyvDcJ.s 			page 45


 1363              		.loc 1 116 3 view .LVU444
 1364 0022 FFF7FEFF 		bl	MX_USART3_UART_Init
 1365              	.LVL57:
 117:Core/Src/main.c ****   MX_RTC_Init();
 1366              		.loc 1 117 3 view .LVU445
 1367 0026 FFF7FEFF 		bl	MX_TIM3_Init
 1368              	.LVL58:
 118:Core/Src/main.c ****   MX_TIM16_Init();
 1369              		.loc 1 118 3 view .LVU446
 1370 002a FFF7FEFF 		bl	MX_RTC_Init
 1371              	.LVL59:
 119:Core/Src/main.c ****   MX_TIM17_Init();
 1372              		.loc 1 119 3 view .LVU447
 1373 002e FFF7FEFF 		bl	MX_TIM16_Init
 1374              	.LVL60:
 120:Core/Src/main.c ****   /* USER CODE BEGIN 2 */
 1375              		.loc 1 120 3 view .LVU448
 1376 0032 FFF7FEFF 		bl	MX_TIM17_Init
 1377              	.LVL61:
 122:Core/Src/main.c ****   HAL_TIM_Base_Start_IT(&htim17);
 1378              		.loc 1 122 3 view .LVU449
 1379 0036 0548     		ldr	r0, .L88
 1380 0038 FFF7FEFF 		bl	HAL_TIM_Base_Start_IT
 1381              	.LVL62:
 123:Core/Src/main.c ****   Os_Init_Task();
 1382              		.loc 1 123 3 view .LVU450
 1383 003c 0448     		ldr	r0, .L88+4
 1384 003e FFF7FEFF 		bl	HAL_TIM_Base_Start_IT
 1385              	.LVL63:
 124:Core/Src/main.c ****   /* USER CODE END 2 */
 1386              		.loc 1 124 3 view .LVU451
 1387 0042 FFF7FEFF 		bl	Os_Init_Task
 1388              	.LVL64:
 1389              	.L86:
 128:Core/Src/main.c ****   {
 1390              		.loc 1 128 3 discriminator 1 view .LVU452
 131:Core/Src/main.c ****     /* USER CODE BEGIN 3 */
 1391              		.loc 1 131 5 discriminator 1 view .LVU453
 1392 0046 FFF7FEFF 		bl	Os_Handler
 1393              	.LVL65:
 128:Core/Src/main.c ****   {
 1394              		.loc 1 128 9 discriminator 1 view .LVU454
 1395 004a FCE7     		b	.L86
 1396              	.L89:
 1397              		.align	2
 1398              	.L88:
 1399 004c 00000000 		.word	.LANCHOR7
 1400 0050 00000000 		.word	.LANCHOR8
 1401              		.cfi_endproc
 1402              	.LFE133:
 1404              		.global	hdma_usart3_rx
 1405              		.global	hdma_usart2_rx
 1406              		.global	hdma_usart1_rx
 1407              		.global	huart3
 1408              		.global	huart2
 1409              		.global	huart1
 1410              		.global	htim17
ARM GAS  C:\Users\jisu8\AppData\Local\Temp\ccPyvDcJ.s 			page 46


 1411              		.global	htim16
 1412              		.global	htim3
 1413              		.global	hspi2
 1414              		.global	hrtc
 1415              		.global	hdma_adc2
 1416              		.global	hadc2
 1417              		.section	.bss.hadc2,"aw",%nobits
 1418              		.align	2
 1419              		.set	.LANCHOR0,. + 0
 1422              	hadc2:
 1423 0000 00000000 		.space	80
 1423      00000000 
 1423      00000000 
 1423      00000000 
 1423      00000000 
 1424              		.section	.bss.hdma_adc2,"aw",%nobits
 1425              		.align	2
 1428              	hdma_adc2:
 1429 0000 00000000 		.space	68
 1429      00000000 
 1429      00000000 
 1429      00000000 
 1429      00000000 
 1430              		.section	.bss.hdma_usart1_rx,"aw",%nobits
 1431              		.align	2
 1434              	hdma_usart1_rx:
 1435 0000 00000000 		.space	68
 1435      00000000 
 1435      00000000 
 1435      00000000 
 1435      00000000 
 1436              		.section	.bss.hdma_usart2_rx,"aw",%nobits
 1437              		.align	2
 1440              	hdma_usart2_rx:
 1441 0000 00000000 		.space	68
 1441      00000000 
 1441      00000000 
 1441      00000000 
 1441      00000000 
 1442              		.section	.bss.hdma_usart3_rx,"aw",%nobits
 1443              		.align	2
 1446              	hdma_usart3_rx:
 1447 0000 00000000 		.space	68
 1447      00000000 
 1447      00000000 
 1447      00000000 
 1447      00000000 
 1448              		.section	.bss.hrtc,"aw",%nobits
 1449              		.align	2
 1450              		.set	.LANCHOR6,. + 0
 1453              	hrtc:
 1454 0000 00000000 		.space	32
 1454      00000000 
 1454      00000000 
 1454      00000000 
 1454      00000000 
 1455              		.section	.bss.hspi2,"aw",%nobits
ARM GAS  C:\Users\jisu8\AppData\Local\Temp\ccPyvDcJ.s 			page 47


 1456              		.align	2
 1457              		.set	.LANCHOR1,. + 0
 1460              	hspi2:
 1461 0000 00000000 		.space	100
 1461      00000000 
 1461      00000000 
 1461      00000000 
 1461      00000000 
 1462              		.section	.bss.htim16,"aw",%nobits
 1463              		.align	2
 1464              		.set	.LANCHOR7,. + 0
 1467              	htim16:
 1468 0000 00000000 		.space	76
 1468      00000000 
 1468      00000000 
 1468      00000000 
 1468      00000000 
 1469              		.section	.bss.htim17,"aw",%nobits
 1470              		.align	2
 1471              		.set	.LANCHOR8,. + 0
 1474              	htim17:
 1475 0000 00000000 		.space	76
 1475      00000000 
 1475      00000000 
 1475      00000000 
 1475      00000000 
 1476              		.section	.bss.htim3,"aw",%nobits
 1477              		.align	2
 1478              		.set	.LANCHOR5,. + 0
 1481              	htim3:
 1482 0000 00000000 		.space	76
 1482      00000000 
 1482      00000000 
 1482      00000000 
 1482      00000000 
 1483              		.section	.bss.huart1,"aw",%nobits
 1484              		.align	2
 1485              		.set	.LANCHOR2,. + 0
 1488              	huart1:
 1489 0000 00000000 		.space	132
 1489      00000000 
 1489      00000000 
 1489      00000000 
 1489      00000000 
 1490              		.section	.bss.huart2,"aw",%nobits
 1491              		.align	2
 1492              		.set	.LANCHOR3,. + 0
 1495              	huart2:
 1496 0000 00000000 		.space	132
 1496      00000000 
 1496      00000000 
 1496      00000000 
 1496      00000000 
 1497              		.section	.bss.huart3,"aw",%nobits
 1498              		.align	2
 1499              		.set	.LANCHOR4,. + 0
 1502              	huart3:
ARM GAS  C:\Users\jisu8\AppData\Local\Temp\ccPyvDcJ.s 			page 48


 1503 0000 00000000 		.space	132
 1503      00000000 
 1503      00000000 
 1503      00000000 
 1503      00000000 
 1504              		.text
 1505              	.Letext0:
 1506              		.file 3 "d:\\3.tools\\arm_gcc_toolchain\\arm-none-eabi\\include\\machine\\_default_types.h"
 1507              		.file 4 "d:\\3.tools\\arm_gcc_toolchain\\arm-none-eabi\\include\\sys\\_stdint.h"
 1508              		.file 5 "Drivers/CMSIS/Device/ST/STM32F3xx/Include/stm32f303xc.h"
 1509              		.file 6 "Drivers/CMSIS/Device/ST/STM32F3xx/Include/stm32f3xx.h"
 1510              		.file 7 "Drivers/STM32F3xx_HAL_Driver/Inc/stm32f3xx_hal_def.h"
 1511              		.file 8 "Drivers/STM32F3xx_HAL_Driver/Inc/stm32f3xx_hal_rcc.h"
 1512              		.file 9 "Drivers/STM32F3xx_HAL_Driver/Inc/stm32f3xx_hal_rcc_ex.h"
 1513              		.file 10 "Drivers/STM32F3xx_HAL_Driver/Inc/stm32f3xx_hal_gpio.h"
 1514              		.file 11 "Drivers/STM32F3xx_HAL_Driver/Inc/stm32f3xx_hal_dma.h"
 1515              		.file 12 "Drivers/STM32F3xx_HAL_Driver/Inc/stm32f3xx_hal_adc_ex.h"
 1516              		.file 13 "Drivers/STM32F3xx_HAL_Driver/Inc/stm32f3xx_hal_adc.h"
 1517              		.file 14 "Drivers/STM32F3xx_HAL_Driver/Inc/stm32f3xx_hal_rtc.h"
 1518              		.file 15 "Drivers/STM32F3xx_HAL_Driver/Inc/stm32f3xx_hal_spi.h"
 1519              		.file 16 "Drivers/STM32F3xx_HAL_Driver/Inc/stm32f3xx_hal_tim.h"
 1520              		.file 17 "Drivers/STM32F3xx_HAL_Driver/Inc/stm32f3xx_hal_uart.h"
 1521              		.file 18 "Core/Inc/main.h"
 1522              		.file 19 "Drivers/STM32F3xx_HAL_Driver/Inc/stm32f3xx_hal_cortex.h"
 1523              		.file 20 "Drivers/STM32F3xx_HAL_Driver/Inc/stm32f3xx_hal_tim_ex.h"
 1524              		.file 21 "Drivers/STM32F3xx_HAL_Driver/Inc/stm32f3xx_hal.h"
 1525              		.file 22 "Core/Inc/os.h"
 1526              		.file 23 "<built-in>"
ARM GAS  C:\Users\jisu8\AppData\Local\Temp\ccPyvDcJ.s 			page 49

