ARM GAS  C:\Users\jisu8\AppData\Local\Temp\ccbbtk2q.s 			page 1


   1              		.cpu cortex-m4
   2              		.arch armv7e-m
   3              		.fpu fpv4-sp-d16
   4              		.eabi_attribute 27, 1
   5              		.eabi_attribute 28, 1
   6              		.eabi_attribute 20, 1
   7              		.eabi_attribute 21, 1
   8              		.eabi_attribute 23, 3
   9              		.eabi_attribute 24, 1
  10              		.eabi_attribute 25, 1
  11              		.eabi_attribute 26, 1
  12              		.eabi_attribute 30, 1
  13              		.eabi_attribute 34, 1
  14              		.eabi_attribute 18, 4
  15              		.file	"main.c"
  16              		.text
  17              	.Ltext0:
  18              		.cfi_sections	.debug_frame
  19              		.section	.text.MX_GPIO_Init,"ax",%progbits
  20              		.align	1
  21              		.syntax unified
  22              		.thumb
  23              		.thumb_func
  25              	MX_GPIO_Init:
  26              	.LFB145:
  27              		.file 1 "Core/Src/main.c"
   1:Core/Src/main.c **** /* USER CODE BEGIN Header */
   2:Core/Src/main.c **** /**
   3:Core/Src/main.c ****   ******************************************************************************
   4:Core/Src/main.c ****   * @file           : main.c
   5:Core/Src/main.c ****   * @brief          : Main program body
   6:Core/Src/main.c ****   ******************************************************************************
   7:Core/Src/main.c ****   * @attention
   8:Core/Src/main.c ****   *
   9:Core/Src/main.c ****   * Copyright (c) 2022 STMicroelectronics.
  10:Core/Src/main.c ****   * All rights reserved.
  11:Core/Src/main.c ****   *
  12:Core/Src/main.c ****   * This software is licensed under terms that can be found in the LICENSE file
  13:Core/Src/main.c ****   * in the root directory of this software component.
  14:Core/Src/main.c ****   * If no LICENSE file comes with this software, it is provided AS-IS.
  15:Core/Src/main.c ****   *
  16:Core/Src/main.c ****   ******************************************************************************
  17:Core/Src/main.c ****   */
  18:Core/Src/main.c **** /* USER CODE END Header */
  19:Core/Src/main.c **** /* Includes ------------------------------------------------------------------*/
  20:Core/Src/main.c **** #include "main.h"
  21:Core/Src/main.c **** #include "os.h"
  22:Core/Src/main.c **** 
  23:Core/Src/main.c **** /* Private includes ----------------------------------------------------------*/
  24:Core/Src/main.c **** /* USER CODE BEGIN Includes */
  25:Core/Src/main.c **** 
  26:Core/Src/main.c **** /* USER CODE END Includes */
  27:Core/Src/main.c **** 
  28:Core/Src/main.c **** /* Private typedef -----------------------------------------------------------*/
  29:Core/Src/main.c **** /* USER CODE BEGIN PTD */
  30:Core/Src/main.c **** 
  31:Core/Src/main.c **** /* USER CODE END PTD */
ARM GAS  C:\Users\jisu8\AppData\Local\Temp\ccbbtk2q.s 			page 2


  32:Core/Src/main.c **** 
  33:Core/Src/main.c **** /* Private define ------------------------------------------------------------*/
  34:Core/Src/main.c **** /* USER CODE BEGIN PD */
  35:Core/Src/main.c **** /* USER CODE END PD */
  36:Core/Src/main.c **** 
  37:Core/Src/main.c **** /* Private macro -------------------------------------------------------------*/
  38:Core/Src/main.c **** /* USER CODE BEGIN PM */
  39:Core/Src/main.c **** 
  40:Core/Src/main.c **** /* USER CODE END PM */
  41:Core/Src/main.c **** 
  42:Core/Src/main.c **** /* Private variables ---------------------------------------------------------*/
  43:Core/Src/main.c **** ADC_HandleTypeDef hadc2;
  44:Core/Src/main.c **** DMA_HandleTypeDef hdma_adc2;
  45:Core/Src/main.c **** RTC_HandleTypeDef hrtc;
  46:Core/Src/main.c **** SPI_HandleTypeDef hspi2;
  47:Core/Src/main.c **** TIM_HandleTypeDef htim3;
  48:Core/Src/main.c **** TIM_HandleTypeDef htim16;
  49:Core/Src/main.c **** TIM_HandleTypeDef htim17;
  50:Core/Src/main.c **** UART_HandleTypeDef huart1;
  51:Core/Src/main.c **** UART_HandleTypeDef huart2;
  52:Core/Src/main.c **** UART_HandleTypeDef huart3;
  53:Core/Src/main.c **** DMA_HandleTypeDef hdma_usart1_rx;
  54:Core/Src/main.c **** DMA_HandleTypeDef hdma_usart2_rx;
  55:Core/Src/main.c **** DMA_HandleTypeDef hdma_usart3_rx;
  56:Core/Src/main.c **** 
  57:Core/Src/main.c **** /* USER CODE BEGIN PV */
  58:Core/Src/main.c **** 
  59:Core/Src/main.c **** /* USER CODE END PV */
  60:Core/Src/main.c **** 
  61:Core/Src/main.c **** /* Private function prototypes -----------------------------------------------*/
  62:Core/Src/main.c **** void SystemClock_Config(void);
  63:Core/Src/main.c **** static void MX_GPIO_Init(void);
  64:Core/Src/main.c **** static void MX_DMA_Init(void);
  65:Core/Src/main.c **** static void MX_ADC2_Init(void);
  66:Core/Src/main.c **** static void MX_SPI2_Init(void);
  67:Core/Src/main.c **** static void MX_USART1_UART_Init(void);
  68:Core/Src/main.c **** static void MX_USART2_UART_Init(void);
  69:Core/Src/main.c **** static void MX_USART3_UART_Init(void);
  70:Core/Src/main.c **** static void MX_TIM3_Init(void);
  71:Core/Src/main.c **** static void MX_RTC_Init(void);
  72:Core/Src/main.c **** static void MX_TIM16_Init(void);
  73:Core/Src/main.c **** static void MX_TIM17_Init(void);
  74:Core/Src/main.c **** /* USER CODE BEGIN PFP */
  75:Core/Src/main.c **** 
  76:Core/Src/main.c **** /* USER CODE END PFP */
  77:Core/Src/main.c **** 
  78:Core/Src/main.c **** /* Private user code ---------------------------------------------------------*/
  79:Core/Src/main.c **** /* USER CODE BEGIN 0 */
  80:Core/Src/main.c **** 
  81:Core/Src/main.c **** /* USER CODE END 0 */
  82:Core/Src/main.c **** 
  83:Core/Src/main.c **** /**
  84:Core/Src/main.c ****   * @brief  The application entry point.
  85:Core/Src/main.c ****   * @retval int
  86:Core/Src/main.c ****   */
  87:Core/Src/main.c **** int main(void)
  88:Core/Src/main.c **** {
ARM GAS  C:\Users\jisu8\AppData\Local\Temp\ccbbtk2q.s 			page 3


  89:Core/Src/main.c ****   /* USER CODE BEGIN 1 */
  90:Core/Src/main.c **** 
  91:Core/Src/main.c ****   /* USER CODE END 1 */
  92:Core/Src/main.c **** 
  93:Core/Src/main.c ****   /* MCU Configuration--------------------------------------------------------*/
  94:Core/Src/main.c **** 
  95:Core/Src/main.c ****   /* Reset of all peripherals, Initializes the Flash interface and the Systick. */
  96:Core/Src/main.c ****   HAL_Init();
  97:Core/Src/main.c **** 
  98:Core/Src/main.c ****   /* USER CODE BEGIN Init */
  99:Core/Src/main.c **** 
 100:Core/Src/main.c ****   /* USER CODE END Init */
 101:Core/Src/main.c **** 
 102:Core/Src/main.c ****   /* Configure the system clock */
 103:Core/Src/main.c ****   SystemClock_Config();
 104:Core/Src/main.c **** 
 105:Core/Src/main.c ****   /* USER CODE BEGIN SysInit */
 106:Core/Src/main.c **** 
 107:Core/Src/main.c ****   /* USER CODE END SysInit */
 108:Core/Src/main.c **** 
 109:Core/Src/main.c ****   /* Initialize all configured peripherals */
 110:Core/Src/main.c ****   MX_GPIO_Init();
 111:Core/Src/main.c ****   MX_DMA_Init();
 112:Core/Src/main.c ****   MX_ADC2_Init();
 113:Core/Src/main.c ****   MX_SPI2_Init();
 114:Core/Src/main.c ****   MX_USART1_UART_Init();
 115:Core/Src/main.c ****   MX_USART2_UART_Init();
 116:Core/Src/main.c ****   MX_USART3_UART_Init();
 117:Core/Src/main.c ****   MX_TIM3_Init();
 118:Core/Src/main.c ****   MX_RTC_Init();
 119:Core/Src/main.c ****   MX_TIM16_Init();
 120:Core/Src/main.c ****   MX_TIM17_Init();
 121:Core/Src/main.c ****   /* USER CODE BEGIN 2 */
 122:Core/Src/main.c ****   HAL_TIM_Base_Start_IT(&htim16);
 123:Core/Src/main.c ****   HAL_TIM_Base_Start_IT(&htim17);
 124:Core/Src/main.c ****   Os_Init_Task();
 125:Core/Src/main.c ****   /* USER CODE END 2 */
 126:Core/Src/main.c ****   /* Infinite loop */
 127:Core/Src/main.c ****   /* USER CODE BEGIN WHILE */
 128:Core/Src/main.c ****   while (1)
 129:Core/Src/main.c ****   {
 130:Core/Src/main.c ****     /* USER CODE END WHILE */
 131:Core/Src/main.c ****     Os_Handler();
 132:Core/Src/main.c ****     /* USER CODE BEGIN 3 */
 133:Core/Src/main.c ****   }
 134:Core/Src/main.c ****   /* USER CODE END 3 */
 135:Core/Src/main.c **** }
 136:Core/Src/main.c **** 
 137:Core/Src/main.c **** /**
 138:Core/Src/main.c ****   * @brief System Clock Configuration
 139:Core/Src/main.c ****   * @retval None
 140:Core/Src/main.c ****   */
 141:Core/Src/main.c **** void SystemClock_Config(void)
 142:Core/Src/main.c **** {
 143:Core/Src/main.c ****   RCC_OscInitTypeDef RCC_OscInitStruct = {0};
 144:Core/Src/main.c ****   RCC_ClkInitTypeDef RCC_ClkInitStruct = {0};
 145:Core/Src/main.c ****   RCC_PeriphCLKInitTypeDef PeriphClkInit = {0};
ARM GAS  C:\Users\jisu8\AppData\Local\Temp\ccbbtk2q.s 			page 4


 146:Core/Src/main.c **** 
 147:Core/Src/main.c ****   /** Initializes the RCC Oscillators according to the specified parameters
 148:Core/Src/main.c ****   * in the RCC_OscInitTypeDef structure.
 149:Core/Src/main.c ****   */
 150:Core/Src/main.c ****   RCC_OscInitStruct.OscillatorType = RCC_OSCILLATORTYPE_HSE;
 151:Core/Src/main.c ****   RCC_OscInitStruct.HSEState = RCC_HSE_ON;
 152:Core/Src/main.c ****   RCC_OscInitStruct.HSEPredivValue = RCC_HSE_PREDIV_DIV1;
 153:Core/Src/main.c ****   RCC_OscInitStruct.HSIState = RCC_HSI_ON;
 154:Core/Src/main.c ****   RCC_OscInitStruct.PLL.PLLState = RCC_PLL_ON;
 155:Core/Src/main.c ****   RCC_OscInitStruct.PLL.PLLSource = RCC_PLLSOURCE_HSE;
 156:Core/Src/main.c ****   RCC_OscInitStruct.PLL.PLLMUL = RCC_PLL_MUL9;
 157:Core/Src/main.c ****   if (HAL_RCC_OscConfig(&RCC_OscInitStruct) != HAL_OK)
 158:Core/Src/main.c ****   {
 159:Core/Src/main.c ****     Error_Handler();
 160:Core/Src/main.c ****   }
 161:Core/Src/main.c **** 
 162:Core/Src/main.c ****   /** Initializes the CPU, AHB and APB buses clocks
 163:Core/Src/main.c ****   */
 164:Core/Src/main.c ****   RCC_ClkInitStruct.ClockType = RCC_CLOCKTYPE_HCLK|RCC_CLOCKTYPE_SYSCLK
 165:Core/Src/main.c ****                               |RCC_CLOCKTYPE_PCLK1|RCC_CLOCKTYPE_PCLK2;
 166:Core/Src/main.c ****   RCC_ClkInitStruct.SYSCLKSource = RCC_SYSCLKSOURCE_PLLCLK;
 167:Core/Src/main.c ****   RCC_ClkInitStruct.AHBCLKDivider = RCC_SYSCLK_DIV1;
 168:Core/Src/main.c ****   RCC_ClkInitStruct.APB1CLKDivider = RCC_HCLK_DIV2;
 169:Core/Src/main.c ****   RCC_ClkInitStruct.APB2CLKDivider = RCC_HCLK_DIV1;
 170:Core/Src/main.c **** 
 171:Core/Src/main.c ****   if (HAL_RCC_ClockConfig(&RCC_ClkInitStruct, FLASH_LATENCY_2) != HAL_OK)
 172:Core/Src/main.c ****   {
 173:Core/Src/main.c ****     Error_Handler();
 174:Core/Src/main.c ****   }
 175:Core/Src/main.c ****   PeriphClkInit.PeriphClockSelection = RCC_PERIPHCLK_USART1|RCC_PERIPHCLK_USART2
 176:Core/Src/main.c ****                               |RCC_PERIPHCLK_USART3|RCC_PERIPHCLK_RTC
 177:Core/Src/main.c ****                               |RCC_PERIPHCLK_ADC12;
 178:Core/Src/main.c ****   PeriphClkInit.Usart1ClockSelection = RCC_USART1CLKSOURCE_PCLK2;
 179:Core/Src/main.c ****   PeriphClkInit.Usart2ClockSelection = RCC_USART2CLKSOURCE_PCLK1;
 180:Core/Src/main.c ****   PeriphClkInit.Usart3ClockSelection = RCC_USART3CLKSOURCE_PCLK1;
 181:Core/Src/main.c ****   PeriphClkInit.Adc12ClockSelection = RCC_ADC12PLLCLK_DIV1;
 182:Core/Src/main.c ****   PeriphClkInit.RTCClockSelection = RCC_RTCCLKSOURCE_HSE_DIV32;
 183:Core/Src/main.c ****   if (HAL_RCCEx_PeriphCLKConfig(&PeriphClkInit) != HAL_OK)
 184:Core/Src/main.c ****   {
 185:Core/Src/main.c ****     Error_Handler();
 186:Core/Src/main.c ****   }
 187:Core/Src/main.c **** }
 188:Core/Src/main.c **** 
 189:Core/Src/main.c **** /**
 190:Core/Src/main.c ****   * @brief ADC2 Initialization Function
 191:Core/Src/main.c ****   * @param None
 192:Core/Src/main.c ****   * @retval None
 193:Core/Src/main.c ****   */
 194:Core/Src/main.c **** static void MX_ADC2_Init(void)
 195:Core/Src/main.c **** {
 196:Core/Src/main.c **** 
 197:Core/Src/main.c ****   /* USER CODE BEGIN ADC2_Init 0 */
 198:Core/Src/main.c **** 
 199:Core/Src/main.c ****   /* USER CODE END ADC2_Init 0 */
 200:Core/Src/main.c **** 
 201:Core/Src/main.c ****   ADC_ChannelConfTypeDef sConfig = {0};
 202:Core/Src/main.c **** 
ARM GAS  C:\Users\jisu8\AppData\Local\Temp\ccbbtk2q.s 			page 5


 203:Core/Src/main.c ****   /* USER CODE BEGIN ADC2_Init 1 */
 204:Core/Src/main.c **** 
 205:Core/Src/main.c ****   /* USER CODE END ADC2_Init 1 */
 206:Core/Src/main.c **** 
 207:Core/Src/main.c ****   /** Common config
 208:Core/Src/main.c ****   */
 209:Core/Src/main.c ****   hadc2.Instance = ADC2;
 210:Core/Src/main.c ****   hadc2.Init.ClockPrescaler = ADC_CLOCK_ASYNC_DIV1;
 211:Core/Src/main.c ****   hadc2.Init.Resolution = ADC_RESOLUTION_12B;
 212:Core/Src/main.c ****   hadc2.Init.ScanConvMode = ADC_SCAN_DISABLE;
 213:Core/Src/main.c ****   hadc2.Init.ContinuousConvMode = ENABLE;
 214:Core/Src/main.c ****   hadc2.Init.DiscontinuousConvMode = DISABLE;
 215:Core/Src/main.c ****   hadc2.Init.ExternalTrigConvEdge = ADC_EXTERNALTRIGCONVEDGE_NONE;
 216:Core/Src/main.c ****   hadc2.Init.ExternalTrigConv = ADC_SOFTWARE_START;
 217:Core/Src/main.c ****   hadc2.Init.DataAlign = ADC_DATAALIGN_RIGHT;
 218:Core/Src/main.c ****   hadc2.Init.NbrOfConversion = 1;
 219:Core/Src/main.c ****   hadc2.Init.DMAContinuousRequests = DISABLE;
 220:Core/Src/main.c ****   hadc2.Init.EOCSelection = ADC_EOC_SINGLE_CONV;
 221:Core/Src/main.c ****   hadc2.Init.LowPowerAutoWait = DISABLE;
 222:Core/Src/main.c ****   hadc2.Init.Overrun = ADC_OVR_DATA_OVERWRITTEN;
 223:Core/Src/main.c ****   if (HAL_ADC_Init(&hadc2) != HAL_OK)
 224:Core/Src/main.c ****   {
 225:Core/Src/main.c ****     Error_Handler();
 226:Core/Src/main.c ****   }
 227:Core/Src/main.c **** 
 228:Core/Src/main.c ****   /** Configure Regular Channel
 229:Core/Src/main.c ****   */
 230:Core/Src/main.c ****   sConfig.Channel = ADC_CHANNEL_3;
 231:Core/Src/main.c ****   sConfig.Rank = ADC_REGULAR_RANK_1;
 232:Core/Src/main.c ****   sConfig.SingleDiff = ADC_SINGLE_ENDED;
 233:Core/Src/main.c ****   sConfig.SamplingTime = ADC_SAMPLETIME_19CYCLES_5;
 234:Core/Src/main.c ****   sConfig.OffsetNumber = ADC_OFFSET_NONE;
 235:Core/Src/main.c ****   sConfig.Offset = 0;
 236:Core/Src/main.c ****   if (HAL_ADC_ConfigChannel(&hadc2, &sConfig) != HAL_OK)
 237:Core/Src/main.c ****   {
 238:Core/Src/main.c ****     Error_Handler();
 239:Core/Src/main.c ****   }
 240:Core/Src/main.c ****   /* USER CODE BEGIN ADC2_Init 2 */
 241:Core/Src/main.c **** 
 242:Core/Src/main.c ****   /* USER CODE END ADC2_Init 2 */
 243:Core/Src/main.c **** 
 244:Core/Src/main.c **** }
 245:Core/Src/main.c **** 
 246:Core/Src/main.c **** /**
 247:Core/Src/main.c ****   * @brief RTC Initialization Function
 248:Core/Src/main.c ****   * @param None
 249:Core/Src/main.c ****   * @retval None
 250:Core/Src/main.c ****   */
 251:Core/Src/main.c **** static void MX_RTC_Init(void)
 252:Core/Src/main.c **** {
 253:Core/Src/main.c **** 
 254:Core/Src/main.c ****   /* USER CODE BEGIN RTC_Init 0 */
 255:Core/Src/main.c **** 
 256:Core/Src/main.c ****   /* USER CODE END RTC_Init 0 */
 257:Core/Src/main.c **** 
 258:Core/Src/main.c ****   RTC_TimeTypeDef sTime = {0};
 259:Core/Src/main.c ****   RTC_DateTypeDef sDate = {0};
ARM GAS  C:\Users\jisu8\AppData\Local\Temp\ccbbtk2q.s 			page 6


 260:Core/Src/main.c **** 
 261:Core/Src/main.c ****   /* USER CODE BEGIN RTC_Init 1 */
 262:Core/Src/main.c **** 
 263:Core/Src/main.c ****   /* USER CODE END RTC_Init 1 */
 264:Core/Src/main.c **** 
 265:Core/Src/main.c ****   /** Initialize RTC Only
 266:Core/Src/main.c ****   */
 267:Core/Src/main.c ****   hrtc.Instance = RTC;
 268:Core/Src/main.c ****   hrtc.Init.HourFormat = RTC_HOURFORMAT_24;
 269:Core/Src/main.c ****   hrtc.Init.AsynchPrediv = 127;
 270:Core/Src/main.c ****   hrtc.Init.SynchPrediv = 255;
 271:Core/Src/main.c ****   hrtc.Init.OutPut = RTC_OUTPUT_DISABLE;
 272:Core/Src/main.c ****   hrtc.Init.OutPutPolarity = RTC_OUTPUT_POLARITY_HIGH;
 273:Core/Src/main.c ****   hrtc.Init.OutPutType = RTC_OUTPUT_TYPE_OPENDRAIN;
 274:Core/Src/main.c ****   if (HAL_RTC_Init(&hrtc) != HAL_OK)
 275:Core/Src/main.c ****   {
 276:Core/Src/main.c ****     Error_Handler();
 277:Core/Src/main.c ****   }
 278:Core/Src/main.c **** 
 279:Core/Src/main.c ****   /* USER CODE BEGIN Check_RTC_BKUP */
 280:Core/Src/main.c **** 
 281:Core/Src/main.c ****   /* USER CODE END Check_RTC_BKUP */
 282:Core/Src/main.c **** 
 283:Core/Src/main.c ****   /** Initialize RTC and set the Time and Date
 284:Core/Src/main.c ****   */
 285:Core/Src/main.c ****   sTime.Hours = 4;
 286:Core/Src/main.c ****   sTime.Minutes = 15;
 287:Core/Src/main.c ****   sTime.Seconds = 55;
 288:Core/Src/main.c ****   sTime.DayLightSaving = RTC_DAYLIGHTSAVING_NONE;
 289:Core/Src/main.c ****   sTime.StoreOperation = RTC_STOREOPERATION_RESET;
 290:Core/Src/main.c ****   if (HAL_RTC_SetTime(&hrtc, &sTime, RTC_FORMAT_BCD) != HAL_OK)
 291:Core/Src/main.c ****   {
 292:Core/Src/main.c ****     Error_Handler();
 293:Core/Src/main.c ****   }
 294:Core/Src/main.c ****   sDate.WeekDay = RTC_WEEKDAY_MONDAY;
 295:Core/Src/main.c ****   sDate.Month = RTC_MONTH_JANUARY;
 296:Core/Src/main.c ****   sDate.Date = 3;
 297:Core/Src/main.c ****   sDate.Year = 2022;
 298:Core/Src/main.c **** 
 299:Core/Src/main.c ****   if (HAL_RTC_SetDate(&hrtc, &sDate, RTC_FORMAT_BCD) != HAL_OK)
 300:Core/Src/main.c ****   {
 301:Core/Src/main.c ****     Error_Handler();
 302:Core/Src/main.c ****   }
 303:Core/Src/main.c ****   /* USER CODE BEGIN RTC_Init 2 */
 304:Core/Src/main.c **** 
 305:Core/Src/main.c ****   /* USER CODE END RTC_Init 2 */
 306:Core/Src/main.c **** 
 307:Core/Src/main.c **** }
 308:Core/Src/main.c **** 
 309:Core/Src/main.c **** /**
 310:Core/Src/main.c ****   * @brief SPI2 Initialization Function
 311:Core/Src/main.c ****   * @param None
 312:Core/Src/main.c ****   * @retval None
 313:Core/Src/main.c ****   */
 314:Core/Src/main.c **** static void MX_SPI2_Init(void)
 315:Core/Src/main.c **** {
 316:Core/Src/main.c **** 
ARM GAS  C:\Users\jisu8\AppData\Local\Temp\ccbbtk2q.s 			page 7


 317:Core/Src/main.c ****   /* USER CODE BEGIN SPI2_Init 0 */
 318:Core/Src/main.c **** 
 319:Core/Src/main.c ****   /* USER CODE END SPI2_Init 0 */
 320:Core/Src/main.c **** 
 321:Core/Src/main.c ****   /* USER CODE BEGIN SPI2_Init 1 */
 322:Core/Src/main.c **** 
 323:Core/Src/main.c ****   /* USER CODE END SPI2_Init 1 */
 324:Core/Src/main.c ****   /* SPI2 parameter configuration*/
 325:Core/Src/main.c ****   hspi2.Instance = SPI2;
 326:Core/Src/main.c ****   hspi2.Init.Mode = SPI_MODE_MASTER;
 327:Core/Src/main.c ****   hspi2.Init.Direction = SPI_DIRECTION_2LINES;
 328:Core/Src/main.c ****   hspi2.Init.DataSize = SPI_DATASIZE_8BIT;
 329:Core/Src/main.c ****   hspi2.Init.CLKPolarity = SPI_POLARITY_LOW;
 330:Core/Src/main.c ****   hspi2.Init.CLKPhase = SPI_PHASE_1EDGE;
 331:Core/Src/main.c ****   hspi2.Init.NSS = SPI_NSS_SOFT;
 332:Core/Src/main.c ****   hspi2.Init.BaudRatePrescaler = SPI_BAUDRATEPRESCALER_2;
 333:Core/Src/main.c ****   hspi2.Init.FirstBit = SPI_FIRSTBIT_MSB;
 334:Core/Src/main.c ****   hspi2.Init.TIMode = SPI_TIMODE_DISABLE;
 335:Core/Src/main.c ****   hspi2.Init.CRCCalculation = SPI_CRCCALCULATION_DISABLE;
 336:Core/Src/main.c ****   hspi2.Init.CRCPolynomial = 7;
 337:Core/Src/main.c ****   hspi2.Init.CRCLength = SPI_CRC_LENGTH_DATASIZE;
 338:Core/Src/main.c ****   hspi2.Init.NSSPMode = SPI_NSS_PULSE_ENABLE;
 339:Core/Src/main.c ****   if (HAL_SPI_Init(&hspi2) != HAL_OK)
 340:Core/Src/main.c ****   {
 341:Core/Src/main.c ****     Error_Handler();
 342:Core/Src/main.c ****   }
 343:Core/Src/main.c ****   /* USER CODE BEGIN SPI2_Init 2 */
 344:Core/Src/main.c **** 
 345:Core/Src/main.c ****   /* USER CODE END SPI2_Init 2 */
 346:Core/Src/main.c **** 
 347:Core/Src/main.c **** }
 348:Core/Src/main.c **** 
 349:Core/Src/main.c **** /**
 350:Core/Src/main.c ****   * @brief TIM3 Initialization Function
 351:Core/Src/main.c ****   * @param None
 352:Core/Src/main.c ****   * @retval None
 353:Core/Src/main.c ****   */
 354:Core/Src/main.c **** static void MX_TIM3_Init(void)
 355:Core/Src/main.c **** {
 356:Core/Src/main.c **** 
 357:Core/Src/main.c ****   /* USER CODE BEGIN TIM3_Init 0 */
 358:Core/Src/main.c **** 
 359:Core/Src/main.c ****   /* USER CODE END TIM3_Init 0 */
 360:Core/Src/main.c **** 
 361:Core/Src/main.c ****   TIM_MasterConfigTypeDef sMasterConfig = {0};
 362:Core/Src/main.c ****   TIM_OC_InitTypeDef sConfigOC = {0};
 363:Core/Src/main.c **** 
 364:Core/Src/main.c ****   /* USER CODE BEGIN TIM3_Init 1 */
 365:Core/Src/main.c **** 
 366:Core/Src/main.c ****   /* USER CODE END TIM3_Init 1 */
 367:Core/Src/main.c ****   htim3.Instance = TIM3;
 368:Core/Src/main.c ****   htim3.Init.Prescaler = 71;
 369:Core/Src/main.c ****   htim3.Init.CounterMode = TIM_COUNTERMODE_UP;
 370:Core/Src/main.c ****   htim3.Init.Period = 300;
 371:Core/Src/main.c ****   htim3.Init.ClockDivision = TIM_CLOCKDIVISION_DIV1;
 372:Core/Src/main.c ****   htim3.Init.AutoReloadPreload = TIM_AUTORELOAD_PRELOAD_DISABLE;
 373:Core/Src/main.c ****   if (HAL_TIM_PWM_Init(&htim3) != HAL_OK)
ARM GAS  C:\Users\jisu8\AppData\Local\Temp\ccbbtk2q.s 			page 8


 374:Core/Src/main.c ****   {
 375:Core/Src/main.c ****     Error_Handler();
 376:Core/Src/main.c ****   }
 377:Core/Src/main.c ****   sMasterConfig.MasterOutputTrigger = TIM_TRGO_RESET;
 378:Core/Src/main.c ****   sMasterConfig.MasterSlaveMode = TIM_MASTERSLAVEMODE_DISABLE;
 379:Core/Src/main.c ****   if (HAL_TIMEx_MasterConfigSynchronization(&htim3, &sMasterConfig) != HAL_OK)
 380:Core/Src/main.c ****   {
 381:Core/Src/main.c ****     Error_Handler();
 382:Core/Src/main.c ****   }
 383:Core/Src/main.c ****   sConfigOC.OCMode = TIM_OCMODE_PWM1;
 384:Core/Src/main.c ****   sConfigOC.Pulse = 0;
 385:Core/Src/main.c ****   sConfigOC.OCPolarity = TIM_OCPOLARITY_HIGH;
 386:Core/Src/main.c ****   sConfigOC.OCFastMode = TIM_OCFAST_DISABLE;
 387:Core/Src/main.c ****   if (HAL_TIM_PWM_ConfigChannel(&htim3, &sConfigOC, TIM_CHANNEL_3) != HAL_OK)
 388:Core/Src/main.c ****   {
 389:Core/Src/main.c ****     Error_Handler();
 390:Core/Src/main.c ****   }
 391:Core/Src/main.c ****   /* USER CODE BEGIN TIM3_Init 2 */
 392:Core/Src/main.c **** 
 393:Core/Src/main.c ****   /* USER CODE END TIM3_Init 2 */
 394:Core/Src/main.c ****   HAL_TIM_MspPostInit(&htim3);
 395:Core/Src/main.c **** 
 396:Core/Src/main.c **** }
 397:Core/Src/main.c **** 
 398:Core/Src/main.c **** /**
 399:Core/Src/main.c ****   * @brief TIM16 Initialization Function
 400:Core/Src/main.c ****   * @param None
 401:Core/Src/main.c ****   * @retval None
 402:Core/Src/main.c ****   */
 403:Core/Src/main.c **** static void MX_TIM16_Init(void)
 404:Core/Src/main.c **** {
 405:Core/Src/main.c **** 
 406:Core/Src/main.c ****   /* USER CODE BEGIN TIM16_Init 0 */
 407:Core/Src/main.c **** 
 408:Core/Src/main.c ****   /* USER CODE END TIM16_Init 0 */
 409:Core/Src/main.c **** 
 410:Core/Src/main.c ****   /* USER CODE BEGIN TIM16_Init 1 */
 411:Core/Src/main.c **** 
 412:Core/Src/main.c ****   /* USER CODE END TIM16_Init 1 */
 413:Core/Src/main.c ****   htim16.Instance = TIM16;
 414:Core/Src/main.c ****   htim16.Init.Prescaler = 71;
 415:Core/Src/main.c ****   htim16.Init.CounterMode = TIM_COUNTERMODE_UP;
 416:Core/Src/main.c ****   htim16.Init.Period = 100;
 417:Core/Src/main.c ****   htim16.Init.ClockDivision = TIM_CLOCKDIVISION_DIV1;
 418:Core/Src/main.c ****   htim16.Init.RepetitionCounter = 0;
 419:Core/Src/main.c ****   htim16.Init.AutoReloadPreload = TIM_AUTORELOAD_PRELOAD_DISABLE;
 420:Core/Src/main.c ****   if (HAL_TIM_Base_Init(&htim16) != HAL_OK)
 421:Core/Src/main.c ****   {
 422:Core/Src/main.c ****     Error_Handler();
 423:Core/Src/main.c ****   }
 424:Core/Src/main.c ****   /* USER CODE BEGIN TIM16_Init 2 */
 425:Core/Src/main.c **** 
 426:Core/Src/main.c ****   /* USER CODE END TIM16_Init 2 */
 427:Core/Src/main.c **** 
 428:Core/Src/main.c **** }
 429:Core/Src/main.c **** 
 430:Core/Src/main.c **** /**
ARM GAS  C:\Users\jisu8\AppData\Local\Temp\ccbbtk2q.s 			page 9


 431:Core/Src/main.c ****   * @brief TIM17 Initialization Function
 432:Core/Src/main.c ****   * @param None
 433:Core/Src/main.c ****   * @retval None
 434:Core/Src/main.c ****   */
 435:Core/Src/main.c **** static void MX_TIM17_Init(void)
 436:Core/Src/main.c **** {
 437:Core/Src/main.c **** 
 438:Core/Src/main.c ****   /* USER CODE BEGIN TIM17_Init 0 */
 439:Core/Src/main.c **** 
 440:Core/Src/main.c ****   /* USER CODE END TIM17_Init 0 */
 441:Core/Src/main.c **** 
 442:Core/Src/main.c ****   /* USER CODE BEGIN TIM17_Init 1 */
 443:Core/Src/main.c **** 
 444:Core/Src/main.c ****   /* USER CODE END TIM17_Init 1 */
 445:Core/Src/main.c ****   htim17.Instance = TIM17;
 446:Core/Src/main.c ****   htim17.Init.Prescaler = 71;
 447:Core/Src/main.c ****   htim17.Init.CounterMode = TIM_COUNTERMODE_UP;
 448:Core/Src/main.c ****   htim17.Init.Period = 10000;
 449:Core/Src/main.c ****   htim17.Init.ClockDivision = TIM_CLOCKDIVISION_DIV1;
 450:Core/Src/main.c ****   htim17.Init.RepetitionCounter = 0;
 451:Core/Src/main.c ****   htim17.Init.AutoReloadPreload = TIM_AUTORELOAD_PRELOAD_DISABLE;
 452:Core/Src/main.c ****   if (HAL_TIM_Base_Init(&htim17) != HAL_OK)
 453:Core/Src/main.c ****   {
 454:Core/Src/main.c ****     Error_Handler();
 455:Core/Src/main.c ****   }
 456:Core/Src/main.c ****   /* USER CODE BEGIN TIM17_Init 2 */
 457:Core/Src/main.c **** 
 458:Core/Src/main.c ****   /* USER CODE END TIM17_Init 2 */
 459:Core/Src/main.c **** 
 460:Core/Src/main.c **** }
 461:Core/Src/main.c **** 
 462:Core/Src/main.c **** /**
 463:Core/Src/main.c ****   * @brief USART1 Initialization Function
 464:Core/Src/main.c ****   * @param None
 465:Core/Src/main.c ****   * @retval None
 466:Core/Src/main.c ****   */
 467:Core/Src/main.c **** static void MX_USART1_UART_Init(void)
 468:Core/Src/main.c **** {
 469:Core/Src/main.c **** 
 470:Core/Src/main.c ****   /* USER CODE BEGIN USART1_Init 0 */
 471:Core/Src/main.c **** 
 472:Core/Src/main.c ****   /* USER CODE END USART1_Init 0 */
 473:Core/Src/main.c **** 
 474:Core/Src/main.c ****   /* USER CODE BEGIN USART1_Init 1 */
 475:Core/Src/main.c **** 
 476:Core/Src/main.c ****   /* USER CODE END USART1_Init 1 */
 477:Core/Src/main.c ****   huart1.Instance = USART1;
 478:Core/Src/main.c ****   huart1.Init.BaudRate = 115200;
 479:Core/Src/main.c ****   huart1.Init.WordLength = UART_WORDLENGTH_8B;
 480:Core/Src/main.c ****   huart1.Init.StopBits = UART_STOPBITS_1;
 481:Core/Src/main.c ****   huart1.Init.Parity = UART_PARITY_NONE;
 482:Core/Src/main.c ****   huart1.Init.Mode = UART_MODE_TX_RX;
 483:Core/Src/main.c ****   huart1.Init.HwFlowCtl = UART_HWCONTROL_NONE;
 484:Core/Src/main.c ****   huart1.Init.OverSampling = UART_OVERSAMPLING_16;
 485:Core/Src/main.c ****   huart1.Init.OneBitSampling = UART_ONE_BIT_SAMPLE_DISABLE;
 486:Core/Src/main.c ****   huart1.AdvancedInit.AdvFeatureInit = UART_ADVFEATURE_NO_INIT;
 487:Core/Src/main.c ****   if (HAL_UART_Init(&huart1) != HAL_OK)
ARM GAS  C:\Users\jisu8\AppData\Local\Temp\ccbbtk2q.s 			page 10


 488:Core/Src/main.c ****   {
 489:Core/Src/main.c ****     Error_Handler();
 490:Core/Src/main.c ****   }
 491:Core/Src/main.c ****   /* USER CODE BEGIN USART1_Init 2 */
 492:Core/Src/main.c **** 
 493:Core/Src/main.c ****   /* USER CODE END USART1_Init 2 */
 494:Core/Src/main.c **** 
 495:Core/Src/main.c **** }
 496:Core/Src/main.c **** 
 497:Core/Src/main.c **** /**
 498:Core/Src/main.c ****   * @brief USART2 Initialization Function
 499:Core/Src/main.c ****   * @param None
 500:Core/Src/main.c ****   * @retval None
 501:Core/Src/main.c ****   */
 502:Core/Src/main.c **** static void MX_USART2_UART_Init(void)
 503:Core/Src/main.c **** {
 504:Core/Src/main.c **** 
 505:Core/Src/main.c ****   /* USER CODE BEGIN USART2_Init 0 */
 506:Core/Src/main.c **** 
 507:Core/Src/main.c ****   /* USER CODE END USART2_Init 0 */
 508:Core/Src/main.c **** 
 509:Core/Src/main.c ****   /* USER CODE BEGIN USART2_Init 1 */
 510:Core/Src/main.c **** 
 511:Core/Src/main.c ****   /* USER CODE END USART2_Init 1 */
 512:Core/Src/main.c ****   huart2.Instance = USART2;
 513:Core/Src/main.c ****   huart2.Init.BaudRate = 115200;
 514:Core/Src/main.c ****   huart2.Init.WordLength = UART_WORDLENGTH_8B;
 515:Core/Src/main.c ****   huart2.Init.StopBits = UART_STOPBITS_1;
 516:Core/Src/main.c ****   huart2.Init.Parity = UART_PARITY_NONE;
 517:Core/Src/main.c ****   huart2.Init.Mode = UART_MODE_TX_RX;
 518:Core/Src/main.c ****   huart2.Init.HwFlowCtl = UART_HWCONTROL_NONE;
 519:Core/Src/main.c ****   huart2.Init.OverSampling = UART_OVERSAMPLING_16;
 520:Core/Src/main.c ****   huart2.Init.OneBitSampling = UART_ONE_BIT_SAMPLE_DISABLE;
 521:Core/Src/main.c ****   huart2.AdvancedInit.AdvFeatureInit = UART_ADVFEATURE_NO_INIT;
 522:Core/Src/main.c ****   if (HAL_UART_Init(&huart2) != HAL_OK)
 523:Core/Src/main.c ****   {
 524:Core/Src/main.c ****     Error_Handler();
 525:Core/Src/main.c ****   }
 526:Core/Src/main.c ****   /* USER CODE BEGIN USART2_Init 2 */
 527:Core/Src/main.c **** 
 528:Core/Src/main.c ****   /* USER CODE END USART2_Init 2 */
 529:Core/Src/main.c **** 
 530:Core/Src/main.c **** }
 531:Core/Src/main.c **** 
 532:Core/Src/main.c **** /**
 533:Core/Src/main.c ****   * @brief USART3 Initialization Function
 534:Core/Src/main.c ****   * @param None
 535:Core/Src/main.c ****   * @retval None
 536:Core/Src/main.c ****   */
 537:Core/Src/main.c **** static void MX_USART3_UART_Init(void)
 538:Core/Src/main.c **** {
 539:Core/Src/main.c **** 
 540:Core/Src/main.c ****   /* USER CODE BEGIN USART3_Init 0 */
 541:Core/Src/main.c **** 
 542:Core/Src/main.c ****   /* USER CODE END USART3_Init 0 */
 543:Core/Src/main.c **** 
 544:Core/Src/main.c ****   /* USER CODE BEGIN USART3_Init 1 */
ARM GAS  C:\Users\jisu8\AppData\Local\Temp\ccbbtk2q.s 			page 11


 545:Core/Src/main.c **** 
 546:Core/Src/main.c ****   /* USER CODE END USART3_Init 1 */
 547:Core/Src/main.c ****   huart3.Instance = USART3;
 548:Core/Src/main.c ****   huart3.Init.BaudRate = 115200;
 549:Core/Src/main.c ****   huart3.Init.WordLength = UART_WORDLENGTH_8B;
 550:Core/Src/main.c ****   huart3.Init.StopBits = UART_STOPBITS_1;
 551:Core/Src/main.c ****   huart3.Init.Parity = UART_PARITY_NONE;
 552:Core/Src/main.c ****   huart3.Init.Mode = UART_MODE_TX_RX;
 553:Core/Src/main.c ****   huart3.Init.HwFlowCtl = UART_HWCONTROL_NONE;
 554:Core/Src/main.c ****   huart3.Init.OverSampling = UART_OVERSAMPLING_16;
 555:Core/Src/main.c ****   huart3.Init.OneBitSampling = UART_ONE_BIT_SAMPLE_DISABLE;
 556:Core/Src/main.c ****   huart3.AdvancedInit.AdvFeatureInit = UART_ADVFEATURE_NO_INIT;
 557:Core/Src/main.c ****   if (HAL_UART_Init(&huart3) != HAL_OK)
 558:Core/Src/main.c ****   {
 559:Core/Src/main.c ****     Error_Handler();
 560:Core/Src/main.c ****   }
 561:Core/Src/main.c ****   /* USER CODE BEGIN USART3_Init 2 */
 562:Core/Src/main.c **** 
 563:Core/Src/main.c ****   /* USER CODE END USART3_Init 2 */
 564:Core/Src/main.c **** 
 565:Core/Src/main.c **** }
 566:Core/Src/main.c **** 
 567:Core/Src/main.c **** /**
 568:Core/Src/main.c ****   * Enable DMA controller clock
 569:Core/Src/main.c ****   */
 570:Core/Src/main.c **** static void MX_DMA_Init(void)
 571:Core/Src/main.c **** {
 572:Core/Src/main.c **** 
 573:Core/Src/main.c ****   /* DMA controller clock enable */
 574:Core/Src/main.c ****   __HAL_RCC_DMA1_CLK_ENABLE();
 575:Core/Src/main.c ****   __HAL_RCC_DMA2_CLK_ENABLE();
 576:Core/Src/main.c **** 
 577:Core/Src/main.c ****   /* DMA interrupt init */
 578:Core/Src/main.c ****   /* DMA1_Channel3_IRQn interrupt configuration */
 579:Core/Src/main.c ****   HAL_NVIC_SetPriority(DMA1_Channel3_IRQn, 5, 0);
 580:Core/Src/main.c ****   HAL_NVIC_EnableIRQ(DMA1_Channel3_IRQn);
 581:Core/Src/main.c ****   /* DMA1_Channel5_IRQn interrupt configuration */
 582:Core/Src/main.c ****   HAL_NVIC_SetPriority(DMA1_Channel5_IRQn, 6, 0);
 583:Core/Src/main.c ****   HAL_NVIC_EnableIRQ(DMA1_Channel5_IRQn);
 584:Core/Src/main.c ****   /* DMA1_Channel6_IRQn interrupt configuration */
 585:Core/Src/main.c ****   HAL_NVIC_SetPriority(DMA1_Channel6_IRQn, 7, 0);
 586:Core/Src/main.c ****   HAL_NVIC_EnableIRQ(DMA1_Channel6_IRQn);
 587:Core/Src/main.c ****   /* DMA2_Channel1_IRQn interrupt configuration */
 588:Core/Src/main.c ****   HAL_NVIC_SetPriority(DMA2_Channel1_IRQn, 0, 0);
 589:Core/Src/main.c ****   HAL_NVIC_EnableIRQ(DMA2_Channel1_IRQn);
 590:Core/Src/main.c **** 
 591:Core/Src/main.c **** }
 592:Core/Src/main.c **** 
 593:Core/Src/main.c **** /**
 594:Core/Src/main.c ****   * @brief GPIO Initialization Function
 595:Core/Src/main.c ****   * @param None
 596:Core/Src/main.c ****   * @retval None
 597:Core/Src/main.c ****   */
 598:Core/Src/main.c **** static void MX_GPIO_Init(void)
 599:Core/Src/main.c **** {
  28              		.loc 1 599 1 view -0
  29              		.cfi_startproc
ARM GAS  C:\Users\jisu8\AppData\Local\Temp\ccbbtk2q.s 			page 12


  30              		@ args = 0, pretend = 0, frame = 40
  31              		@ frame_needed = 0, uses_anonymous_args = 0
  32 0000 70B5     		push	{r4, r5, r6, lr}
  33              	.LCFI0:
  34              		.cfi_def_cfa_offset 16
  35              		.cfi_offset 4, -16
  36              		.cfi_offset 5, -12
  37              		.cfi_offset 6, -8
  38              		.cfi_offset 14, -4
  39 0002 8AB0     		sub	sp, sp, #40
  40              	.LCFI1:
  41              		.cfi_def_cfa_offset 56
 600:Core/Src/main.c ****   GPIO_InitTypeDef GPIO_InitStruct = {0};
  42              		.loc 1 600 3 view .LVU1
  43              		.loc 1 600 20 is_stmt 0 view .LVU2
  44 0004 0024     		movs	r4, #0
  45 0006 0594     		str	r4, [sp, #20]
  46 0008 0694     		str	r4, [sp, #24]
  47 000a 0794     		str	r4, [sp, #28]
  48 000c 0894     		str	r4, [sp, #32]
  49 000e 0994     		str	r4, [sp, #36]
 601:Core/Src/main.c **** 
 602:Core/Src/main.c ****   /* GPIO Ports Clock Enable */
 603:Core/Src/main.c ****   __HAL_RCC_GPIOC_CLK_ENABLE();
  50              		.loc 1 603 3 is_stmt 1 view .LVU3
  51              	.LBB4:
  52              		.loc 1 603 3 view .LVU4
  53              		.loc 1 603 3 view .LVU5
  54 0010 2D4B     		ldr	r3, .L3
  55 0012 5A69     		ldr	r2, [r3, #20]
  56 0014 42F40022 		orr	r2, r2, #524288
  57 0018 5A61     		str	r2, [r3, #20]
  58              		.loc 1 603 3 view .LVU6
  59 001a 5A69     		ldr	r2, [r3, #20]
  60 001c 02F40022 		and	r2, r2, #524288
  61 0020 0192     		str	r2, [sp, #4]
  62              		.loc 1 603 3 view .LVU7
  63 0022 019A     		ldr	r2, [sp, #4]
  64              	.LBE4:
  65              		.loc 1 603 3 view .LVU8
 604:Core/Src/main.c ****   __HAL_RCC_GPIOF_CLK_ENABLE();
  66              		.loc 1 604 3 view .LVU9
  67              	.LBB5:
  68              		.loc 1 604 3 view .LVU10
  69              		.loc 1 604 3 view .LVU11
  70 0024 5A69     		ldr	r2, [r3, #20]
  71 0026 42F48002 		orr	r2, r2, #4194304
  72 002a 5A61     		str	r2, [r3, #20]
  73              		.loc 1 604 3 view .LVU12
  74 002c 5A69     		ldr	r2, [r3, #20]
  75 002e 02F48002 		and	r2, r2, #4194304
  76 0032 0292     		str	r2, [sp, #8]
  77              		.loc 1 604 3 view .LVU13
  78 0034 029A     		ldr	r2, [sp, #8]
  79              	.LBE5:
  80              		.loc 1 604 3 view .LVU14
 605:Core/Src/main.c ****   __HAL_RCC_GPIOA_CLK_ENABLE();
ARM GAS  C:\Users\jisu8\AppData\Local\Temp\ccbbtk2q.s 			page 13


  81              		.loc 1 605 3 view .LVU15
  82              	.LBB6:
  83              		.loc 1 605 3 view .LVU16
  84              		.loc 1 605 3 view .LVU17
  85 0036 5A69     		ldr	r2, [r3, #20]
  86 0038 42F40032 		orr	r2, r2, #131072
  87 003c 5A61     		str	r2, [r3, #20]
  88              		.loc 1 605 3 view .LVU18
  89 003e 5A69     		ldr	r2, [r3, #20]
  90 0040 02F40032 		and	r2, r2, #131072
  91 0044 0392     		str	r2, [sp, #12]
  92              		.loc 1 605 3 view .LVU19
  93 0046 039A     		ldr	r2, [sp, #12]
  94              	.LBE6:
  95              		.loc 1 605 3 view .LVU20
 606:Core/Src/main.c ****   __HAL_RCC_GPIOB_CLK_ENABLE();
  96              		.loc 1 606 3 view .LVU21
  97              	.LBB7:
  98              		.loc 1 606 3 view .LVU22
  99              		.loc 1 606 3 view .LVU23
 100 0048 5A69     		ldr	r2, [r3, #20]
 101 004a 42F48022 		orr	r2, r2, #262144
 102 004e 5A61     		str	r2, [r3, #20]
 103              		.loc 1 606 3 view .LVU24
 104 0050 5B69     		ldr	r3, [r3, #20]
 105 0052 03F48023 		and	r3, r3, #262144
 106 0056 0493     		str	r3, [sp, #16]
 107              		.loc 1 606 3 view .LVU25
 108 0058 049B     		ldr	r3, [sp, #16]
 109              	.LBE7:
 110              		.loc 1 606 3 view .LVU26
 607:Core/Src/main.c **** 
 608:Core/Src/main.c ****   /*Configure GPIO pin Output Level */
 609:Core/Src/main.c ****   HAL_GPIO_WritePin(GPIOA, LTE_STATUS_Pin|Lidar_ONOFF_Pin|DHT_INOUT_Pin, GPIO_PIN_RESET);
 111              		.loc 1 609 3 view .LVU27
 112 005a 2246     		mov	r2, r4
 113 005c 9221     		movs	r1, #146
 114 005e 4FF09040 		mov	r0, #1207959552
 115 0062 FFF7FEFF 		bl	HAL_GPIO_WritePin
 116              	.LVL0:
 610:Core/Src/main.c **** 
 611:Core/Src/main.c ****   /*Configure GPIO pin Output Level */
 612:Core/Src/main.c ****   HAL_GPIO_WritePin(GPIOB, TEMP_ONOFF_Pin|SPI2_CS_Pin|POWER_KEY_Pin|RESET_ONOFF_Pin, GPIO_PIN_RESET
 117              		.loc 1 612 3 view .LVU28
 118 0066 194E     		ldr	r6, .L3+4
 119 0068 2246     		mov	r2, r4
 120 006a 41F26201 		movw	r1, #4194
 121 006e 3046     		mov	r0, r6
 122 0070 FFF7FEFF 		bl	HAL_GPIO_WritePin
 123              	.LVL1:
 613:Core/Src/main.c **** 
 614:Core/Src/main.c ****   /*Configure GPIO pins : LTE_STATUS_Pin Lidar_ONOFF_Pin DHT_INOUT_Pin */
 615:Core/Src/main.c ****   GPIO_InitStruct.Pin = LTE_STATUS_Pin|Lidar_ONOFF_Pin|DHT_INOUT_Pin;
 124              		.loc 1 615 3 view .LVU29
 125              		.loc 1 615 23 is_stmt 0 view .LVU30
 126 0074 9223     		movs	r3, #146
 127 0076 0593     		str	r3, [sp, #20]
ARM GAS  C:\Users\jisu8\AppData\Local\Temp\ccbbtk2q.s 			page 14


 616:Core/Src/main.c ****   GPIO_InitStruct.Mode = GPIO_MODE_OUTPUT_PP;
 128              		.loc 1 616 3 is_stmt 1 view .LVU31
 129              		.loc 1 616 24 is_stmt 0 view .LVU32
 130 0078 0125     		movs	r5, #1
 131 007a 0695     		str	r5, [sp, #24]
 617:Core/Src/main.c ****   GPIO_InitStruct.Pull = GPIO_NOPULL;
 132              		.loc 1 617 3 is_stmt 1 view .LVU33
 133              		.loc 1 617 24 is_stmt 0 view .LVU34
 134 007c 0794     		str	r4, [sp, #28]
 618:Core/Src/main.c ****   GPIO_InitStruct.Speed = GPIO_SPEED_FREQ_LOW;
 135              		.loc 1 618 3 is_stmt 1 view .LVU35
 136              		.loc 1 618 25 is_stmt 0 view .LVU36
 137 007e 0894     		str	r4, [sp, #32]
 619:Core/Src/main.c ****   HAL_GPIO_Init(GPIOA, &GPIO_InitStruct);
 138              		.loc 1 619 3 is_stmt 1 view .LVU37
 139 0080 05A9     		add	r1, sp, #20
 140 0082 4FF09040 		mov	r0, #1207959552
 141 0086 FFF7FEFF 		bl	HAL_GPIO_Init
 142              	.LVL2:
 620:Core/Src/main.c **** 
 621:Core/Src/main.c ****   /*Configure GPIO pin : DOOR_INT_Pin */
 622:Core/Src/main.c ****   GPIO_InitStruct.Pin = DOOR_INT_Pin;
 143              		.loc 1 622 3 view .LVU38
 144              		.loc 1 622 23 is_stmt 0 view .LVU39
 145 008a 2023     		movs	r3, #32
 146 008c 0593     		str	r3, [sp, #20]
 623:Core/Src/main.c ****   GPIO_InitStruct.Mode = GPIO_MODE_IT_RISING;
 147              		.loc 1 623 3 is_stmt 1 view .LVU40
 148              		.loc 1 623 24 is_stmt 0 view .LVU41
 149 008e 4FF48813 		mov	r3, #1114112
 150 0092 0693     		str	r3, [sp, #24]
 624:Core/Src/main.c ****   GPIO_InitStruct.Pull = GPIO_NOPULL;
 151              		.loc 1 624 3 is_stmt 1 view .LVU42
 152              		.loc 1 624 24 is_stmt 0 view .LVU43
 153 0094 0794     		str	r4, [sp, #28]
 625:Core/Src/main.c ****   HAL_GPIO_Init(DOOR_INT_GPIO_Port, &GPIO_InitStruct);
 154              		.loc 1 625 3 is_stmt 1 view .LVU44
 155 0096 05A9     		add	r1, sp, #20
 156 0098 4FF09040 		mov	r0, #1207959552
 157 009c FFF7FEFF 		bl	HAL_GPIO_Init
 158              	.LVL3:
 626:Core/Src/main.c **** 
 627:Core/Src/main.c ****   /*Configure GPIO pins : TEMP_ONOFF_Pin SPI2_CS_Pin POWER_KEY_Pin RESET_ONOFF_Pin */
 628:Core/Src/main.c ****   GPIO_InitStruct.Pin = TEMP_ONOFF_Pin|SPI2_CS_Pin|POWER_KEY_Pin|RESET_ONOFF_Pin;
 159              		.loc 1 628 3 view .LVU45
 160              		.loc 1 628 23 is_stmt 0 view .LVU46
 161 00a0 41F26203 		movw	r3, #4194
 162 00a4 0593     		str	r3, [sp, #20]
 629:Core/Src/main.c ****   GPIO_InitStruct.Mode = GPIO_MODE_OUTPUT_PP;
 163              		.loc 1 629 3 is_stmt 1 view .LVU47
 164              		.loc 1 629 24 is_stmt 0 view .LVU48
 165 00a6 0695     		str	r5, [sp, #24]
 630:Core/Src/main.c ****   GPIO_InitStruct.Pull = GPIO_NOPULL;
 166              		.loc 1 630 3 is_stmt 1 view .LVU49
 167              		.loc 1 630 24 is_stmt 0 view .LVU50
 168 00a8 0794     		str	r4, [sp, #28]
 631:Core/Src/main.c ****   GPIO_InitStruct.Speed = GPIO_SPEED_FREQ_LOW;
ARM GAS  C:\Users\jisu8\AppData\Local\Temp\ccbbtk2q.s 			page 15


 169              		.loc 1 631 3 is_stmt 1 view .LVU51
 170              		.loc 1 631 25 is_stmt 0 view .LVU52
 171 00aa 0894     		str	r4, [sp, #32]
 632:Core/Src/main.c ****   HAL_GPIO_Init(GPIOB, &GPIO_InitStruct);
 172              		.loc 1 632 3 is_stmt 1 view .LVU53
 173 00ac 05A9     		add	r1, sp, #20
 174 00ae 3046     		mov	r0, r6
 175 00b0 FFF7FEFF 		bl	HAL_GPIO_Init
 176              	.LVL4:
 633:Core/Src/main.c **** 
 634:Core/Src/main.c ****   /* EXTI interrupt init*/
 635:Core/Src/main.c ****   HAL_NVIC_SetPriority(EXTI9_5_IRQn, 1, 0);
 177              		.loc 1 635 3 view .LVU54
 178 00b4 2246     		mov	r2, r4
 179 00b6 2946     		mov	r1, r5
 180 00b8 1720     		movs	r0, #23
 181 00ba FFF7FEFF 		bl	HAL_NVIC_SetPriority
 182              	.LVL5:
 636:Core/Src/main.c ****   HAL_NVIC_EnableIRQ(EXTI9_5_IRQn);
 183              		.loc 1 636 3 view .LVU55
 184 00be 1720     		movs	r0, #23
 185 00c0 FFF7FEFF 		bl	HAL_NVIC_EnableIRQ
 186              	.LVL6:
 637:Core/Src/main.c **** 
 638:Core/Src/main.c **** }
 187              		.loc 1 638 1 is_stmt 0 view .LVU56
 188 00c4 0AB0     		add	sp, sp, #40
 189              	.LCFI2:
 190              		.cfi_def_cfa_offset 16
 191              		@ sp needed
 192 00c6 70BD     		pop	{r4, r5, r6, pc}
 193              	.L4:
 194              		.align	2
 195              	.L3:
 196 00c8 00100240 		.word	1073876992
 197 00cc 00040048 		.word	1207960576
 198              		.cfi_endproc
 199              	.LFE145:
 201              		.section	.text.MX_DMA_Init,"ax",%progbits
 202              		.align	1
 203              		.syntax unified
 204              		.thumb
 205              		.thumb_func
 207              	MX_DMA_Init:
 208              	.LFB144:
 571:Core/Src/main.c **** 
 209              		.loc 1 571 1 is_stmt 1 view -0
 210              		.cfi_startproc
 211              		@ args = 0, pretend = 0, frame = 8
 212              		@ frame_needed = 0, uses_anonymous_args = 0
 213 0000 00B5     		push	{lr}
 214              	.LCFI3:
 215              		.cfi_def_cfa_offset 4
 216              		.cfi_offset 14, -4
 217 0002 83B0     		sub	sp, sp, #12
 218              	.LCFI4:
 219              		.cfi_def_cfa_offset 16
ARM GAS  C:\Users\jisu8\AppData\Local\Temp\ccbbtk2q.s 			page 16


 574:Core/Src/main.c ****   __HAL_RCC_DMA2_CLK_ENABLE();
 220              		.loc 1 574 3 view .LVU58
 221              	.LBB8:
 574:Core/Src/main.c ****   __HAL_RCC_DMA2_CLK_ENABLE();
 222              		.loc 1 574 3 view .LVU59
 574:Core/Src/main.c ****   __HAL_RCC_DMA2_CLK_ENABLE();
 223              		.loc 1 574 3 view .LVU60
 224 0004 1A4B     		ldr	r3, .L7
 225 0006 5A69     		ldr	r2, [r3, #20]
 226 0008 42F00102 		orr	r2, r2, #1
 227 000c 5A61     		str	r2, [r3, #20]
 574:Core/Src/main.c ****   __HAL_RCC_DMA2_CLK_ENABLE();
 228              		.loc 1 574 3 view .LVU61
 229 000e 5A69     		ldr	r2, [r3, #20]
 230 0010 02F00102 		and	r2, r2, #1
 231 0014 0092     		str	r2, [sp]
 574:Core/Src/main.c ****   __HAL_RCC_DMA2_CLK_ENABLE();
 232              		.loc 1 574 3 view .LVU62
 233 0016 009A     		ldr	r2, [sp]
 234              	.LBE8:
 574:Core/Src/main.c ****   __HAL_RCC_DMA2_CLK_ENABLE();
 235              		.loc 1 574 3 view .LVU63
 575:Core/Src/main.c **** 
 236              		.loc 1 575 3 view .LVU64
 237              	.LBB9:
 575:Core/Src/main.c **** 
 238              		.loc 1 575 3 view .LVU65
 575:Core/Src/main.c **** 
 239              		.loc 1 575 3 view .LVU66
 240 0018 5A69     		ldr	r2, [r3, #20]
 241 001a 42F00202 		orr	r2, r2, #2
 242 001e 5A61     		str	r2, [r3, #20]
 575:Core/Src/main.c **** 
 243              		.loc 1 575 3 view .LVU67
 244 0020 5B69     		ldr	r3, [r3, #20]
 245 0022 03F00203 		and	r3, r3, #2
 246 0026 0193     		str	r3, [sp, #4]
 575:Core/Src/main.c **** 
 247              		.loc 1 575 3 view .LVU68
 248 0028 019B     		ldr	r3, [sp, #4]
 249              	.LBE9:
 575:Core/Src/main.c **** 
 250              		.loc 1 575 3 view .LVU69
 579:Core/Src/main.c ****   HAL_NVIC_EnableIRQ(DMA1_Channel3_IRQn);
 251              		.loc 1 579 3 view .LVU70
 252 002a 0022     		movs	r2, #0
 253 002c 0521     		movs	r1, #5
 254 002e 0D20     		movs	r0, #13
 255 0030 FFF7FEFF 		bl	HAL_NVIC_SetPriority
 256              	.LVL7:
 580:Core/Src/main.c ****   /* DMA1_Channel5_IRQn interrupt configuration */
 257              		.loc 1 580 3 view .LVU71
 258 0034 0D20     		movs	r0, #13
 259 0036 FFF7FEFF 		bl	HAL_NVIC_EnableIRQ
 260              	.LVL8:
 582:Core/Src/main.c ****   HAL_NVIC_EnableIRQ(DMA1_Channel5_IRQn);
 261              		.loc 1 582 3 view .LVU72
ARM GAS  C:\Users\jisu8\AppData\Local\Temp\ccbbtk2q.s 			page 17


 262 003a 0022     		movs	r2, #0
 263 003c 0621     		movs	r1, #6
 264 003e 0F20     		movs	r0, #15
 265 0040 FFF7FEFF 		bl	HAL_NVIC_SetPriority
 266              	.LVL9:
 583:Core/Src/main.c ****   /* DMA1_Channel6_IRQn interrupt configuration */
 267              		.loc 1 583 3 view .LVU73
 268 0044 0F20     		movs	r0, #15
 269 0046 FFF7FEFF 		bl	HAL_NVIC_EnableIRQ
 270              	.LVL10:
 585:Core/Src/main.c ****   HAL_NVIC_EnableIRQ(DMA1_Channel6_IRQn);
 271              		.loc 1 585 3 view .LVU74
 272 004a 0022     		movs	r2, #0
 273 004c 0721     		movs	r1, #7
 274 004e 1020     		movs	r0, #16
 275 0050 FFF7FEFF 		bl	HAL_NVIC_SetPriority
 276              	.LVL11:
 586:Core/Src/main.c ****   /* DMA2_Channel1_IRQn interrupt configuration */
 277              		.loc 1 586 3 view .LVU75
 278 0054 1020     		movs	r0, #16
 279 0056 FFF7FEFF 		bl	HAL_NVIC_EnableIRQ
 280              	.LVL12:
 588:Core/Src/main.c ****   HAL_NVIC_EnableIRQ(DMA2_Channel1_IRQn);
 281              		.loc 1 588 3 view .LVU76
 282 005a 0022     		movs	r2, #0
 283 005c 1146     		mov	r1, r2
 284 005e 3820     		movs	r0, #56
 285 0060 FFF7FEFF 		bl	HAL_NVIC_SetPriority
 286              	.LVL13:
 589:Core/Src/main.c **** 
 287              		.loc 1 589 3 view .LVU77
 288 0064 3820     		movs	r0, #56
 289 0066 FFF7FEFF 		bl	HAL_NVIC_EnableIRQ
 290              	.LVL14:
 591:Core/Src/main.c **** 
 291              		.loc 1 591 1 is_stmt 0 view .LVU78
 292 006a 03B0     		add	sp, sp, #12
 293              	.LCFI5:
 294              		.cfi_def_cfa_offset 4
 295              		@ sp needed
 296 006c 5DF804FB 		ldr	pc, [sp], #4
 297              	.L8:
 298              		.align	2
 299              	.L7:
 300 0070 00100240 		.word	1073876992
 301              		.cfi_endproc
 302              	.LFE144:
 304              		.section	.text.Error_Handler,"ax",%progbits
 305              		.align	1
 306              		.global	Error_Handler
 307              		.syntax unified
 308              		.thumb
 309              		.thumb_func
 311              	Error_Handler:
 312              	.LFB146:
 639:Core/Src/main.c **** 
 640:Core/Src/main.c **** /* USER CODE BEGIN 4 */
ARM GAS  C:\Users\jisu8\AppData\Local\Temp\ccbbtk2q.s 			page 18


 641:Core/Src/main.c **** 
 642:Core/Src/main.c **** /* USER CODE END 4 */
 643:Core/Src/main.c **** 
 644:Core/Src/main.c **** /**
 645:Core/Src/main.c ****   * @brief  This function is executed in case of error occurrence.
 646:Core/Src/main.c ****   * @retval None
 647:Core/Src/main.c ****   */
 648:Core/Src/main.c **** void Error_Handler(void)
 649:Core/Src/main.c **** {
 313              		.loc 1 649 1 is_stmt 1 view -0
 314              		.cfi_startproc
 315              		@ Volatile: function does not return.
 316              		@ args = 0, pretend = 0, frame = 0
 317              		@ frame_needed = 0, uses_anonymous_args = 0
 318              		@ link register save eliminated.
 650:Core/Src/main.c ****   /* USER CODE BEGIN Error_Handler_Debug */
 651:Core/Src/main.c ****   /* User can add his own implementation to report the HAL error return state */
 652:Core/Src/main.c ****   __disable_irq();
 319              		.loc 1 652 3 view .LVU80
 320              	.LBB10:
 321              	.LBI10:
 322              		.file 2 "Drivers/CMSIS/Include/cmsis_gcc.h"
   1:Drivers/CMSIS/Include/cmsis_gcc.h **** /**************************************************************************//**
   2:Drivers/CMSIS/Include/cmsis_gcc.h ****  * @file     cmsis_gcc.h
   3:Drivers/CMSIS/Include/cmsis_gcc.h ****  * @brief    CMSIS compiler GCC header file
   4:Drivers/CMSIS/Include/cmsis_gcc.h ****  * @version  V5.0.4
   5:Drivers/CMSIS/Include/cmsis_gcc.h ****  * @date     09. April 2018
   6:Drivers/CMSIS/Include/cmsis_gcc.h ****  ******************************************************************************/
   7:Drivers/CMSIS/Include/cmsis_gcc.h **** /*
   8:Drivers/CMSIS/Include/cmsis_gcc.h ****  * Copyright (c) 2009-2018 Arm Limited. All rights reserved.
   9:Drivers/CMSIS/Include/cmsis_gcc.h ****  *
  10:Drivers/CMSIS/Include/cmsis_gcc.h ****  * SPDX-License-Identifier: Apache-2.0
  11:Drivers/CMSIS/Include/cmsis_gcc.h ****  *
  12:Drivers/CMSIS/Include/cmsis_gcc.h ****  * Licensed under the Apache License, Version 2.0 (the License); you may
  13:Drivers/CMSIS/Include/cmsis_gcc.h ****  * not use this file except in compliance with the License.
  14:Drivers/CMSIS/Include/cmsis_gcc.h ****  * You may obtain a copy of the License at
  15:Drivers/CMSIS/Include/cmsis_gcc.h ****  *
  16:Drivers/CMSIS/Include/cmsis_gcc.h ****  * www.apache.org/licenses/LICENSE-2.0
  17:Drivers/CMSIS/Include/cmsis_gcc.h ****  *
  18:Drivers/CMSIS/Include/cmsis_gcc.h ****  * Unless required by applicable law or agreed to in writing, software
  19:Drivers/CMSIS/Include/cmsis_gcc.h ****  * distributed under the License is distributed on an AS IS BASIS, WITHOUT
  20:Drivers/CMSIS/Include/cmsis_gcc.h ****  * WARRANTIES OR CONDITIONS OF ANY KIND, either express or implied.
  21:Drivers/CMSIS/Include/cmsis_gcc.h ****  * See the License for the specific language governing permissions and
  22:Drivers/CMSIS/Include/cmsis_gcc.h ****  * limitations under the License.
  23:Drivers/CMSIS/Include/cmsis_gcc.h ****  */
  24:Drivers/CMSIS/Include/cmsis_gcc.h **** 
  25:Drivers/CMSIS/Include/cmsis_gcc.h **** #ifndef __CMSIS_GCC_H
  26:Drivers/CMSIS/Include/cmsis_gcc.h **** #define __CMSIS_GCC_H
  27:Drivers/CMSIS/Include/cmsis_gcc.h **** 
  28:Drivers/CMSIS/Include/cmsis_gcc.h **** /* ignore some GCC warnings */
  29:Drivers/CMSIS/Include/cmsis_gcc.h **** #pragma GCC diagnostic push
  30:Drivers/CMSIS/Include/cmsis_gcc.h **** #pragma GCC diagnostic ignored "-Wsign-conversion"
  31:Drivers/CMSIS/Include/cmsis_gcc.h **** #pragma GCC diagnostic ignored "-Wconversion"
  32:Drivers/CMSIS/Include/cmsis_gcc.h **** #pragma GCC diagnostic ignored "-Wunused-parameter"
  33:Drivers/CMSIS/Include/cmsis_gcc.h **** 
  34:Drivers/CMSIS/Include/cmsis_gcc.h **** /* Fallback for __has_builtin */
  35:Drivers/CMSIS/Include/cmsis_gcc.h **** #ifndef __has_builtin
ARM GAS  C:\Users\jisu8\AppData\Local\Temp\ccbbtk2q.s 			page 19


  36:Drivers/CMSIS/Include/cmsis_gcc.h ****   #define __has_builtin(x) (0)
  37:Drivers/CMSIS/Include/cmsis_gcc.h **** #endif
  38:Drivers/CMSIS/Include/cmsis_gcc.h **** 
  39:Drivers/CMSIS/Include/cmsis_gcc.h **** /* CMSIS compiler specific defines */
  40:Drivers/CMSIS/Include/cmsis_gcc.h **** #ifndef   __ASM
  41:Drivers/CMSIS/Include/cmsis_gcc.h ****   #define __ASM                                  __asm
  42:Drivers/CMSIS/Include/cmsis_gcc.h **** #endif
  43:Drivers/CMSIS/Include/cmsis_gcc.h **** #ifndef   __INLINE
  44:Drivers/CMSIS/Include/cmsis_gcc.h ****   #define __INLINE                               inline
  45:Drivers/CMSIS/Include/cmsis_gcc.h **** #endif
  46:Drivers/CMSIS/Include/cmsis_gcc.h **** #ifndef   __STATIC_INLINE
  47:Drivers/CMSIS/Include/cmsis_gcc.h ****   #define __STATIC_INLINE                        static inline
  48:Drivers/CMSIS/Include/cmsis_gcc.h **** #endif
  49:Drivers/CMSIS/Include/cmsis_gcc.h **** #ifndef   __STATIC_FORCEINLINE                 
  50:Drivers/CMSIS/Include/cmsis_gcc.h ****   #define __STATIC_FORCEINLINE                   __attribute__((always_inline)) static inline
  51:Drivers/CMSIS/Include/cmsis_gcc.h **** #endif                                           
  52:Drivers/CMSIS/Include/cmsis_gcc.h **** #ifndef   __NO_RETURN
  53:Drivers/CMSIS/Include/cmsis_gcc.h ****   #define __NO_RETURN                            __attribute__((__noreturn__))
  54:Drivers/CMSIS/Include/cmsis_gcc.h **** #endif
  55:Drivers/CMSIS/Include/cmsis_gcc.h **** #ifndef   __USED
  56:Drivers/CMSIS/Include/cmsis_gcc.h ****   #define __USED                                 __attribute__((used))
  57:Drivers/CMSIS/Include/cmsis_gcc.h **** #endif
  58:Drivers/CMSIS/Include/cmsis_gcc.h **** #ifndef   __WEAK
  59:Drivers/CMSIS/Include/cmsis_gcc.h ****   #define __WEAK                                 __attribute__((weak))
  60:Drivers/CMSIS/Include/cmsis_gcc.h **** #endif
  61:Drivers/CMSIS/Include/cmsis_gcc.h **** #ifndef   __PACKED
  62:Drivers/CMSIS/Include/cmsis_gcc.h ****   #define __PACKED                               __attribute__((packed, aligned(1)))
  63:Drivers/CMSIS/Include/cmsis_gcc.h **** #endif
  64:Drivers/CMSIS/Include/cmsis_gcc.h **** #ifndef   __PACKED_STRUCT
  65:Drivers/CMSIS/Include/cmsis_gcc.h ****   #define __PACKED_STRUCT                        struct __attribute__((packed, aligned(1)))
  66:Drivers/CMSIS/Include/cmsis_gcc.h **** #endif
  67:Drivers/CMSIS/Include/cmsis_gcc.h **** #ifndef   __PACKED_UNION
  68:Drivers/CMSIS/Include/cmsis_gcc.h ****   #define __PACKED_UNION                         union __attribute__((packed, aligned(1)))
  69:Drivers/CMSIS/Include/cmsis_gcc.h **** #endif
  70:Drivers/CMSIS/Include/cmsis_gcc.h **** #ifndef   __UNALIGNED_UINT32        /* deprecated */
  71:Drivers/CMSIS/Include/cmsis_gcc.h ****   #pragma GCC diagnostic push
  72:Drivers/CMSIS/Include/cmsis_gcc.h ****   #pragma GCC diagnostic ignored "-Wpacked"
  73:Drivers/CMSIS/Include/cmsis_gcc.h ****   #pragma GCC diagnostic ignored "-Wattributes"
  74:Drivers/CMSIS/Include/cmsis_gcc.h ****   struct __attribute__((packed)) T_UINT32 { uint32_t v; };
  75:Drivers/CMSIS/Include/cmsis_gcc.h ****   #pragma GCC diagnostic pop
  76:Drivers/CMSIS/Include/cmsis_gcc.h ****   #define __UNALIGNED_UINT32(x)                  (((struct T_UINT32 *)(x))->v)
  77:Drivers/CMSIS/Include/cmsis_gcc.h **** #endif
  78:Drivers/CMSIS/Include/cmsis_gcc.h **** #ifndef   __UNALIGNED_UINT16_WRITE
  79:Drivers/CMSIS/Include/cmsis_gcc.h ****   #pragma GCC diagnostic push
  80:Drivers/CMSIS/Include/cmsis_gcc.h ****   #pragma GCC diagnostic ignored "-Wpacked"
  81:Drivers/CMSIS/Include/cmsis_gcc.h ****   #pragma GCC diagnostic ignored "-Wattributes"
  82:Drivers/CMSIS/Include/cmsis_gcc.h ****   __PACKED_STRUCT T_UINT16_WRITE { uint16_t v; };
  83:Drivers/CMSIS/Include/cmsis_gcc.h ****   #pragma GCC diagnostic pop
  84:Drivers/CMSIS/Include/cmsis_gcc.h ****   #define __UNALIGNED_UINT16_WRITE(addr, val)    (void)((((struct T_UINT16_WRITE *)(void *)(addr))-
  85:Drivers/CMSIS/Include/cmsis_gcc.h **** #endif
  86:Drivers/CMSIS/Include/cmsis_gcc.h **** #ifndef   __UNALIGNED_UINT16_READ
  87:Drivers/CMSIS/Include/cmsis_gcc.h ****   #pragma GCC diagnostic push
  88:Drivers/CMSIS/Include/cmsis_gcc.h ****   #pragma GCC diagnostic ignored "-Wpacked"
  89:Drivers/CMSIS/Include/cmsis_gcc.h ****   #pragma GCC diagnostic ignored "-Wattributes"
  90:Drivers/CMSIS/Include/cmsis_gcc.h ****   __PACKED_STRUCT T_UINT16_READ { uint16_t v; };
  91:Drivers/CMSIS/Include/cmsis_gcc.h ****   #pragma GCC diagnostic pop
  92:Drivers/CMSIS/Include/cmsis_gcc.h ****   #define __UNALIGNED_UINT16_READ(addr)          (((const struct T_UINT16_READ *)(const void *)(add
ARM GAS  C:\Users\jisu8\AppData\Local\Temp\ccbbtk2q.s 			page 20


  93:Drivers/CMSIS/Include/cmsis_gcc.h **** #endif
  94:Drivers/CMSIS/Include/cmsis_gcc.h **** #ifndef   __UNALIGNED_UINT32_WRITE
  95:Drivers/CMSIS/Include/cmsis_gcc.h ****   #pragma GCC diagnostic push
  96:Drivers/CMSIS/Include/cmsis_gcc.h ****   #pragma GCC diagnostic ignored "-Wpacked"
  97:Drivers/CMSIS/Include/cmsis_gcc.h ****   #pragma GCC diagnostic ignored "-Wattributes"
  98:Drivers/CMSIS/Include/cmsis_gcc.h ****   __PACKED_STRUCT T_UINT32_WRITE { uint32_t v; };
  99:Drivers/CMSIS/Include/cmsis_gcc.h ****   #pragma GCC diagnostic pop
 100:Drivers/CMSIS/Include/cmsis_gcc.h ****   #define __UNALIGNED_UINT32_WRITE(addr, val)    (void)((((struct T_UINT32_WRITE *)(void *)(addr))-
 101:Drivers/CMSIS/Include/cmsis_gcc.h **** #endif
 102:Drivers/CMSIS/Include/cmsis_gcc.h **** #ifndef   __UNALIGNED_UINT32_READ
 103:Drivers/CMSIS/Include/cmsis_gcc.h ****   #pragma GCC diagnostic push
 104:Drivers/CMSIS/Include/cmsis_gcc.h ****   #pragma GCC diagnostic ignored "-Wpacked"
 105:Drivers/CMSIS/Include/cmsis_gcc.h ****   #pragma GCC diagnostic ignored "-Wattributes"
 106:Drivers/CMSIS/Include/cmsis_gcc.h ****   __PACKED_STRUCT T_UINT32_READ { uint32_t v; };
 107:Drivers/CMSIS/Include/cmsis_gcc.h ****   #pragma GCC diagnostic pop
 108:Drivers/CMSIS/Include/cmsis_gcc.h ****   #define __UNALIGNED_UINT32_READ(addr)          (((const struct T_UINT32_READ *)(const void *)(add
 109:Drivers/CMSIS/Include/cmsis_gcc.h **** #endif
 110:Drivers/CMSIS/Include/cmsis_gcc.h **** #ifndef   __ALIGNED
 111:Drivers/CMSIS/Include/cmsis_gcc.h ****   #define __ALIGNED(x)                           __attribute__((aligned(x)))
 112:Drivers/CMSIS/Include/cmsis_gcc.h **** #endif
 113:Drivers/CMSIS/Include/cmsis_gcc.h **** #ifndef   __RESTRICT
 114:Drivers/CMSIS/Include/cmsis_gcc.h ****   #define __RESTRICT                             __restrict
 115:Drivers/CMSIS/Include/cmsis_gcc.h **** #endif
 116:Drivers/CMSIS/Include/cmsis_gcc.h **** 
 117:Drivers/CMSIS/Include/cmsis_gcc.h **** 
 118:Drivers/CMSIS/Include/cmsis_gcc.h **** /* ###########################  Core Function Access  ########################### */
 119:Drivers/CMSIS/Include/cmsis_gcc.h **** /** \ingroup  CMSIS_Core_FunctionInterface
 120:Drivers/CMSIS/Include/cmsis_gcc.h ****     \defgroup CMSIS_Core_RegAccFunctions CMSIS Core Register Access Functions
 121:Drivers/CMSIS/Include/cmsis_gcc.h ****   @{
 122:Drivers/CMSIS/Include/cmsis_gcc.h ****  */
 123:Drivers/CMSIS/Include/cmsis_gcc.h **** 
 124:Drivers/CMSIS/Include/cmsis_gcc.h **** /**
 125:Drivers/CMSIS/Include/cmsis_gcc.h ****   \brief   Enable IRQ Interrupts
 126:Drivers/CMSIS/Include/cmsis_gcc.h ****   \details Enables IRQ interrupts by clearing the I-bit in the CPSR.
 127:Drivers/CMSIS/Include/cmsis_gcc.h ****            Can only be executed in Privileged modes.
 128:Drivers/CMSIS/Include/cmsis_gcc.h ****  */
 129:Drivers/CMSIS/Include/cmsis_gcc.h **** __STATIC_FORCEINLINE void __enable_irq(void)
 130:Drivers/CMSIS/Include/cmsis_gcc.h **** {
 131:Drivers/CMSIS/Include/cmsis_gcc.h ****   __ASM volatile ("cpsie i" : : : "memory");
 132:Drivers/CMSIS/Include/cmsis_gcc.h **** }
 133:Drivers/CMSIS/Include/cmsis_gcc.h **** 
 134:Drivers/CMSIS/Include/cmsis_gcc.h **** 
 135:Drivers/CMSIS/Include/cmsis_gcc.h **** /**
 136:Drivers/CMSIS/Include/cmsis_gcc.h ****   \brief   Disable IRQ Interrupts
 137:Drivers/CMSIS/Include/cmsis_gcc.h ****   \details Disables IRQ interrupts by setting the I-bit in the CPSR.
 138:Drivers/CMSIS/Include/cmsis_gcc.h ****            Can only be executed in Privileged modes.
 139:Drivers/CMSIS/Include/cmsis_gcc.h ****  */
 140:Drivers/CMSIS/Include/cmsis_gcc.h **** __STATIC_FORCEINLINE void __disable_irq(void)
 323              		.loc 2 140 27 view .LVU81
 324              	.LBB11:
 141:Drivers/CMSIS/Include/cmsis_gcc.h **** {
 142:Drivers/CMSIS/Include/cmsis_gcc.h ****   __ASM volatile ("cpsid i" : : : "memory");
 325              		.loc 2 142 3 view .LVU82
 326              		.syntax unified
 327              	@ 142 "Drivers/CMSIS/Include/cmsis_gcc.h" 1
 328 0000 72B6     		cpsid i
 329              	@ 0 "" 2
ARM GAS  C:\Users\jisu8\AppData\Local\Temp\ccbbtk2q.s 			page 21


 330              		.thumb
 331              		.syntax unified
 332              	.L10:
 333              	.LBE11:
 334              	.LBE10:
 653:Core/Src/main.c ****   while (1)
 335              		.loc 1 653 3 discriminator 1 view .LVU83
 654:Core/Src/main.c ****   {
 655:Core/Src/main.c ****   }
 336              		.loc 1 655 3 discriminator 1 view .LVU84
 653:Core/Src/main.c ****   while (1)
 337              		.loc 1 653 9 discriminator 1 view .LVU85
 338 0002 FEE7     		b	.L10
 339              		.cfi_endproc
 340              	.LFE146:
 342              		.section	.text.MX_ADC2_Init,"ax",%progbits
 343              		.align	1
 344              		.syntax unified
 345              		.thumb
 346              		.thumb_func
 348              	MX_ADC2_Init:
 349              	.LFB135:
 195:Core/Src/main.c **** 
 350              		.loc 1 195 1 view -0
 351              		.cfi_startproc
 352              		@ args = 0, pretend = 0, frame = 24
 353              		@ frame_needed = 0, uses_anonymous_args = 0
 354 0000 00B5     		push	{lr}
 355              	.LCFI6:
 356              		.cfi_def_cfa_offset 4
 357              		.cfi_offset 14, -4
 358 0002 87B0     		sub	sp, sp, #28
 359              	.LCFI7:
 360              		.cfi_def_cfa_offset 32
 201:Core/Src/main.c **** 
 361              		.loc 1 201 3 view .LVU87
 201:Core/Src/main.c **** 
 362              		.loc 1 201 26 is_stmt 0 view .LVU88
 363 0004 0023     		movs	r3, #0
 364 0006 0093     		str	r3, [sp]
 365 0008 0193     		str	r3, [sp, #4]
 366 000a 0293     		str	r3, [sp, #8]
 367 000c 0393     		str	r3, [sp, #12]
 368 000e 0493     		str	r3, [sp, #16]
 369 0010 0593     		str	r3, [sp, #20]
 209:Core/Src/main.c ****   hadc2.Init.ClockPrescaler = ADC_CLOCK_ASYNC_DIV1;
 370              		.loc 1 209 3 is_stmt 1 view .LVU89
 209:Core/Src/main.c ****   hadc2.Init.ClockPrescaler = ADC_CLOCK_ASYNC_DIV1;
 371              		.loc 1 209 18 is_stmt 0 view .LVU90
 372 0012 1648     		ldr	r0, .L17
 373 0014 164A     		ldr	r2, .L17+4
 374 0016 0260     		str	r2, [r0]
 210:Core/Src/main.c ****   hadc2.Init.Resolution = ADC_RESOLUTION_12B;
 375              		.loc 1 210 3 is_stmt 1 view .LVU91
 210:Core/Src/main.c ****   hadc2.Init.Resolution = ADC_RESOLUTION_12B;
 376              		.loc 1 210 29 is_stmt 0 view .LVU92
 377 0018 4360     		str	r3, [r0, #4]
ARM GAS  C:\Users\jisu8\AppData\Local\Temp\ccbbtk2q.s 			page 22


 211:Core/Src/main.c ****   hadc2.Init.ScanConvMode = ADC_SCAN_DISABLE;
 378              		.loc 1 211 3 is_stmt 1 view .LVU93
 211:Core/Src/main.c ****   hadc2.Init.ScanConvMode = ADC_SCAN_DISABLE;
 379              		.loc 1 211 25 is_stmt 0 view .LVU94
 380 001a 8360     		str	r3, [r0, #8]
 212:Core/Src/main.c ****   hadc2.Init.ContinuousConvMode = ENABLE;
 381              		.loc 1 212 3 is_stmt 1 view .LVU95
 212:Core/Src/main.c ****   hadc2.Init.ContinuousConvMode = ENABLE;
 382              		.loc 1 212 27 is_stmt 0 view .LVU96
 383 001c 0361     		str	r3, [r0, #16]
 213:Core/Src/main.c ****   hadc2.Init.DiscontinuousConvMode = DISABLE;
 384              		.loc 1 213 3 is_stmt 1 view .LVU97
 213:Core/Src/main.c ****   hadc2.Init.DiscontinuousConvMode = DISABLE;
 385              		.loc 1 213 33 is_stmt 0 view .LVU98
 386 001e 0122     		movs	r2, #1
 387 0020 4276     		strb	r2, [r0, #25]
 214:Core/Src/main.c ****   hadc2.Init.ExternalTrigConvEdge = ADC_EXTERNALTRIGCONVEDGE_NONE;
 388              		.loc 1 214 3 is_stmt 1 view .LVU99
 214:Core/Src/main.c ****   hadc2.Init.ExternalTrigConvEdge = ADC_EXTERNALTRIGCONVEDGE_NONE;
 389              		.loc 1 214 36 is_stmt 0 view .LVU100
 390 0022 80F82030 		strb	r3, [r0, #32]
 215:Core/Src/main.c ****   hadc2.Init.ExternalTrigConv = ADC_SOFTWARE_START;
 391              		.loc 1 215 3 is_stmt 1 view .LVU101
 215:Core/Src/main.c ****   hadc2.Init.ExternalTrigConv = ADC_SOFTWARE_START;
 392              		.loc 1 215 35 is_stmt 0 view .LVU102
 393 0026 C362     		str	r3, [r0, #44]
 216:Core/Src/main.c ****   hadc2.Init.DataAlign = ADC_DATAALIGN_RIGHT;
 394              		.loc 1 216 3 is_stmt 1 view .LVU103
 216:Core/Src/main.c ****   hadc2.Init.DataAlign = ADC_DATAALIGN_RIGHT;
 395              		.loc 1 216 31 is_stmt 0 view .LVU104
 396 0028 8262     		str	r2, [r0, #40]
 217:Core/Src/main.c ****   hadc2.Init.NbrOfConversion = 1;
 397              		.loc 1 217 3 is_stmt 1 view .LVU105
 217:Core/Src/main.c ****   hadc2.Init.NbrOfConversion = 1;
 398              		.loc 1 217 24 is_stmt 0 view .LVU106
 399 002a C360     		str	r3, [r0, #12]
 218:Core/Src/main.c ****   hadc2.Init.DMAContinuousRequests = DISABLE;
 400              		.loc 1 218 3 is_stmt 1 view .LVU107
 218:Core/Src/main.c ****   hadc2.Init.DMAContinuousRequests = DISABLE;
 401              		.loc 1 218 30 is_stmt 0 view .LVU108
 402 002c C261     		str	r2, [r0, #28]
 219:Core/Src/main.c ****   hadc2.Init.EOCSelection = ADC_EOC_SINGLE_CONV;
 403              		.loc 1 219 3 is_stmt 1 view .LVU109
 219:Core/Src/main.c ****   hadc2.Init.EOCSelection = ADC_EOC_SINGLE_CONV;
 404              		.loc 1 219 36 is_stmt 0 view .LVU110
 405 002e 80F83030 		strb	r3, [r0, #48]
 220:Core/Src/main.c ****   hadc2.Init.LowPowerAutoWait = DISABLE;
 406              		.loc 1 220 3 is_stmt 1 view .LVU111
 220:Core/Src/main.c ****   hadc2.Init.LowPowerAutoWait = DISABLE;
 407              		.loc 1 220 27 is_stmt 0 view .LVU112
 408 0032 0422     		movs	r2, #4
 409 0034 4261     		str	r2, [r0, #20]
 221:Core/Src/main.c ****   hadc2.Init.Overrun = ADC_OVR_DATA_OVERWRITTEN;
 410              		.loc 1 221 3 is_stmt 1 view .LVU113
 221:Core/Src/main.c ****   hadc2.Init.Overrun = ADC_OVR_DATA_OVERWRITTEN;
 411              		.loc 1 221 31 is_stmt 0 view .LVU114
 412 0036 0376     		strb	r3, [r0, #24]
ARM GAS  C:\Users\jisu8\AppData\Local\Temp\ccbbtk2q.s 			page 23


 222:Core/Src/main.c ****   if (HAL_ADC_Init(&hadc2) != HAL_OK)
 413              		.loc 1 222 3 is_stmt 1 view .LVU115
 222:Core/Src/main.c ****   if (HAL_ADC_Init(&hadc2) != HAL_OK)
 414              		.loc 1 222 22 is_stmt 0 view .LVU116
 415 0038 4363     		str	r3, [r0, #52]
 223:Core/Src/main.c ****   {
 416              		.loc 1 223 3 is_stmt 1 view .LVU117
 223:Core/Src/main.c ****   {
 417              		.loc 1 223 7 is_stmt 0 view .LVU118
 418 003a FFF7FEFF 		bl	HAL_ADC_Init
 419              	.LVL15:
 223:Core/Src/main.c ****   {
 420              		.loc 1 223 6 view .LVU119
 421 003e 88B9     		cbnz	r0, .L15
 230:Core/Src/main.c ****   sConfig.Rank = ADC_REGULAR_RANK_1;
 422              		.loc 1 230 3 is_stmt 1 view .LVU120
 230:Core/Src/main.c ****   sConfig.Rank = ADC_REGULAR_RANK_1;
 423              		.loc 1 230 19 is_stmt 0 view .LVU121
 424 0040 0323     		movs	r3, #3
 425 0042 0093     		str	r3, [sp]
 231:Core/Src/main.c ****   sConfig.SingleDiff = ADC_SINGLE_ENDED;
 426              		.loc 1 231 3 is_stmt 1 view .LVU122
 231:Core/Src/main.c ****   sConfig.SingleDiff = ADC_SINGLE_ENDED;
 427              		.loc 1 231 16 is_stmt 0 view .LVU123
 428 0044 0123     		movs	r3, #1
 429 0046 0193     		str	r3, [sp, #4]
 232:Core/Src/main.c ****   sConfig.SamplingTime = ADC_SAMPLETIME_19CYCLES_5;
 430              		.loc 1 232 3 is_stmt 1 view .LVU124
 232:Core/Src/main.c ****   sConfig.SamplingTime = ADC_SAMPLETIME_19CYCLES_5;
 431              		.loc 1 232 22 is_stmt 0 view .LVU125
 432 0048 0023     		movs	r3, #0
 433 004a 0393     		str	r3, [sp, #12]
 233:Core/Src/main.c ****   sConfig.OffsetNumber = ADC_OFFSET_NONE;
 434              		.loc 1 233 3 is_stmt 1 view .LVU126
 233:Core/Src/main.c ****   sConfig.OffsetNumber = ADC_OFFSET_NONE;
 435              		.loc 1 233 24 is_stmt 0 view .LVU127
 436 004c 0422     		movs	r2, #4
 437 004e 0292     		str	r2, [sp, #8]
 234:Core/Src/main.c ****   sConfig.Offset = 0;
 438              		.loc 1 234 3 is_stmt 1 view .LVU128
 234:Core/Src/main.c ****   sConfig.Offset = 0;
 439              		.loc 1 234 24 is_stmt 0 view .LVU129
 440 0050 0493     		str	r3, [sp, #16]
 235:Core/Src/main.c ****   if (HAL_ADC_ConfigChannel(&hadc2, &sConfig) != HAL_OK)
 441              		.loc 1 235 3 is_stmt 1 view .LVU130
 235:Core/Src/main.c ****   if (HAL_ADC_ConfigChannel(&hadc2, &sConfig) != HAL_OK)
 442              		.loc 1 235 18 is_stmt 0 view .LVU131
 443 0052 0593     		str	r3, [sp, #20]
 236:Core/Src/main.c ****   {
 444              		.loc 1 236 3 is_stmt 1 view .LVU132
 236:Core/Src/main.c ****   {
 445              		.loc 1 236 7 is_stmt 0 view .LVU133
 446 0054 6946     		mov	r1, sp
 447 0056 0548     		ldr	r0, .L17
 448 0058 FFF7FEFF 		bl	HAL_ADC_ConfigChannel
 449              	.LVL16:
 236:Core/Src/main.c ****   {
ARM GAS  C:\Users\jisu8\AppData\Local\Temp\ccbbtk2q.s 			page 24


 450              		.loc 1 236 6 view .LVU134
 451 005c 20B9     		cbnz	r0, .L16
 244:Core/Src/main.c **** 
 452              		.loc 1 244 1 view .LVU135
 453 005e 07B0     		add	sp, sp, #28
 454              	.LCFI8:
 455              		.cfi_remember_state
 456              		.cfi_def_cfa_offset 4
 457              		@ sp needed
 458 0060 5DF804FB 		ldr	pc, [sp], #4
 459              	.L15:
 460              	.LCFI9:
 461              		.cfi_restore_state
 225:Core/Src/main.c ****   }
 462              		.loc 1 225 5 is_stmt 1 view .LVU136
 463 0064 FFF7FEFF 		bl	Error_Handler
 464              	.LVL17:
 465              	.L16:
 238:Core/Src/main.c ****   }
 466              		.loc 1 238 5 view .LVU137
 467 0068 FFF7FEFF 		bl	Error_Handler
 468              	.LVL18:
 469              	.L18:
 470              		.align	2
 471              	.L17:
 472 006c 00000000 		.word	.LANCHOR0
 473 0070 00010050 		.word	1342177536
 474              		.cfi_endproc
 475              	.LFE135:
 477              		.section	.text.MX_SPI2_Init,"ax",%progbits
 478              		.align	1
 479              		.syntax unified
 480              		.thumb
 481              		.thumb_func
 483              	MX_SPI2_Init:
 484              	.LFB137:
 315:Core/Src/main.c **** 
 485              		.loc 1 315 1 view -0
 486              		.cfi_startproc
 487              		@ args = 0, pretend = 0, frame = 0
 488              		@ frame_needed = 0, uses_anonymous_args = 0
 489 0000 08B5     		push	{r3, lr}
 490              	.LCFI10:
 491              		.cfi_def_cfa_offset 8
 492              		.cfi_offset 3, -8
 493              		.cfi_offset 14, -4
 325:Core/Src/main.c ****   hspi2.Init.Mode = SPI_MODE_MASTER;
 494              		.loc 1 325 3 view .LVU139
 325:Core/Src/main.c ****   hspi2.Init.Mode = SPI_MODE_MASTER;
 495              		.loc 1 325 18 is_stmt 0 view .LVU140
 496 0002 0F48     		ldr	r0, .L23
 497 0004 0F4B     		ldr	r3, .L23+4
 498 0006 0360     		str	r3, [r0]
 326:Core/Src/main.c ****   hspi2.Init.Direction = SPI_DIRECTION_2LINES;
 499              		.loc 1 326 3 is_stmt 1 view .LVU141
 326:Core/Src/main.c ****   hspi2.Init.Direction = SPI_DIRECTION_2LINES;
 500              		.loc 1 326 19 is_stmt 0 view .LVU142
ARM GAS  C:\Users\jisu8\AppData\Local\Temp\ccbbtk2q.s 			page 25


 501 0008 4FF48273 		mov	r3, #260
 502 000c 4360     		str	r3, [r0, #4]
 327:Core/Src/main.c ****   hspi2.Init.DataSize = SPI_DATASIZE_8BIT;
 503              		.loc 1 327 3 is_stmt 1 view .LVU143
 327:Core/Src/main.c ****   hspi2.Init.DataSize = SPI_DATASIZE_8BIT;
 504              		.loc 1 327 24 is_stmt 0 view .LVU144
 505 000e 0023     		movs	r3, #0
 506 0010 8360     		str	r3, [r0, #8]
 328:Core/Src/main.c ****   hspi2.Init.CLKPolarity = SPI_POLARITY_LOW;
 507              		.loc 1 328 3 is_stmt 1 view .LVU145
 328:Core/Src/main.c ****   hspi2.Init.CLKPolarity = SPI_POLARITY_LOW;
 508              		.loc 1 328 23 is_stmt 0 view .LVU146
 509 0012 4FF4E062 		mov	r2, #1792
 510 0016 C260     		str	r2, [r0, #12]
 329:Core/Src/main.c ****   hspi2.Init.CLKPhase = SPI_PHASE_1EDGE;
 511              		.loc 1 329 3 is_stmt 1 view .LVU147
 329:Core/Src/main.c ****   hspi2.Init.CLKPhase = SPI_PHASE_1EDGE;
 512              		.loc 1 329 26 is_stmt 0 view .LVU148
 513 0018 0361     		str	r3, [r0, #16]
 330:Core/Src/main.c ****   hspi2.Init.NSS = SPI_NSS_SOFT;
 514              		.loc 1 330 3 is_stmt 1 view .LVU149
 330:Core/Src/main.c ****   hspi2.Init.NSS = SPI_NSS_SOFT;
 515              		.loc 1 330 23 is_stmt 0 view .LVU150
 516 001a 4361     		str	r3, [r0, #20]
 331:Core/Src/main.c ****   hspi2.Init.BaudRatePrescaler = SPI_BAUDRATEPRESCALER_2;
 517              		.loc 1 331 3 is_stmt 1 view .LVU151
 331:Core/Src/main.c ****   hspi2.Init.BaudRatePrescaler = SPI_BAUDRATEPRESCALER_2;
 518              		.loc 1 331 18 is_stmt 0 view .LVU152
 519 001c 4FF40072 		mov	r2, #512
 520 0020 8261     		str	r2, [r0, #24]
 332:Core/Src/main.c ****   hspi2.Init.FirstBit = SPI_FIRSTBIT_MSB;
 521              		.loc 1 332 3 is_stmt 1 view .LVU153
 332:Core/Src/main.c ****   hspi2.Init.FirstBit = SPI_FIRSTBIT_MSB;
 522              		.loc 1 332 32 is_stmt 0 view .LVU154
 523 0022 C361     		str	r3, [r0, #28]
 333:Core/Src/main.c ****   hspi2.Init.TIMode = SPI_TIMODE_DISABLE;
 524              		.loc 1 333 3 is_stmt 1 view .LVU155
 333:Core/Src/main.c ****   hspi2.Init.TIMode = SPI_TIMODE_DISABLE;
 525              		.loc 1 333 23 is_stmt 0 view .LVU156
 526 0024 0362     		str	r3, [r0, #32]
 334:Core/Src/main.c ****   hspi2.Init.CRCCalculation = SPI_CRCCALCULATION_DISABLE;
 527              		.loc 1 334 3 is_stmt 1 view .LVU157
 334:Core/Src/main.c ****   hspi2.Init.CRCCalculation = SPI_CRCCALCULATION_DISABLE;
 528              		.loc 1 334 21 is_stmt 0 view .LVU158
 529 0026 4362     		str	r3, [r0, #36]
 335:Core/Src/main.c ****   hspi2.Init.CRCPolynomial = 7;
 530              		.loc 1 335 3 is_stmt 1 view .LVU159
 335:Core/Src/main.c ****   hspi2.Init.CRCPolynomial = 7;
 531              		.loc 1 335 29 is_stmt 0 view .LVU160
 532 0028 8362     		str	r3, [r0, #40]
 336:Core/Src/main.c ****   hspi2.Init.CRCLength = SPI_CRC_LENGTH_DATASIZE;
 533              		.loc 1 336 3 is_stmt 1 view .LVU161
 336:Core/Src/main.c ****   hspi2.Init.CRCLength = SPI_CRC_LENGTH_DATASIZE;
 534              		.loc 1 336 28 is_stmt 0 view .LVU162
 535 002a 0722     		movs	r2, #7
 536 002c C262     		str	r2, [r0, #44]
 337:Core/Src/main.c ****   hspi2.Init.NSSPMode = SPI_NSS_PULSE_ENABLE;
ARM GAS  C:\Users\jisu8\AppData\Local\Temp\ccbbtk2q.s 			page 26


 537              		.loc 1 337 3 is_stmt 1 view .LVU163
 337:Core/Src/main.c ****   hspi2.Init.NSSPMode = SPI_NSS_PULSE_ENABLE;
 538              		.loc 1 337 24 is_stmt 0 view .LVU164
 539 002e 0363     		str	r3, [r0, #48]
 338:Core/Src/main.c ****   if (HAL_SPI_Init(&hspi2) != HAL_OK)
 540              		.loc 1 338 3 is_stmt 1 view .LVU165
 338:Core/Src/main.c ****   if (HAL_SPI_Init(&hspi2) != HAL_OK)
 541              		.loc 1 338 23 is_stmt 0 view .LVU166
 542 0030 0823     		movs	r3, #8
 543 0032 4363     		str	r3, [r0, #52]
 339:Core/Src/main.c ****   {
 544              		.loc 1 339 3 is_stmt 1 view .LVU167
 339:Core/Src/main.c ****   {
 545              		.loc 1 339 7 is_stmt 0 view .LVU168
 546 0034 FFF7FEFF 		bl	HAL_SPI_Init
 547              	.LVL19:
 339:Core/Src/main.c ****   {
 548              		.loc 1 339 6 view .LVU169
 549 0038 00B9     		cbnz	r0, .L22
 347:Core/Src/main.c **** 
 550              		.loc 1 347 1 view .LVU170
 551 003a 08BD     		pop	{r3, pc}
 552              	.L22:
 341:Core/Src/main.c ****   }
 553              		.loc 1 341 5 is_stmt 1 view .LVU171
 554 003c FFF7FEFF 		bl	Error_Handler
 555              	.LVL20:
 556              	.L24:
 557              		.align	2
 558              	.L23:
 559 0040 00000000 		.word	.LANCHOR1
 560 0044 00380040 		.word	1073756160
 561              		.cfi_endproc
 562              	.LFE137:
 564              		.section	.text.MX_USART1_UART_Init,"ax",%progbits
 565              		.align	1
 566              		.syntax unified
 567              		.thumb
 568              		.thumb_func
 570              	MX_USART1_UART_Init:
 571              	.LFB141:
 468:Core/Src/main.c **** 
 572              		.loc 1 468 1 view -0
 573              		.cfi_startproc
 574              		@ args = 0, pretend = 0, frame = 0
 575              		@ frame_needed = 0, uses_anonymous_args = 0
 576 0000 08B5     		push	{r3, lr}
 577              	.LCFI11:
 578              		.cfi_def_cfa_offset 8
 579              		.cfi_offset 3, -8
 580              		.cfi_offset 14, -4
 477:Core/Src/main.c ****   huart1.Init.BaudRate = 115200;
 581              		.loc 1 477 3 view .LVU173
 477:Core/Src/main.c ****   huart1.Init.BaudRate = 115200;
 582              		.loc 1 477 19 is_stmt 0 view .LVU174
 583 0002 0B48     		ldr	r0, .L29
 584 0004 0B4B     		ldr	r3, .L29+4
ARM GAS  C:\Users\jisu8\AppData\Local\Temp\ccbbtk2q.s 			page 27


 585 0006 0360     		str	r3, [r0]
 478:Core/Src/main.c ****   huart1.Init.WordLength = UART_WORDLENGTH_8B;
 586              		.loc 1 478 3 is_stmt 1 view .LVU175
 478:Core/Src/main.c ****   huart1.Init.WordLength = UART_WORDLENGTH_8B;
 587              		.loc 1 478 24 is_stmt 0 view .LVU176
 588 0008 4FF4E133 		mov	r3, #115200
 589 000c 4360     		str	r3, [r0, #4]
 479:Core/Src/main.c ****   huart1.Init.StopBits = UART_STOPBITS_1;
 590              		.loc 1 479 3 is_stmt 1 view .LVU177
 479:Core/Src/main.c ****   huart1.Init.StopBits = UART_STOPBITS_1;
 591              		.loc 1 479 26 is_stmt 0 view .LVU178
 592 000e 0023     		movs	r3, #0
 593 0010 8360     		str	r3, [r0, #8]
 480:Core/Src/main.c ****   huart1.Init.Parity = UART_PARITY_NONE;
 594              		.loc 1 480 3 is_stmt 1 view .LVU179
 480:Core/Src/main.c ****   huart1.Init.Parity = UART_PARITY_NONE;
 595              		.loc 1 480 24 is_stmt 0 view .LVU180
 596 0012 C360     		str	r3, [r0, #12]
 481:Core/Src/main.c ****   huart1.Init.Mode = UART_MODE_TX_RX;
 597              		.loc 1 481 3 is_stmt 1 view .LVU181
 481:Core/Src/main.c ****   huart1.Init.Mode = UART_MODE_TX_RX;
 598              		.loc 1 481 22 is_stmt 0 view .LVU182
 599 0014 0361     		str	r3, [r0, #16]
 482:Core/Src/main.c ****   huart1.Init.HwFlowCtl = UART_HWCONTROL_NONE;
 600              		.loc 1 482 3 is_stmt 1 view .LVU183
 482:Core/Src/main.c ****   huart1.Init.HwFlowCtl = UART_HWCONTROL_NONE;
 601              		.loc 1 482 20 is_stmt 0 view .LVU184
 602 0016 0C22     		movs	r2, #12
 603 0018 4261     		str	r2, [r0, #20]
 483:Core/Src/main.c ****   huart1.Init.OverSampling = UART_OVERSAMPLING_16;
 604              		.loc 1 483 3 is_stmt 1 view .LVU185
 483:Core/Src/main.c ****   huart1.Init.OverSampling = UART_OVERSAMPLING_16;
 605              		.loc 1 483 25 is_stmt 0 view .LVU186
 606 001a 8361     		str	r3, [r0, #24]
 484:Core/Src/main.c ****   huart1.Init.OneBitSampling = UART_ONE_BIT_SAMPLE_DISABLE;
 607              		.loc 1 484 3 is_stmt 1 view .LVU187
 484:Core/Src/main.c ****   huart1.Init.OneBitSampling = UART_ONE_BIT_SAMPLE_DISABLE;
 608              		.loc 1 484 28 is_stmt 0 view .LVU188
 609 001c C361     		str	r3, [r0, #28]
 485:Core/Src/main.c ****   huart1.AdvancedInit.AdvFeatureInit = UART_ADVFEATURE_NO_INIT;
 610              		.loc 1 485 3 is_stmt 1 view .LVU189
 485:Core/Src/main.c ****   huart1.AdvancedInit.AdvFeatureInit = UART_ADVFEATURE_NO_INIT;
 611              		.loc 1 485 30 is_stmt 0 view .LVU190
 612 001e 0362     		str	r3, [r0, #32]
 486:Core/Src/main.c ****   if (HAL_UART_Init(&huart1) != HAL_OK)
 613              		.loc 1 486 3 is_stmt 1 view .LVU191
 486:Core/Src/main.c ****   if (HAL_UART_Init(&huart1) != HAL_OK)
 614              		.loc 1 486 38 is_stmt 0 view .LVU192
 615 0020 4362     		str	r3, [r0, #36]
 487:Core/Src/main.c ****   {
 616              		.loc 1 487 3 is_stmt 1 view .LVU193
 487:Core/Src/main.c ****   {
 617              		.loc 1 487 7 is_stmt 0 view .LVU194
 618 0022 FFF7FEFF 		bl	HAL_UART_Init
 619              	.LVL21:
 487:Core/Src/main.c ****   {
 620              		.loc 1 487 6 view .LVU195
ARM GAS  C:\Users\jisu8\AppData\Local\Temp\ccbbtk2q.s 			page 28


 621 0026 00B9     		cbnz	r0, .L28
 495:Core/Src/main.c **** 
 622              		.loc 1 495 1 view .LVU196
 623 0028 08BD     		pop	{r3, pc}
 624              	.L28:
 489:Core/Src/main.c ****   }
 625              		.loc 1 489 5 is_stmt 1 view .LVU197
 626 002a FFF7FEFF 		bl	Error_Handler
 627              	.LVL22:
 628              	.L30:
 629 002e 00BF     		.align	2
 630              	.L29:
 631 0030 00000000 		.word	.LANCHOR2
 632 0034 00380140 		.word	1073821696
 633              		.cfi_endproc
 634              	.LFE141:
 636              		.section	.text.MX_USART2_UART_Init,"ax",%progbits
 637              		.align	1
 638              		.syntax unified
 639              		.thumb
 640              		.thumb_func
 642              	MX_USART2_UART_Init:
 643              	.LFB142:
 503:Core/Src/main.c **** 
 644              		.loc 1 503 1 view -0
 645              		.cfi_startproc
 646              		@ args = 0, pretend = 0, frame = 0
 647              		@ frame_needed = 0, uses_anonymous_args = 0
 648 0000 08B5     		push	{r3, lr}
 649              	.LCFI12:
 650              		.cfi_def_cfa_offset 8
 651              		.cfi_offset 3, -8
 652              		.cfi_offset 14, -4
 512:Core/Src/main.c ****   huart2.Init.BaudRate = 115200;
 653              		.loc 1 512 3 view .LVU199
 512:Core/Src/main.c ****   huart2.Init.BaudRate = 115200;
 654              		.loc 1 512 19 is_stmt 0 view .LVU200
 655 0002 0B48     		ldr	r0, .L35
 656 0004 0B4B     		ldr	r3, .L35+4
 657 0006 0360     		str	r3, [r0]
 513:Core/Src/main.c ****   huart2.Init.WordLength = UART_WORDLENGTH_8B;
 658              		.loc 1 513 3 is_stmt 1 view .LVU201
 513:Core/Src/main.c ****   huart2.Init.WordLength = UART_WORDLENGTH_8B;
 659              		.loc 1 513 24 is_stmt 0 view .LVU202
 660 0008 4FF4E133 		mov	r3, #115200
 661 000c 4360     		str	r3, [r0, #4]
 514:Core/Src/main.c ****   huart2.Init.StopBits = UART_STOPBITS_1;
 662              		.loc 1 514 3 is_stmt 1 view .LVU203
 514:Core/Src/main.c ****   huart2.Init.StopBits = UART_STOPBITS_1;
 663              		.loc 1 514 26 is_stmt 0 view .LVU204
 664 000e 0023     		movs	r3, #0
 665 0010 8360     		str	r3, [r0, #8]
 515:Core/Src/main.c ****   huart2.Init.Parity = UART_PARITY_NONE;
 666              		.loc 1 515 3 is_stmt 1 view .LVU205
 515:Core/Src/main.c ****   huart2.Init.Parity = UART_PARITY_NONE;
 667              		.loc 1 515 24 is_stmt 0 view .LVU206
 668 0012 C360     		str	r3, [r0, #12]
ARM GAS  C:\Users\jisu8\AppData\Local\Temp\ccbbtk2q.s 			page 29


 516:Core/Src/main.c ****   huart2.Init.Mode = UART_MODE_TX_RX;
 669              		.loc 1 516 3 is_stmt 1 view .LVU207
 516:Core/Src/main.c ****   huart2.Init.Mode = UART_MODE_TX_RX;
 670              		.loc 1 516 22 is_stmt 0 view .LVU208
 671 0014 0361     		str	r3, [r0, #16]
 517:Core/Src/main.c ****   huart2.Init.HwFlowCtl = UART_HWCONTROL_NONE;
 672              		.loc 1 517 3 is_stmt 1 view .LVU209
 517:Core/Src/main.c ****   huart2.Init.HwFlowCtl = UART_HWCONTROL_NONE;
 673              		.loc 1 517 20 is_stmt 0 view .LVU210
 674 0016 0C22     		movs	r2, #12
 675 0018 4261     		str	r2, [r0, #20]
 518:Core/Src/main.c ****   huart2.Init.OverSampling = UART_OVERSAMPLING_16;
 676              		.loc 1 518 3 is_stmt 1 view .LVU211
 518:Core/Src/main.c ****   huart2.Init.OverSampling = UART_OVERSAMPLING_16;
 677              		.loc 1 518 25 is_stmt 0 view .LVU212
 678 001a 8361     		str	r3, [r0, #24]
 519:Core/Src/main.c ****   huart2.Init.OneBitSampling = UART_ONE_BIT_SAMPLE_DISABLE;
 679              		.loc 1 519 3 is_stmt 1 view .LVU213
 519:Core/Src/main.c ****   huart2.Init.OneBitSampling = UART_ONE_BIT_SAMPLE_DISABLE;
 680              		.loc 1 519 28 is_stmt 0 view .LVU214
 681 001c C361     		str	r3, [r0, #28]
 520:Core/Src/main.c ****   huart2.AdvancedInit.AdvFeatureInit = UART_ADVFEATURE_NO_INIT;
 682              		.loc 1 520 3 is_stmt 1 view .LVU215
 520:Core/Src/main.c ****   huart2.AdvancedInit.AdvFeatureInit = UART_ADVFEATURE_NO_INIT;
 683              		.loc 1 520 30 is_stmt 0 view .LVU216
 684 001e 0362     		str	r3, [r0, #32]
 521:Core/Src/main.c ****   if (HAL_UART_Init(&huart2) != HAL_OK)
 685              		.loc 1 521 3 is_stmt 1 view .LVU217
 521:Core/Src/main.c ****   if (HAL_UART_Init(&huart2) != HAL_OK)
 686              		.loc 1 521 38 is_stmt 0 view .LVU218
 687 0020 4362     		str	r3, [r0, #36]
 522:Core/Src/main.c ****   {
 688              		.loc 1 522 3 is_stmt 1 view .LVU219
 522:Core/Src/main.c ****   {
 689              		.loc 1 522 7 is_stmt 0 view .LVU220
 690 0022 FFF7FEFF 		bl	HAL_UART_Init
 691              	.LVL23:
 522:Core/Src/main.c ****   {
 692              		.loc 1 522 6 view .LVU221
 693 0026 00B9     		cbnz	r0, .L34
 530:Core/Src/main.c **** 
 694              		.loc 1 530 1 view .LVU222
 695 0028 08BD     		pop	{r3, pc}
 696              	.L34:
 524:Core/Src/main.c ****   }
 697              		.loc 1 524 5 is_stmt 1 view .LVU223
 698 002a FFF7FEFF 		bl	Error_Handler
 699              	.LVL24:
 700              	.L36:
 701 002e 00BF     		.align	2
 702              	.L35:
 703 0030 00000000 		.word	.LANCHOR3
 704 0034 00440040 		.word	1073759232
 705              		.cfi_endproc
 706              	.LFE142:
 708              		.section	.text.MX_USART3_UART_Init,"ax",%progbits
 709              		.align	1
ARM GAS  C:\Users\jisu8\AppData\Local\Temp\ccbbtk2q.s 			page 30


 710              		.syntax unified
 711              		.thumb
 712              		.thumb_func
 714              	MX_USART3_UART_Init:
 715              	.LFB143:
 538:Core/Src/main.c **** 
 716              		.loc 1 538 1 view -0
 717              		.cfi_startproc
 718              		@ args = 0, pretend = 0, frame = 0
 719              		@ frame_needed = 0, uses_anonymous_args = 0
 720 0000 08B5     		push	{r3, lr}
 721              	.LCFI13:
 722              		.cfi_def_cfa_offset 8
 723              		.cfi_offset 3, -8
 724              		.cfi_offset 14, -4
 547:Core/Src/main.c ****   huart3.Init.BaudRate = 115200;
 725              		.loc 1 547 3 view .LVU225
 547:Core/Src/main.c ****   huart3.Init.BaudRate = 115200;
 726              		.loc 1 547 19 is_stmt 0 view .LVU226
 727 0002 0B48     		ldr	r0, .L41
 728 0004 0B4B     		ldr	r3, .L41+4
 729 0006 0360     		str	r3, [r0]
 548:Core/Src/main.c ****   huart3.Init.WordLength = UART_WORDLENGTH_8B;
 730              		.loc 1 548 3 is_stmt 1 view .LVU227
 548:Core/Src/main.c ****   huart3.Init.WordLength = UART_WORDLENGTH_8B;
 731              		.loc 1 548 24 is_stmt 0 view .LVU228
 732 0008 4FF4E133 		mov	r3, #115200
 733 000c 4360     		str	r3, [r0, #4]
 549:Core/Src/main.c ****   huart3.Init.StopBits = UART_STOPBITS_1;
 734              		.loc 1 549 3 is_stmt 1 view .LVU229
 549:Core/Src/main.c ****   huart3.Init.StopBits = UART_STOPBITS_1;
 735              		.loc 1 549 26 is_stmt 0 view .LVU230
 736 000e 0023     		movs	r3, #0
 737 0010 8360     		str	r3, [r0, #8]
 550:Core/Src/main.c ****   huart3.Init.Parity = UART_PARITY_NONE;
 738              		.loc 1 550 3 is_stmt 1 view .LVU231
 550:Core/Src/main.c ****   huart3.Init.Parity = UART_PARITY_NONE;
 739              		.loc 1 550 24 is_stmt 0 view .LVU232
 740 0012 C360     		str	r3, [r0, #12]
 551:Core/Src/main.c ****   huart3.Init.Mode = UART_MODE_TX_RX;
 741              		.loc 1 551 3 is_stmt 1 view .LVU233
 551:Core/Src/main.c ****   huart3.Init.Mode = UART_MODE_TX_RX;
 742              		.loc 1 551 22 is_stmt 0 view .LVU234
 743 0014 0361     		str	r3, [r0, #16]
 552:Core/Src/main.c ****   huart3.Init.HwFlowCtl = UART_HWCONTROL_NONE;
 744              		.loc 1 552 3 is_stmt 1 view .LVU235
 552:Core/Src/main.c ****   huart3.Init.HwFlowCtl = UART_HWCONTROL_NONE;
 745              		.loc 1 552 20 is_stmt 0 view .LVU236
 746 0016 0C22     		movs	r2, #12
 747 0018 4261     		str	r2, [r0, #20]
 553:Core/Src/main.c ****   huart3.Init.OverSampling = UART_OVERSAMPLING_16;
 748              		.loc 1 553 3 is_stmt 1 view .LVU237
 553:Core/Src/main.c ****   huart3.Init.OverSampling = UART_OVERSAMPLING_16;
 749              		.loc 1 553 25 is_stmt 0 view .LVU238
 750 001a 8361     		str	r3, [r0, #24]
 554:Core/Src/main.c ****   huart3.Init.OneBitSampling = UART_ONE_BIT_SAMPLE_DISABLE;
 751              		.loc 1 554 3 is_stmt 1 view .LVU239
ARM GAS  C:\Users\jisu8\AppData\Local\Temp\ccbbtk2q.s 			page 31


 554:Core/Src/main.c ****   huart3.Init.OneBitSampling = UART_ONE_BIT_SAMPLE_DISABLE;
 752              		.loc 1 554 28 is_stmt 0 view .LVU240
 753 001c C361     		str	r3, [r0, #28]
 555:Core/Src/main.c ****   huart3.AdvancedInit.AdvFeatureInit = UART_ADVFEATURE_NO_INIT;
 754              		.loc 1 555 3 is_stmt 1 view .LVU241
 555:Core/Src/main.c ****   huart3.AdvancedInit.AdvFeatureInit = UART_ADVFEATURE_NO_INIT;
 755              		.loc 1 555 30 is_stmt 0 view .LVU242
 756 001e 0362     		str	r3, [r0, #32]
 556:Core/Src/main.c ****   if (HAL_UART_Init(&huart3) != HAL_OK)
 757              		.loc 1 556 3 is_stmt 1 view .LVU243
 556:Core/Src/main.c ****   if (HAL_UART_Init(&huart3) != HAL_OK)
 758              		.loc 1 556 38 is_stmt 0 view .LVU244
 759 0020 4362     		str	r3, [r0, #36]
 557:Core/Src/main.c ****   {
 760              		.loc 1 557 3 is_stmt 1 view .LVU245
 557:Core/Src/main.c ****   {
 761              		.loc 1 557 7 is_stmt 0 view .LVU246
 762 0022 FFF7FEFF 		bl	HAL_UART_Init
 763              	.LVL25:
 557:Core/Src/main.c ****   {
 764              		.loc 1 557 6 view .LVU247
 765 0026 00B9     		cbnz	r0, .L40
 565:Core/Src/main.c **** 
 766              		.loc 1 565 1 view .LVU248
 767 0028 08BD     		pop	{r3, pc}
 768              	.L40:
 559:Core/Src/main.c ****   }
 769              		.loc 1 559 5 is_stmt 1 view .LVU249
 770 002a FFF7FEFF 		bl	Error_Handler
 771              	.LVL26:
 772              	.L42:
 773 002e 00BF     		.align	2
 774              	.L41:
 775 0030 00000000 		.word	.LANCHOR4
 776 0034 00480040 		.word	1073760256
 777              		.cfi_endproc
 778              	.LFE143:
 780              		.section	.text.MX_TIM3_Init,"ax",%progbits
 781              		.align	1
 782              		.syntax unified
 783              		.thumb
 784              		.thumb_func
 786              	MX_TIM3_Init:
 787              	.LFB138:
 355:Core/Src/main.c **** 
 788              		.loc 1 355 1 view -0
 789              		.cfi_startproc
 790              		@ args = 0, pretend = 0, frame = 40
 791              		@ frame_needed = 0, uses_anonymous_args = 0
 792 0000 00B5     		push	{lr}
 793              	.LCFI14:
 794              		.cfi_def_cfa_offset 4
 795              		.cfi_offset 14, -4
 796 0002 8BB0     		sub	sp, sp, #44
 797              	.LCFI15:
 798              		.cfi_def_cfa_offset 48
 361:Core/Src/main.c ****   TIM_OC_InitTypeDef sConfigOC = {0};
ARM GAS  C:\Users\jisu8\AppData\Local\Temp\ccbbtk2q.s 			page 32


 799              		.loc 1 361 3 view .LVU251
 361:Core/Src/main.c ****   TIM_OC_InitTypeDef sConfigOC = {0};
 800              		.loc 1 361 27 is_stmt 0 view .LVU252
 801 0004 0023     		movs	r3, #0
 802 0006 0793     		str	r3, [sp, #28]
 803 0008 0893     		str	r3, [sp, #32]
 804 000a 0993     		str	r3, [sp, #36]
 362:Core/Src/main.c **** 
 805              		.loc 1 362 3 is_stmt 1 view .LVU253
 362:Core/Src/main.c **** 
 806              		.loc 1 362 22 is_stmt 0 view .LVU254
 807 000c 0093     		str	r3, [sp]
 808 000e 0193     		str	r3, [sp, #4]
 809 0010 0293     		str	r3, [sp, #8]
 810 0012 0393     		str	r3, [sp, #12]
 811 0014 0493     		str	r3, [sp, #16]
 812 0016 0593     		str	r3, [sp, #20]
 813 0018 0693     		str	r3, [sp, #24]
 367:Core/Src/main.c ****   htim3.Init.Prescaler = 71;
 814              		.loc 1 367 3 is_stmt 1 view .LVU255
 367:Core/Src/main.c ****   htim3.Init.Prescaler = 71;
 815              		.loc 1 367 18 is_stmt 0 view .LVU256
 816 001a 1748     		ldr	r0, .L51
 817 001c 174A     		ldr	r2, .L51+4
 818 001e 0260     		str	r2, [r0]
 368:Core/Src/main.c ****   htim3.Init.CounterMode = TIM_COUNTERMODE_UP;
 819              		.loc 1 368 3 is_stmt 1 view .LVU257
 368:Core/Src/main.c ****   htim3.Init.CounterMode = TIM_COUNTERMODE_UP;
 820              		.loc 1 368 24 is_stmt 0 view .LVU258
 821 0020 4722     		movs	r2, #71
 822 0022 4260     		str	r2, [r0, #4]
 369:Core/Src/main.c ****   htim3.Init.Period = 300;
 823              		.loc 1 369 3 is_stmt 1 view .LVU259
 369:Core/Src/main.c ****   htim3.Init.Period = 300;
 824              		.loc 1 369 26 is_stmt 0 view .LVU260
 825 0024 8360     		str	r3, [r0, #8]
 370:Core/Src/main.c ****   htim3.Init.ClockDivision = TIM_CLOCKDIVISION_DIV1;
 826              		.loc 1 370 3 is_stmt 1 view .LVU261
 370:Core/Src/main.c ****   htim3.Init.ClockDivision = TIM_CLOCKDIVISION_DIV1;
 827              		.loc 1 370 21 is_stmt 0 view .LVU262
 828 0026 4FF49672 		mov	r2, #300
 829 002a C260     		str	r2, [r0, #12]
 371:Core/Src/main.c ****   htim3.Init.AutoReloadPreload = TIM_AUTORELOAD_PRELOAD_DISABLE;
 830              		.loc 1 371 3 is_stmt 1 view .LVU263
 371:Core/Src/main.c ****   htim3.Init.AutoReloadPreload = TIM_AUTORELOAD_PRELOAD_DISABLE;
 831              		.loc 1 371 28 is_stmt 0 view .LVU264
 832 002c 0361     		str	r3, [r0, #16]
 372:Core/Src/main.c ****   if (HAL_TIM_PWM_Init(&htim3) != HAL_OK)
 833              		.loc 1 372 3 is_stmt 1 view .LVU265
 372:Core/Src/main.c ****   if (HAL_TIM_PWM_Init(&htim3) != HAL_OK)
 834              		.loc 1 372 32 is_stmt 0 view .LVU266
 835 002e 8361     		str	r3, [r0, #24]
 373:Core/Src/main.c ****   {
 836              		.loc 1 373 3 is_stmt 1 view .LVU267
 373:Core/Src/main.c ****   {
 837              		.loc 1 373 7 is_stmt 0 view .LVU268
 838 0030 FFF7FEFF 		bl	HAL_TIM_PWM_Init
ARM GAS  C:\Users\jisu8\AppData\Local\Temp\ccbbtk2q.s 			page 33


 839              	.LVL27:
 373:Core/Src/main.c ****   {
 840              		.loc 1 373 6 view .LVU269
 841 0034 C8B9     		cbnz	r0, .L48
 377:Core/Src/main.c ****   sMasterConfig.MasterSlaveMode = TIM_MASTERSLAVEMODE_DISABLE;
 842              		.loc 1 377 3 is_stmt 1 view .LVU270
 377:Core/Src/main.c ****   sMasterConfig.MasterSlaveMode = TIM_MASTERSLAVEMODE_DISABLE;
 843              		.loc 1 377 37 is_stmt 0 view .LVU271
 844 0036 0023     		movs	r3, #0
 845 0038 0793     		str	r3, [sp, #28]
 378:Core/Src/main.c ****   if (HAL_TIMEx_MasterConfigSynchronization(&htim3, &sMasterConfig) != HAL_OK)
 846              		.loc 1 378 3 is_stmt 1 view .LVU272
 378:Core/Src/main.c ****   if (HAL_TIMEx_MasterConfigSynchronization(&htim3, &sMasterConfig) != HAL_OK)
 847              		.loc 1 378 33 is_stmt 0 view .LVU273
 848 003a 0993     		str	r3, [sp, #36]
 379:Core/Src/main.c ****   {
 849              		.loc 1 379 3 is_stmt 1 view .LVU274
 379:Core/Src/main.c ****   {
 850              		.loc 1 379 7 is_stmt 0 view .LVU275
 851 003c 07A9     		add	r1, sp, #28
 852 003e 0E48     		ldr	r0, .L51
 853 0040 FFF7FEFF 		bl	HAL_TIMEx_MasterConfigSynchronization
 854              	.LVL28:
 379:Core/Src/main.c ****   {
 855              		.loc 1 379 6 view .LVU276
 856 0044 98B9     		cbnz	r0, .L49
 383:Core/Src/main.c ****   sConfigOC.Pulse = 0;
 857              		.loc 1 383 3 is_stmt 1 view .LVU277
 383:Core/Src/main.c ****   sConfigOC.Pulse = 0;
 858              		.loc 1 383 20 is_stmt 0 view .LVU278
 859 0046 6023     		movs	r3, #96
 860 0048 0093     		str	r3, [sp]
 384:Core/Src/main.c ****   sConfigOC.OCPolarity = TIM_OCPOLARITY_HIGH;
 861              		.loc 1 384 3 is_stmt 1 view .LVU279
 384:Core/Src/main.c ****   sConfigOC.OCPolarity = TIM_OCPOLARITY_HIGH;
 862              		.loc 1 384 19 is_stmt 0 view .LVU280
 863 004a 0023     		movs	r3, #0
 864 004c 0193     		str	r3, [sp, #4]
 385:Core/Src/main.c ****   sConfigOC.OCFastMode = TIM_OCFAST_DISABLE;
 865              		.loc 1 385 3 is_stmt 1 view .LVU281
 385:Core/Src/main.c ****   sConfigOC.OCFastMode = TIM_OCFAST_DISABLE;
 866              		.loc 1 385 24 is_stmt 0 view .LVU282
 867 004e 0293     		str	r3, [sp, #8]
 386:Core/Src/main.c ****   if (HAL_TIM_PWM_ConfigChannel(&htim3, &sConfigOC, TIM_CHANNEL_3) != HAL_OK)
 868              		.loc 1 386 3 is_stmt 1 view .LVU283
 386:Core/Src/main.c ****   if (HAL_TIM_PWM_ConfigChannel(&htim3, &sConfigOC, TIM_CHANNEL_3) != HAL_OK)
 869              		.loc 1 386 24 is_stmt 0 view .LVU284
 870 0050 0493     		str	r3, [sp, #16]
 387:Core/Src/main.c ****   {
 871              		.loc 1 387 3 is_stmt 1 view .LVU285
 387:Core/Src/main.c ****   {
 872              		.loc 1 387 7 is_stmt 0 view .LVU286
 873 0052 0822     		movs	r2, #8
 874 0054 6946     		mov	r1, sp
 875 0056 0848     		ldr	r0, .L51
 876 0058 FFF7FEFF 		bl	HAL_TIM_PWM_ConfigChannel
 877              	.LVL29:
ARM GAS  C:\Users\jisu8\AppData\Local\Temp\ccbbtk2q.s 			page 34


 387:Core/Src/main.c ****   {
 878              		.loc 1 387 6 view .LVU287
 879 005c 48B9     		cbnz	r0, .L50
 394:Core/Src/main.c **** 
 880              		.loc 1 394 3 is_stmt 1 view .LVU288
 881 005e 0648     		ldr	r0, .L51
 882 0060 FFF7FEFF 		bl	HAL_TIM_MspPostInit
 883              	.LVL30:
 396:Core/Src/main.c **** 
 884              		.loc 1 396 1 is_stmt 0 view .LVU289
 885 0064 0BB0     		add	sp, sp, #44
 886              	.LCFI16:
 887              		.cfi_remember_state
 888              		.cfi_def_cfa_offset 4
 889              		@ sp needed
 890 0066 5DF804FB 		ldr	pc, [sp], #4
 891              	.L48:
 892              	.LCFI17:
 893              		.cfi_restore_state
 375:Core/Src/main.c ****   }
 894              		.loc 1 375 5 is_stmt 1 view .LVU290
 895 006a FFF7FEFF 		bl	Error_Handler
 896              	.LVL31:
 897              	.L49:
 381:Core/Src/main.c ****   }
 898              		.loc 1 381 5 view .LVU291
 899 006e FFF7FEFF 		bl	Error_Handler
 900              	.LVL32:
 901              	.L50:
 389:Core/Src/main.c ****   }
 902              		.loc 1 389 5 view .LVU292
 903 0072 FFF7FEFF 		bl	Error_Handler
 904              	.LVL33:
 905              	.L52:
 906 0076 00BF     		.align	2
 907              	.L51:
 908 0078 00000000 		.word	.LANCHOR5
 909 007c 00040040 		.word	1073742848
 910              		.cfi_endproc
 911              	.LFE138:
 913              		.section	.text.MX_RTC_Init,"ax",%progbits
 914              		.align	1
 915              		.syntax unified
 916              		.thumb
 917              		.thumb_func
 919              	MX_RTC_Init:
 920              	.LFB136:
 252:Core/Src/main.c **** 
 921              		.loc 1 252 1 view -0
 922              		.cfi_startproc
 923              		@ args = 0, pretend = 0, frame = 24
 924              		@ frame_needed = 0, uses_anonymous_args = 0
 925 0000 00B5     		push	{lr}
 926              	.LCFI18:
 927              		.cfi_def_cfa_offset 4
 928              		.cfi_offset 14, -4
 929 0002 87B0     		sub	sp, sp, #28
ARM GAS  C:\Users\jisu8\AppData\Local\Temp\ccbbtk2q.s 			page 35


 930              	.LCFI19:
 931              		.cfi_def_cfa_offset 32
 258:Core/Src/main.c ****   RTC_DateTypeDef sDate = {0};
 932              		.loc 1 258 3 view .LVU294
 258:Core/Src/main.c ****   RTC_DateTypeDef sDate = {0};
 933              		.loc 1 258 19 is_stmt 0 view .LVU295
 934 0004 0023     		movs	r3, #0
 935 0006 0193     		str	r3, [sp, #4]
 936 0008 0293     		str	r3, [sp, #8]
 937 000a 0393     		str	r3, [sp, #12]
 938 000c 0493     		str	r3, [sp, #16]
 939 000e 0593     		str	r3, [sp, #20]
 259:Core/Src/main.c **** 
 940              		.loc 1 259 3 is_stmt 1 view .LVU296
 259:Core/Src/main.c **** 
 941              		.loc 1 259 19 is_stmt 0 view .LVU297
 942 0010 0093     		str	r3, [sp]
 267:Core/Src/main.c ****   hrtc.Init.HourFormat = RTC_HOURFORMAT_24;
 943              		.loc 1 267 3 is_stmt 1 view .LVU298
 267:Core/Src/main.c ****   hrtc.Init.HourFormat = RTC_HOURFORMAT_24;
 944              		.loc 1 267 17 is_stmt 0 view .LVU299
 945 0012 1C48     		ldr	r0, .L61
 946 0014 1C4A     		ldr	r2, .L61+4
 947 0016 0260     		str	r2, [r0]
 268:Core/Src/main.c ****   hrtc.Init.AsynchPrediv = 127;
 948              		.loc 1 268 3 is_stmt 1 view .LVU300
 268:Core/Src/main.c ****   hrtc.Init.AsynchPrediv = 127;
 949              		.loc 1 268 24 is_stmt 0 view .LVU301
 950 0018 4360     		str	r3, [r0, #4]
 269:Core/Src/main.c ****   hrtc.Init.SynchPrediv = 255;
 951              		.loc 1 269 3 is_stmt 1 view .LVU302
 269:Core/Src/main.c ****   hrtc.Init.SynchPrediv = 255;
 952              		.loc 1 269 26 is_stmt 0 view .LVU303
 953 001a 7F22     		movs	r2, #127
 954 001c 8260     		str	r2, [r0, #8]
 270:Core/Src/main.c ****   hrtc.Init.OutPut = RTC_OUTPUT_DISABLE;
 955              		.loc 1 270 3 is_stmt 1 view .LVU304
 270:Core/Src/main.c ****   hrtc.Init.OutPut = RTC_OUTPUT_DISABLE;
 956              		.loc 1 270 25 is_stmt 0 view .LVU305
 957 001e FF22     		movs	r2, #255
 958 0020 C260     		str	r2, [r0, #12]
 271:Core/Src/main.c ****   hrtc.Init.OutPutPolarity = RTC_OUTPUT_POLARITY_HIGH;
 959              		.loc 1 271 3 is_stmt 1 view .LVU306
 271:Core/Src/main.c ****   hrtc.Init.OutPutPolarity = RTC_OUTPUT_POLARITY_HIGH;
 960              		.loc 1 271 20 is_stmt 0 view .LVU307
 961 0022 0361     		str	r3, [r0, #16]
 272:Core/Src/main.c ****   hrtc.Init.OutPutType = RTC_OUTPUT_TYPE_OPENDRAIN;
 962              		.loc 1 272 3 is_stmt 1 view .LVU308
 272:Core/Src/main.c ****   hrtc.Init.OutPutType = RTC_OUTPUT_TYPE_OPENDRAIN;
 963              		.loc 1 272 28 is_stmt 0 view .LVU309
 964 0024 4361     		str	r3, [r0, #20]
 273:Core/Src/main.c ****   if (HAL_RTC_Init(&hrtc) != HAL_OK)
 965              		.loc 1 273 3 is_stmt 1 view .LVU310
 273:Core/Src/main.c ****   if (HAL_RTC_Init(&hrtc) != HAL_OK)
 966              		.loc 1 273 24 is_stmt 0 view .LVU311
 967 0026 8361     		str	r3, [r0, #24]
 274:Core/Src/main.c ****   {
ARM GAS  C:\Users\jisu8\AppData\Local\Temp\ccbbtk2q.s 			page 36


 968              		.loc 1 274 3 is_stmt 1 view .LVU312
 274:Core/Src/main.c ****   {
 969              		.loc 1 274 7 is_stmt 0 view .LVU313
 970 0028 FFF7FEFF 		bl	HAL_RTC_Init
 971              	.LVL34:
 274:Core/Src/main.c ****   {
 972              		.loc 1 274 6 view .LVU314
 973 002c 20BB     		cbnz	r0, .L58
 285:Core/Src/main.c ****   sTime.Minutes = 15;
 974              		.loc 1 285 3 is_stmt 1 view .LVU315
 285:Core/Src/main.c ****   sTime.Minutes = 15;
 975              		.loc 1 285 15 is_stmt 0 view .LVU316
 976 002e 0423     		movs	r3, #4
 977 0030 8DF80430 		strb	r3, [sp, #4]
 286:Core/Src/main.c ****   sTime.Seconds = 55;
 978              		.loc 1 286 3 is_stmt 1 view .LVU317
 286:Core/Src/main.c ****   sTime.Seconds = 55;
 979              		.loc 1 286 17 is_stmt 0 view .LVU318
 980 0034 0F23     		movs	r3, #15
 981 0036 8DF80530 		strb	r3, [sp, #5]
 287:Core/Src/main.c ****   sTime.DayLightSaving = RTC_DAYLIGHTSAVING_NONE;
 982              		.loc 1 287 3 is_stmt 1 view .LVU319
 287:Core/Src/main.c ****   sTime.DayLightSaving = RTC_DAYLIGHTSAVING_NONE;
 983              		.loc 1 287 17 is_stmt 0 view .LVU320
 984 003a 3723     		movs	r3, #55
 985 003c 8DF80630 		strb	r3, [sp, #6]
 288:Core/Src/main.c ****   sTime.StoreOperation = RTC_STOREOPERATION_RESET;
 986              		.loc 1 288 3 is_stmt 1 view .LVU321
 288:Core/Src/main.c ****   sTime.StoreOperation = RTC_STOREOPERATION_RESET;
 987              		.loc 1 288 24 is_stmt 0 view .LVU322
 988 0040 0023     		movs	r3, #0
 989 0042 0493     		str	r3, [sp, #16]
 289:Core/Src/main.c ****   if (HAL_RTC_SetTime(&hrtc, &sTime, RTC_FORMAT_BCD) != HAL_OK)
 990              		.loc 1 289 3 is_stmt 1 view .LVU323
 289:Core/Src/main.c ****   if (HAL_RTC_SetTime(&hrtc, &sTime, RTC_FORMAT_BCD) != HAL_OK)
 991              		.loc 1 289 24 is_stmt 0 view .LVU324
 992 0044 0593     		str	r3, [sp, #20]
 290:Core/Src/main.c ****   {
 993              		.loc 1 290 3 is_stmt 1 view .LVU325
 290:Core/Src/main.c ****   {
 994              		.loc 1 290 7 is_stmt 0 view .LVU326
 995 0046 0122     		movs	r2, #1
 996 0048 01A9     		add	r1, sp, #4
 997 004a 0E48     		ldr	r0, .L61
 998 004c FFF7FEFF 		bl	HAL_RTC_SetTime
 999              	.LVL35:
 290:Core/Src/main.c ****   {
 1000              		.loc 1 290 6 view .LVU327
 1001 0050 A0B9     		cbnz	r0, .L59
 294:Core/Src/main.c ****   sDate.Month = RTC_MONTH_JANUARY;
 1002              		.loc 1 294 3 is_stmt 1 view .LVU328
 294:Core/Src/main.c ****   sDate.Month = RTC_MONTH_JANUARY;
 1003              		.loc 1 294 17 is_stmt 0 view .LVU329
 1004 0052 0122     		movs	r2, #1
 1005 0054 8DF80020 		strb	r2, [sp]
 295:Core/Src/main.c ****   sDate.Date = 3;
 1006              		.loc 1 295 3 is_stmt 1 view .LVU330
ARM GAS  C:\Users\jisu8\AppData\Local\Temp\ccbbtk2q.s 			page 37


 295:Core/Src/main.c ****   sDate.Date = 3;
 1007              		.loc 1 295 15 is_stmt 0 view .LVU331
 1008 0058 8DF80120 		strb	r2, [sp, #1]
 296:Core/Src/main.c ****   sDate.Year = 2022;
 1009              		.loc 1 296 3 is_stmt 1 view .LVU332
 296:Core/Src/main.c ****   sDate.Year = 2022;
 1010              		.loc 1 296 14 is_stmt 0 view .LVU333
 1011 005c 0323     		movs	r3, #3
 1012 005e 8DF80230 		strb	r3, [sp, #2]
 297:Core/Src/main.c **** 
 1013              		.loc 1 297 3 is_stmt 1 view .LVU334
 297:Core/Src/main.c **** 
 1014              		.loc 1 297 14 is_stmt 0 view .LVU335
 1015 0062 E623     		movs	r3, #230
 1016 0064 8DF80330 		strb	r3, [sp, #3]
 299:Core/Src/main.c ****   {
 1017              		.loc 1 299 3 is_stmt 1 view .LVU336
 299:Core/Src/main.c ****   {
 1018              		.loc 1 299 7 is_stmt 0 view .LVU337
 1019 0068 6946     		mov	r1, sp
 1020 006a 0648     		ldr	r0, .L61
 1021 006c FFF7FEFF 		bl	HAL_RTC_SetDate
 1022              	.LVL36:
 299:Core/Src/main.c ****   {
 1023              		.loc 1 299 6 view .LVU338
 1024 0070 30B9     		cbnz	r0, .L60
 307:Core/Src/main.c **** 
 1025              		.loc 1 307 1 view .LVU339
 1026 0072 07B0     		add	sp, sp, #28
 1027              	.LCFI20:
 1028              		.cfi_remember_state
 1029              		.cfi_def_cfa_offset 4
 1030              		@ sp needed
 1031 0074 5DF804FB 		ldr	pc, [sp], #4
 1032              	.L58:
 1033              	.LCFI21:
 1034              		.cfi_restore_state
 276:Core/Src/main.c ****   }
 1035              		.loc 1 276 5 is_stmt 1 view .LVU340
 1036 0078 FFF7FEFF 		bl	Error_Handler
 1037              	.LVL37:
 1038              	.L59:
 292:Core/Src/main.c ****   }
 1039              		.loc 1 292 5 view .LVU341
 1040 007c FFF7FEFF 		bl	Error_Handler
 1041              	.LVL38:
 1042              	.L60:
 301:Core/Src/main.c ****   }
 1043              		.loc 1 301 5 view .LVU342
 1044 0080 FFF7FEFF 		bl	Error_Handler
 1045              	.LVL39:
 1046              	.L62:
 1047              		.align	2
 1048              	.L61:
 1049 0084 00000000 		.word	.LANCHOR6
 1050 0088 00280040 		.word	1073752064
 1051              		.cfi_endproc
ARM GAS  C:\Users\jisu8\AppData\Local\Temp\ccbbtk2q.s 			page 38


 1052              	.LFE136:
 1054              		.section	.text.MX_TIM16_Init,"ax",%progbits
 1055              		.align	1
 1056              		.syntax unified
 1057              		.thumb
 1058              		.thumb_func
 1060              	MX_TIM16_Init:
 1061              	.LFB139:
 404:Core/Src/main.c **** 
 1062              		.loc 1 404 1 view -0
 1063              		.cfi_startproc
 1064              		@ args = 0, pretend = 0, frame = 0
 1065              		@ frame_needed = 0, uses_anonymous_args = 0
 1066 0000 08B5     		push	{r3, lr}
 1067              	.LCFI22:
 1068              		.cfi_def_cfa_offset 8
 1069              		.cfi_offset 3, -8
 1070              		.cfi_offset 14, -4
 413:Core/Src/main.c ****   htim16.Init.Prescaler = 71;
 1071              		.loc 1 413 3 view .LVU344
 413:Core/Src/main.c ****   htim16.Init.Prescaler = 71;
 1072              		.loc 1 413 19 is_stmt 0 view .LVU345
 1073 0002 0948     		ldr	r0, .L67
 1074 0004 094B     		ldr	r3, .L67+4
 1075 0006 0360     		str	r3, [r0]
 414:Core/Src/main.c ****   htim16.Init.CounterMode = TIM_COUNTERMODE_UP;
 1076              		.loc 1 414 3 is_stmt 1 view .LVU346
 414:Core/Src/main.c ****   htim16.Init.CounterMode = TIM_COUNTERMODE_UP;
 1077              		.loc 1 414 25 is_stmt 0 view .LVU347
 1078 0008 4723     		movs	r3, #71
 1079 000a 4360     		str	r3, [r0, #4]
 415:Core/Src/main.c ****   htim16.Init.Period = 100;
 1080              		.loc 1 415 3 is_stmt 1 view .LVU348
 415:Core/Src/main.c ****   htim16.Init.Period = 100;
 1081              		.loc 1 415 27 is_stmt 0 view .LVU349
 1082 000c 0023     		movs	r3, #0
 1083 000e 8360     		str	r3, [r0, #8]
 416:Core/Src/main.c ****   htim16.Init.ClockDivision = TIM_CLOCKDIVISION_DIV1;
 1084              		.loc 1 416 3 is_stmt 1 view .LVU350
 416:Core/Src/main.c ****   htim16.Init.ClockDivision = TIM_CLOCKDIVISION_DIV1;
 1085              		.loc 1 416 22 is_stmt 0 view .LVU351
 1086 0010 6422     		movs	r2, #100
 1087 0012 C260     		str	r2, [r0, #12]
 417:Core/Src/main.c ****   htim16.Init.RepetitionCounter = 0;
 1088              		.loc 1 417 3 is_stmt 1 view .LVU352
 417:Core/Src/main.c ****   htim16.Init.RepetitionCounter = 0;
 1089              		.loc 1 417 29 is_stmt 0 view .LVU353
 1090 0014 0361     		str	r3, [r0, #16]
 418:Core/Src/main.c ****   htim16.Init.AutoReloadPreload = TIM_AUTORELOAD_PRELOAD_DISABLE;
 1091              		.loc 1 418 3 is_stmt 1 view .LVU354
 418:Core/Src/main.c ****   htim16.Init.AutoReloadPreload = TIM_AUTORELOAD_PRELOAD_DISABLE;
 1092              		.loc 1 418 33 is_stmt 0 view .LVU355
 1093 0016 4361     		str	r3, [r0, #20]
 419:Core/Src/main.c ****   if (HAL_TIM_Base_Init(&htim16) != HAL_OK)
 1094              		.loc 1 419 3 is_stmt 1 view .LVU356
 419:Core/Src/main.c ****   if (HAL_TIM_Base_Init(&htim16) != HAL_OK)
 1095              		.loc 1 419 33 is_stmt 0 view .LVU357
ARM GAS  C:\Users\jisu8\AppData\Local\Temp\ccbbtk2q.s 			page 39


 1096 0018 8361     		str	r3, [r0, #24]
 420:Core/Src/main.c ****   {
 1097              		.loc 1 420 3 is_stmt 1 view .LVU358
 420:Core/Src/main.c ****   {
 1098              		.loc 1 420 7 is_stmt 0 view .LVU359
 1099 001a FFF7FEFF 		bl	HAL_TIM_Base_Init
 1100              	.LVL40:
 420:Core/Src/main.c ****   {
 1101              		.loc 1 420 6 view .LVU360
 1102 001e 00B9     		cbnz	r0, .L66
 428:Core/Src/main.c **** 
 1103              		.loc 1 428 1 view .LVU361
 1104 0020 08BD     		pop	{r3, pc}
 1105              	.L66:
 422:Core/Src/main.c ****   }
 1106              		.loc 1 422 5 is_stmt 1 view .LVU362
 1107 0022 FFF7FEFF 		bl	Error_Handler
 1108              	.LVL41:
 1109              	.L68:
 1110 0026 00BF     		.align	2
 1111              	.L67:
 1112 0028 00000000 		.word	.LANCHOR7
 1113 002c 00440140 		.word	1073824768
 1114              		.cfi_endproc
 1115              	.LFE139:
 1117              		.section	.text.MX_TIM17_Init,"ax",%progbits
 1118              		.align	1
 1119              		.syntax unified
 1120              		.thumb
 1121              		.thumb_func
 1123              	MX_TIM17_Init:
 1124              	.LFB140:
 436:Core/Src/main.c **** 
 1125              		.loc 1 436 1 view -0
 1126              		.cfi_startproc
 1127              		@ args = 0, pretend = 0, frame = 0
 1128              		@ frame_needed = 0, uses_anonymous_args = 0
 1129 0000 08B5     		push	{r3, lr}
 1130              	.LCFI23:
 1131              		.cfi_def_cfa_offset 8
 1132              		.cfi_offset 3, -8
 1133              		.cfi_offset 14, -4
 445:Core/Src/main.c ****   htim17.Init.Prescaler = 71;
 1134              		.loc 1 445 3 view .LVU364
 445:Core/Src/main.c ****   htim17.Init.Prescaler = 71;
 1135              		.loc 1 445 19 is_stmt 0 view .LVU365
 1136 0002 0948     		ldr	r0, .L73
 1137 0004 094B     		ldr	r3, .L73+4
 1138 0006 0360     		str	r3, [r0]
 446:Core/Src/main.c ****   htim17.Init.CounterMode = TIM_COUNTERMODE_UP;
 1139              		.loc 1 446 3 is_stmt 1 view .LVU366
 446:Core/Src/main.c ****   htim17.Init.CounterMode = TIM_COUNTERMODE_UP;
 1140              		.loc 1 446 25 is_stmt 0 view .LVU367
 1141 0008 4723     		movs	r3, #71
 1142 000a 4360     		str	r3, [r0, #4]
 447:Core/Src/main.c ****   htim17.Init.Period = 10000;
 1143              		.loc 1 447 3 is_stmt 1 view .LVU368
ARM GAS  C:\Users\jisu8\AppData\Local\Temp\ccbbtk2q.s 			page 40


 447:Core/Src/main.c ****   htim17.Init.Period = 10000;
 1144              		.loc 1 447 27 is_stmt 0 view .LVU369
 1145 000c 0023     		movs	r3, #0
 1146 000e 8360     		str	r3, [r0, #8]
 448:Core/Src/main.c ****   htim17.Init.ClockDivision = TIM_CLOCKDIVISION_DIV1;
 1147              		.loc 1 448 3 is_stmt 1 view .LVU370
 448:Core/Src/main.c ****   htim17.Init.ClockDivision = TIM_CLOCKDIVISION_DIV1;
 1148              		.loc 1 448 22 is_stmt 0 view .LVU371
 1149 0010 42F21072 		movw	r2, #10000
 1150 0014 C260     		str	r2, [r0, #12]
 449:Core/Src/main.c ****   htim17.Init.RepetitionCounter = 0;
 1151              		.loc 1 449 3 is_stmt 1 view .LVU372
 449:Core/Src/main.c ****   htim17.Init.RepetitionCounter = 0;
 1152              		.loc 1 449 29 is_stmt 0 view .LVU373
 1153 0016 0361     		str	r3, [r0, #16]
 450:Core/Src/main.c ****   htim17.Init.AutoReloadPreload = TIM_AUTORELOAD_PRELOAD_DISABLE;
 1154              		.loc 1 450 3 is_stmt 1 view .LVU374
 450:Core/Src/main.c ****   htim17.Init.AutoReloadPreload = TIM_AUTORELOAD_PRELOAD_DISABLE;
 1155              		.loc 1 450 33 is_stmt 0 view .LVU375
 1156 0018 4361     		str	r3, [r0, #20]
 451:Core/Src/main.c ****   if (HAL_TIM_Base_Init(&htim17) != HAL_OK)
 1157              		.loc 1 451 3 is_stmt 1 view .LVU376
 451:Core/Src/main.c ****   if (HAL_TIM_Base_Init(&htim17) != HAL_OK)
 1158              		.loc 1 451 33 is_stmt 0 view .LVU377
 1159 001a 8361     		str	r3, [r0, #24]
 452:Core/Src/main.c ****   {
 1160              		.loc 1 452 3 is_stmt 1 view .LVU378
 452:Core/Src/main.c ****   {
 1161              		.loc 1 452 7 is_stmt 0 view .LVU379
 1162 001c FFF7FEFF 		bl	HAL_TIM_Base_Init
 1163              	.LVL42:
 452:Core/Src/main.c ****   {
 1164              		.loc 1 452 6 view .LVU380
 1165 0020 00B9     		cbnz	r0, .L72
 460:Core/Src/main.c **** 
 1166              		.loc 1 460 1 view .LVU381
 1167 0022 08BD     		pop	{r3, pc}
 1168              	.L72:
 454:Core/Src/main.c ****   }
 1169              		.loc 1 454 5 is_stmt 1 view .LVU382
 1170 0024 FFF7FEFF 		bl	Error_Handler
 1171              	.LVL43:
 1172              	.L74:
 1173              		.align	2
 1174              	.L73:
 1175 0028 00000000 		.word	.LANCHOR8
 1176 002c 00480140 		.word	1073825792
 1177              		.cfi_endproc
 1178              	.LFE140:
 1180              		.section	.text.SystemClock_Config,"ax",%progbits
 1181              		.align	1
 1182              		.global	SystemClock_Config
 1183              		.syntax unified
 1184              		.thumb
 1185              		.thumb_func
 1187              	SystemClock_Config:
 1188              	.LFB134:
ARM GAS  C:\Users\jisu8\AppData\Local\Temp\ccbbtk2q.s 			page 41


 142:Core/Src/main.c ****   RCC_OscInitTypeDef RCC_OscInitStruct = {0};
 1189              		.loc 1 142 1 view -0
 1190              		.cfi_startproc
 1191              		@ args = 0, pretend = 0, frame = 120
 1192              		@ frame_needed = 0, uses_anonymous_args = 0
 1193 0000 00B5     		push	{lr}
 1194              	.LCFI24:
 1195              		.cfi_def_cfa_offset 4
 1196              		.cfi_offset 14, -4
 1197 0002 9FB0     		sub	sp, sp, #124
 1198              	.LCFI25:
 1199              		.cfi_def_cfa_offset 128
 143:Core/Src/main.c ****   RCC_ClkInitTypeDef RCC_ClkInitStruct = {0};
 1200              		.loc 1 143 3 view .LVU384
 143:Core/Src/main.c ****   RCC_ClkInitTypeDef RCC_ClkInitStruct = {0};
 1201              		.loc 1 143 22 is_stmt 0 view .LVU385
 1202 0004 2822     		movs	r2, #40
 1203 0006 0021     		movs	r1, #0
 1204 0008 14A8     		add	r0, sp, #80
 1205 000a FFF7FEFF 		bl	memset
 1206              	.LVL44:
 144:Core/Src/main.c ****   RCC_PeriphCLKInitTypeDef PeriphClkInit = {0};
 1207              		.loc 1 144 3 is_stmt 1 view .LVU386
 144:Core/Src/main.c ****   RCC_PeriphCLKInitTypeDef PeriphClkInit = {0};
 1208              		.loc 1 144 22 is_stmt 0 view .LVU387
 1209 000e 0021     		movs	r1, #0
 1210 0010 0F91     		str	r1, [sp, #60]
 1211 0012 1091     		str	r1, [sp, #64]
 1212 0014 1191     		str	r1, [sp, #68]
 1213 0016 1291     		str	r1, [sp, #72]
 1214 0018 1391     		str	r1, [sp, #76]
 145:Core/Src/main.c **** 
 1215              		.loc 1 145 3 is_stmt 1 view .LVU388
 145:Core/Src/main.c **** 
 1216              		.loc 1 145 28 is_stmt 0 view .LVU389
 1217 001a 3C22     		movs	r2, #60
 1218 001c 6846     		mov	r0, sp
 1219 001e FFF7FEFF 		bl	memset
 1220              	.LVL45:
 150:Core/Src/main.c ****   RCC_OscInitStruct.HSEState = RCC_HSE_ON;
 1221              		.loc 1 150 3 is_stmt 1 view .LVU390
 150:Core/Src/main.c ****   RCC_OscInitStruct.HSEState = RCC_HSE_ON;
 1222              		.loc 1 150 36 is_stmt 0 view .LVU391
 1223 0022 0122     		movs	r2, #1
 1224 0024 1492     		str	r2, [sp, #80]
 151:Core/Src/main.c ****   RCC_OscInitStruct.HSEPredivValue = RCC_HSE_PREDIV_DIV1;
 1225              		.loc 1 151 3 is_stmt 1 view .LVU392
 151:Core/Src/main.c ****   RCC_OscInitStruct.HSEPredivValue = RCC_HSE_PREDIV_DIV1;
 1226              		.loc 1 151 30 is_stmt 0 view .LVU393
 1227 0026 4FF48033 		mov	r3, #65536
 1228 002a 1593     		str	r3, [sp, #84]
 152:Core/Src/main.c ****   RCC_OscInitStruct.HSIState = RCC_HSI_ON;
 1229              		.loc 1 152 3 is_stmt 1 view .LVU394
 153:Core/Src/main.c ****   RCC_OscInitStruct.PLL.PLLState = RCC_PLL_ON;
 1230              		.loc 1 153 3 view .LVU395
 153:Core/Src/main.c ****   RCC_OscInitStruct.PLL.PLLState = RCC_PLL_ON;
 1231              		.loc 1 153 30 is_stmt 0 view .LVU396
ARM GAS  C:\Users\jisu8\AppData\Local\Temp\ccbbtk2q.s 			page 42


 1232 002c 1892     		str	r2, [sp, #96]
 154:Core/Src/main.c ****   RCC_OscInitStruct.PLL.PLLSource = RCC_PLLSOURCE_HSE;
 1233              		.loc 1 154 3 is_stmt 1 view .LVU397
 154:Core/Src/main.c ****   RCC_OscInitStruct.PLL.PLLSource = RCC_PLLSOURCE_HSE;
 1234              		.loc 1 154 34 is_stmt 0 view .LVU398
 1235 002e 0222     		movs	r2, #2
 1236 0030 1B92     		str	r2, [sp, #108]
 155:Core/Src/main.c ****   RCC_OscInitStruct.PLL.PLLMUL = RCC_PLL_MUL9;
 1237              		.loc 1 155 3 is_stmt 1 view .LVU399
 155:Core/Src/main.c ****   RCC_OscInitStruct.PLL.PLLMUL = RCC_PLL_MUL9;
 1238              		.loc 1 155 35 is_stmt 0 view .LVU400
 1239 0032 1C93     		str	r3, [sp, #112]
 156:Core/Src/main.c ****   if (HAL_RCC_OscConfig(&RCC_OscInitStruct) != HAL_OK)
 1240              		.loc 1 156 3 is_stmt 1 view .LVU401
 156:Core/Src/main.c ****   if (HAL_RCC_OscConfig(&RCC_OscInitStruct) != HAL_OK)
 1241              		.loc 1 156 32 is_stmt 0 view .LVU402
 1242 0034 4FF4E013 		mov	r3, #1835008
 1243 0038 1D93     		str	r3, [sp, #116]
 157:Core/Src/main.c ****   {
 1244              		.loc 1 157 3 is_stmt 1 view .LVU403
 157:Core/Src/main.c ****   {
 1245              		.loc 1 157 7 is_stmt 0 view .LVU404
 1246 003a 14A8     		add	r0, sp, #80
 1247 003c FFF7FEFF 		bl	HAL_RCC_OscConfig
 1248              	.LVL46:
 157:Core/Src/main.c ****   {
 1249              		.loc 1 157 6 view .LVU405
 1250 0040 00BB     		cbnz	r0, .L80
 164:Core/Src/main.c ****                               |RCC_CLOCKTYPE_PCLK1|RCC_CLOCKTYPE_PCLK2;
 1251              		.loc 1 164 3 is_stmt 1 view .LVU406
 164:Core/Src/main.c ****                               |RCC_CLOCKTYPE_PCLK1|RCC_CLOCKTYPE_PCLK2;
 1252              		.loc 1 164 31 is_stmt 0 view .LVU407
 1253 0042 0F23     		movs	r3, #15
 1254 0044 0F93     		str	r3, [sp, #60]
 166:Core/Src/main.c ****   RCC_ClkInitStruct.AHBCLKDivider = RCC_SYSCLK_DIV1;
 1255              		.loc 1 166 3 is_stmt 1 view .LVU408
 166:Core/Src/main.c ****   RCC_ClkInitStruct.AHBCLKDivider = RCC_SYSCLK_DIV1;
 1256              		.loc 1 166 34 is_stmt 0 view .LVU409
 1257 0046 0221     		movs	r1, #2
 1258 0048 1091     		str	r1, [sp, #64]
 167:Core/Src/main.c ****   RCC_ClkInitStruct.APB1CLKDivider = RCC_HCLK_DIV2;
 1259              		.loc 1 167 3 is_stmt 1 view .LVU410
 167:Core/Src/main.c ****   RCC_ClkInitStruct.APB1CLKDivider = RCC_HCLK_DIV2;
 1260              		.loc 1 167 35 is_stmt 0 view .LVU411
 1261 004a 0023     		movs	r3, #0
 1262 004c 1193     		str	r3, [sp, #68]
 168:Core/Src/main.c ****   RCC_ClkInitStruct.APB2CLKDivider = RCC_HCLK_DIV1;
 1263              		.loc 1 168 3 is_stmt 1 view .LVU412
 168:Core/Src/main.c ****   RCC_ClkInitStruct.APB2CLKDivider = RCC_HCLK_DIV1;
 1264              		.loc 1 168 36 is_stmt 0 view .LVU413
 1265 004e 4FF48062 		mov	r2, #1024
 1266 0052 1292     		str	r2, [sp, #72]
 169:Core/Src/main.c **** 
 1267              		.loc 1 169 3 is_stmt 1 view .LVU414
 169:Core/Src/main.c **** 
 1268              		.loc 1 169 36 is_stmt 0 view .LVU415
 1269 0054 1393     		str	r3, [sp, #76]
ARM GAS  C:\Users\jisu8\AppData\Local\Temp\ccbbtk2q.s 			page 43


 171:Core/Src/main.c ****   {
 1270              		.loc 1 171 3 is_stmt 1 view .LVU416
 171:Core/Src/main.c ****   {
 1271              		.loc 1 171 7 is_stmt 0 view .LVU417
 1272 0056 0FA8     		add	r0, sp, #60
 1273 0058 FFF7FEFF 		bl	HAL_RCC_ClockConfig
 1274              	.LVL47:
 171:Core/Src/main.c ****   {
 1275              		.loc 1 171 6 view .LVU418
 1276 005c A0B9     		cbnz	r0, .L81
 175:Core/Src/main.c ****                               |RCC_PERIPHCLK_USART3|RCC_PERIPHCLK_RTC
 1277              		.loc 1 175 3 is_stmt 1 view .LVU419
 175:Core/Src/main.c ****                               |RCC_PERIPHCLK_USART3|RCC_PERIPHCLK_RTC
 1278              		.loc 1 175 38 is_stmt 0 view .LVU420
 1279 005e 0C4B     		ldr	r3, .L83
 1280 0060 0093     		str	r3, [sp]
 178:Core/Src/main.c ****   PeriphClkInit.Usart2ClockSelection = RCC_USART2CLKSOURCE_PCLK1;
 1281              		.loc 1 178 3 is_stmt 1 view .LVU421
 178:Core/Src/main.c ****   PeriphClkInit.Usart2ClockSelection = RCC_USART2CLKSOURCE_PCLK1;
 1282              		.loc 1 178 38 is_stmt 0 view .LVU422
 1283 0062 0023     		movs	r3, #0
 1284 0064 0293     		str	r3, [sp, #8]
 179:Core/Src/main.c ****   PeriphClkInit.Usart3ClockSelection = RCC_USART3CLKSOURCE_PCLK1;
 1285              		.loc 1 179 3 is_stmt 1 view .LVU423
 179:Core/Src/main.c ****   PeriphClkInit.Usart3ClockSelection = RCC_USART3CLKSOURCE_PCLK1;
 1286              		.loc 1 179 38 is_stmt 0 view .LVU424
 1287 0066 0393     		str	r3, [sp, #12]
 180:Core/Src/main.c ****   PeriphClkInit.Adc12ClockSelection = RCC_ADC12PLLCLK_DIV1;
 1288              		.loc 1 180 3 is_stmt 1 view .LVU425
 180:Core/Src/main.c ****   PeriphClkInit.Adc12ClockSelection = RCC_ADC12PLLCLK_DIV1;
 1289              		.loc 1 180 38 is_stmt 0 view .LVU426
 1290 0068 0493     		str	r3, [sp, #16]
 181:Core/Src/main.c ****   PeriphClkInit.RTCClockSelection = RCC_RTCCLKSOURCE_HSE_DIV32;
 1291              		.loc 1 181 3 is_stmt 1 view .LVU427
 181:Core/Src/main.c ****   PeriphClkInit.RTCClockSelection = RCC_RTCCLKSOURCE_HSE_DIV32;
 1292              		.loc 1 181 37 is_stmt 0 view .LVU428
 1293 006a 4FF48073 		mov	r3, #256
 1294 006e 0993     		str	r3, [sp, #36]
 182:Core/Src/main.c ****   if (HAL_RCCEx_PeriphCLKConfig(&PeriphClkInit) != HAL_OK)
 1295              		.loc 1 182 3 is_stmt 1 view .LVU429
 182:Core/Src/main.c ****   if (HAL_RCCEx_PeriphCLKConfig(&PeriphClkInit) != HAL_OK)
 1296              		.loc 1 182 35 is_stmt 0 view .LVU430
 1297 0070 4FF44073 		mov	r3, #768
 1298 0074 0193     		str	r3, [sp, #4]
 183:Core/Src/main.c ****   {
 1299              		.loc 1 183 3 is_stmt 1 view .LVU431
 183:Core/Src/main.c ****   {
 1300              		.loc 1 183 7 is_stmt 0 view .LVU432
 1301 0076 6846     		mov	r0, sp
 1302 0078 FFF7FEFF 		bl	HAL_RCCEx_PeriphCLKConfig
 1303              	.LVL48:
 183:Core/Src/main.c ****   {
 1304              		.loc 1 183 6 view .LVU433
 1305 007c 30B9     		cbnz	r0, .L82
 187:Core/Src/main.c **** 
 1306              		.loc 1 187 1 view .LVU434
 1307 007e 1FB0     		add	sp, sp, #124
ARM GAS  C:\Users\jisu8\AppData\Local\Temp\ccbbtk2q.s 			page 44


 1308              	.LCFI26:
 1309              		.cfi_remember_state
 1310              		.cfi_def_cfa_offset 4
 1311              		@ sp needed
 1312 0080 5DF804FB 		ldr	pc, [sp], #4
 1313              	.L80:
 1314              	.LCFI27:
 1315              		.cfi_restore_state
 159:Core/Src/main.c ****   }
 1316              		.loc 1 159 5 is_stmt 1 view .LVU435
 1317 0084 FFF7FEFF 		bl	Error_Handler
 1318              	.LVL49:
 1319              	.L81:
 173:Core/Src/main.c ****   }
 1320              		.loc 1 173 5 view .LVU436
 1321 0088 FFF7FEFF 		bl	Error_Handler
 1322              	.LVL50:
 1323              	.L82:
 185:Core/Src/main.c ****   }
 1324              		.loc 1 185 5 view .LVU437
 1325 008c FFF7FEFF 		bl	Error_Handler
 1326              	.LVL51:
 1327              	.L84:
 1328              		.align	2
 1329              	.L83:
 1330 0090 87000100 		.word	65671
 1331              		.cfi_endproc
 1332              	.LFE134:
 1334              		.section	.text.main,"ax",%progbits
 1335              		.align	1
 1336              		.global	main
 1337              		.syntax unified
 1338              		.thumb
 1339              		.thumb_func
 1341              	main:
 1342              	.LFB133:
  88:Core/Src/main.c ****   /* USER CODE BEGIN 1 */
 1343              		.loc 1 88 1 view -0
 1344              		.cfi_startproc
 1345              		@ Volatile: function does not return.
 1346              		@ args = 0, pretend = 0, frame = 0
 1347              		@ frame_needed = 0, uses_anonymous_args = 0
 1348 0000 08B5     		push	{r3, lr}
 1349              	.LCFI28:
 1350              		.cfi_def_cfa_offset 8
 1351              		.cfi_offset 3, -8
 1352              		.cfi_offset 14, -4
  96:Core/Src/main.c **** 
 1353              		.loc 1 96 3 view .LVU439
 1354 0002 FFF7FEFF 		bl	HAL_Init
 1355              	.LVL52:
 103:Core/Src/main.c **** 
 1356              		.loc 1 103 3 view .LVU440
 1357 0006 FFF7FEFF 		bl	SystemClock_Config
 1358              	.LVL53:
 110:Core/Src/main.c ****   MX_DMA_Init();
 1359              		.loc 1 110 3 view .LVU441
ARM GAS  C:\Users\jisu8\AppData\Local\Temp\ccbbtk2q.s 			page 45


 1360 000a FFF7FEFF 		bl	MX_GPIO_Init
 1361              	.LVL54:
 111:Core/Src/main.c ****   MX_ADC2_Init();
 1362              		.loc 1 111 3 view .LVU442
 1363 000e FFF7FEFF 		bl	MX_DMA_Init
 1364              	.LVL55:
 112:Core/Src/main.c ****   MX_SPI2_Init();
 1365              		.loc 1 112 3 view .LVU443
 1366 0012 FFF7FEFF 		bl	MX_ADC2_Init
 1367              	.LVL56:
 113:Core/Src/main.c ****   MX_USART1_UART_Init();
 1368              		.loc 1 113 3 view .LVU444
 1369 0016 FFF7FEFF 		bl	MX_SPI2_Init
 1370              	.LVL57:
 114:Core/Src/main.c ****   MX_USART2_UART_Init();
 1371              		.loc 1 114 3 view .LVU445
 1372 001a FFF7FEFF 		bl	MX_USART1_UART_Init
 1373              	.LVL58:
 115:Core/Src/main.c ****   MX_USART3_UART_Init();
 1374              		.loc 1 115 3 view .LVU446
 1375 001e FFF7FEFF 		bl	MX_USART2_UART_Init
 1376              	.LVL59:
 116:Core/Src/main.c ****   MX_TIM3_Init();
 1377              		.loc 1 116 3 view .LVU447
 1378 0022 FFF7FEFF 		bl	MX_USART3_UART_Init
 1379              	.LVL60:
 117:Core/Src/main.c ****   MX_RTC_Init();
 1380              		.loc 1 117 3 view .LVU448
 1381 0026 FFF7FEFF 		bl	MX_TIM3_Init
 1382              	.LVL61:
 118:Core/Src/main.c ****   MX_TIM16_Init();
 1383              		.loc 1 118 3 view .LVU449
 1384 002a FFF7FEFF 		bl	MX_RTC_Init
 1385              	.LVL62:
 119:Core/Src/main.c ****   MX_TIM17_Init();
 1386              		.loc 1 119 3 view .LVU450
 1387 002e FFF7FEFF 		bl	MX_TIM16_Init
 1388              	.LVL63:
 120:Core/Src/main.c ****   /* USER CODE BEGIN 2 */
 1389              		.loc 1 120 3 view .LVU451
 1390 0032 FFF7FEFF 		bl	MX_TIM17_Init
 1391              	.LVL64:
 122:Core/Src/main.c ****   HAL_TIM_Base_Start_IT(&htim17);
 1392              		.loc 1 122 3 view .LVU452
 1393 0036 0548     		ldr	r0, .L88
 1394 0038 FFF7FEFF 		bl	HAL_TIM_Base_Start_IT
 1395              	.LVL65:
 123:Core/Src/main.c ****   Os_Init_Task();
 1396              		.loc 1 123 3 view .LVU453
 1397 003c 0448     		ldr	r0, .L88+4
 1398 003e FFF7FEFF 		bl	HAL_TIM_Base_Start_IT
 1399              	.LVL66:
 124:Core/Src/main.c ****   /* USER CODE END 2 */
 1400              		.loc 1 124 3 view .LVU454
 1401 0042 FFF7FEFF 		bl	Os_Init_Task
 1402              	.LVL67:
 1403              	.L86:
ARM GAS  C:\Users\jisu8\AppData\Local\Temp\ccbbtk2q.s 			page 46


 128:Core/Src/main.c ****   {
 1404              		.loc 1 128 3 discriminator 1 view .LVU455
 131:Core/Src/main.c ****     /* USER CODE BEGIN 3 */
 1405              		.loc 1 131 5 discriminator 1 view .LVU456
 1406 0046 FFF7FEFF 		bl	Os_Handler
 1407              	.LVL68:
 128:Core/Src/main.c ****   {
 1408              		.loc 1 128 9 discriminator 1 view .LVU457
 1409 004a FCE7     		b	.L86
 1410              	.L89:
 1411              		.align	2
 1412              	.L88:
 1413 004c 00000000 		.word	.LANCHOR7
 1414 0050 00000000 		.word	.LANCHOR8
 1415              		.cfi_endproc
 1416              	.LFE133:
 1418              		.global	hdma_usart3_rx
 1419              		.global	hdma_usart2_rx
 1420              		.global	hdma_usart1_rx
 1421              		.global	huart3
 1422              		.global	huart2
 1423              		.global	huart1
 1424              		.global	htim17
 1425              		.global	htim16
 1426              		.global	htim3
 1427              		.global	hspi2
 1428              		.global	hrtc
 1429              		.global	hdma_adc2
 1430              		.global	hadc2
 1431              		.section	.bss.hadc2,"aw",%nobits
 1432              		.align	2
 1433              		.set	.LANCHOR0,. + 0
 1436              	hadc2:
 1437 0000 00000000 		.space	80
 1437      00000000 
 1437      00000000 
 1437      00000000 
 1437      00000000 
 1438              		.section	.bss.hdma_adc2,"aw",%nobits
 1439              		.align	2
 1442              	hdma_adc2:
 1443 0000 00000000 		.space	68
 1443      00000000 
 1443      00000000 
 1443      00000000 
 1443      00000000 
 1444              		.section	.bss.hdma_usart1_rx,"aw",%nobits
 1445              		.align	2
 1448              	hdma_usart1_rx:
 1449 0000 00000000 		.space	68
 1449      00000000 
 1449      00000000 
 1449      00000000 
 1449      00000000 
 1450              		.section	.bss.hdma_usart2_rx,"aw",%nobits
 1451              		.align	2
 1454              	hdma_usart2_rx:
ARM GAS  C:\Users\jisu8\AppData\Local\Temp\ccbbtk2q.s 			page 47


 1455 0000 00000000 		.space	68
 1455      00000000 
 1455      00000000 
 1455      00000000 
 1455      00000000 
 1456              		.section	.bss.hdma_usart3_rx,"aw",%nobits
 1457              		.align	2
 1460              	hdma_usart3_rx:
 1461 0000 00000000 		.space	68
 1461      00000000 
 1461      00000000 
 1461      00000000 
 1461      00000000 
 1462              		.section	.bss.hrtc,"aw",%nobits
 1463              		.align	2
 1464              		.set	.LANCHOR6,. + 0
 1467              	hrtc:
 1468 0000 00000000 		.space	32
 1468      00000000 
 1468      00000000 
 1468      00000000 
 1468      00000000 
 1469              		.section	.bss.hspi2,"aw",%nobits
 1470              		.align	2
 1471              		.set	.LANCHOR1,. + 0
 1474              	hspi2:
 1475 0000 00000000 		.space	100
 1475      00000000 
 1475      00000000 
 1475      00000000 
 1475      00000000 
 1476              		.section	.bss.htim16,"aw",%nobits
 1477              		.align	2
 1478              		.set	.LANCHOR7,. + 0
 1481              	htim16:
 1482 0000 00000000 		.space	76
 1482      00000000 
 1482      00000000 
 1482      00000000 
 1482      00000000 
 1483              		.section	.bss.htim17,"aw",%nobits
 1484              		.align	2
 1485              		.set	.LANCHOR8,. + 0
 1488              	htim17:
 1489 0000 00000000 		.space	76
 1489      00000000 
 1489      00000000 
 1489      00000000 
 1489      00000000 
 1490              		.section	.bss.htim3,"aw",%nobits
 1491              		.align	2
 1492              		.set	.LANCHOR5,. + 0
 1495              	htim3:
 1496 0000 00000000 		.space	76
 1496      00000000 
 1496      00000000 
 1496      00000000 
ARM GAS  C:\Users\jisu8\AppData\Local\Temp\ccbbtk2q.s 			page 48


 1496      00000000 
 1497              		.section	.bss.huart1,"aw",%nobits
 1498              		.align	2
 1499              		.set	.LANCHOR2,. + 0
 1502              	huart1:
 1503 0000 00000000 		.space	132
 1503      00000000 
 1503      00000000 
 1503      00000000 
 1503      00000000 
 1504              		.section	.bss.huart2,"aw",%nobits
 1505              		.align	2
 1506              		.set	.LANCHOR3,. + 0
 1509              	huart2:
 1510 0000 00000000 		.space	132
 1510      00000000 
 1510      00000000 
 1510      00000000 
 1510      00000000 
 1511              		.section	.bss.huart3,"aw",%nobits
 1512              		.align	2
 1513              		.set	.LANCHOR4,. + 0
 1516              	huart3:
 1517 0000 00000000 		.space	132
 1517      00000000 
 1517      00000000 
 1517      00000000 
 1517      00000000 
 1518              		.text
 1519              	.Letext0:
 1520              		.file 3 "d:\\3.tools\\arm_gcc_toolchain\\arm-none-eabi\\include\\machine\\_default_types.h"
 1521              		.file 4 "d:\\3.tools\\arm_gcc_toolchain\\arm-none-eabi\\include\\sys\\_stdint.h"
 1522              		.file 5 "Drivers/CMSIS/Device/ST/STM32F3xx/Include/stm32f303xc.h"
 1523              		.file 6 "Drivers/CMSIS/Device/ST/STM32F3xx/Include/stm32f3xx.h"
 1524              		.file 7 "Drivers/STM32F3xx_HAL_Driver/Inc/stm32f3xx_hal_def.h"
 1525              		.file 8 "Drivers/STM32F3xx_HAL_Driver/Inc/stm32f3xx_hal_rcc.h"
 1526              		.file 9 "Drivers/STM32F3xx_HAL_Driver/Inc/stm32f3xx_hal_rcc_ex.h"
 1527              		.file 10 "Drivers/STM32F3xx_HAL_Driver/Inc/stm32f3xx_hal_gpio.h"
 1528              		.file 11 "Drivers/STM32F3xx_HAL_Driver/Inc/stm32f3xx_hal_dma.h"
 1529              		.file 12 "Drivers/STM32F3xx_HAL_Driver/Inc/stm32f3xx_hal_adc_ex.h"
 1530              		.file 13 "Drivers/STM32F3xx_HAL_Driver/Inc/stm32f3xx_hal_adc.h"
 1531              		.file 14 "Drivers/STM32F3xx_HAL_Driver/Inc/stm32f3xx_hal_rtc.h"
 1532              		.file 15 "Drivers/STM32F3xx_HAL_Driver/Inc/stm32f3xx_hal_spi.h"
 1533              		.file 16 "Drivers/STM32F3xx_HAL_Driver/Inc/stm32f3xx_hal_tim.h"
 1534              		.file 17 "Drivers/STM32F3xx_HAL_Driver/Inc/stm32f3xx_hal_uart.h"
 1535              		.file 18 "Core/Inc/main.h"
 1536              		.file 19 "Drivers/STM32F3xx_HAL_Driver/Inc/stm32f3xx_hal_cortex.h"
 1537              		.file 20 "Drivers/STM32F3xx_HAL_Driver/Inc/stm32f3xx_hal_tim_ex.h"
 1538              		.file 21 "Drivers/STM32F3xx_HAL_Driver/Inc/stm32f3xx_hal.h"
 1539              		.file 22 "Core/Inc/os.h"
 1540              		.file 23 "<built-in>"
ARM GAS  C:\Users\jisu8\AppData\Local\Temp\ccbbtk2q.s 			page 49


DEFINED SYMBOLS
                            *ABS*:00000000 main.c
C:\Users\jisu8\AppData\Local\Temp\ccbbtk2q.s:20     .text.MX_GPIO_Init:00000000 $t
C:\Users\jisu8\AppData\Local\Temp\ccbbtk2q.s:25     .text.MX_GPIO_Init:00000000 MX_GPIO_Init
C:\Users\jisu8\AppData\Local\Temp\ccbbtk2q.s:196    .text.MX_GPIO_Init:000000c8 $d
C:\Users\jisu8\AppData\Local\Temp\ccbbtk2q.s:202    .text.MX_DMA_Init:00000000 $t
C:\Users\jisu8\AppData\Local\Temp\ccbbtk2q.s:207    .text.MX_DMA_Init:00000000 MX_DMA_Init
C:\Users\jisu8\AppData\Local\Temp\ccbbtk2q.s:300    .text.MX_DMA_Init:00000070 $d
C:\Users\jisu8\AppData\Local\Temp\ccbbtk2q.s:305    .text.Error_Handler:00000000 $t
C:\Users\jisu8\AppData\Local\Temp\ccbbtk2q.s:311    .text.Error_Handler:00000000 Error_Handler
C:\Users\jisu8\AppData\Local\Temp\ccbbtk2q.s:343    .text.MX_ADC2_Init:00000000 $t
C:\Users\jisu8\AppData\Local\Temp\ccbbtk2q.s:348    .text.MX_ADC2_Init:00000000 MX_ADC2_Init
C:\Users\jisu8\AppData\Local\Temp\ccbbtk2q.s:472    .text.MX_ADC2_Init:0000006c $d
C:\Users\jisu8\AppData\Local\Temp\ccbbtk2q.s:478    .text.MX_SPI2_Init:00000000 $t
C:\Users\jisu8\AppData\Local\Temp\ccbbtk2q.s:483    .text.MX_SPI2_Init:00000000 MX_SPI2_Init
C:\Users\jisu8\AppData\Local\Temp\ccbbtk2q.s:559    .text.MX_SPI2_Init:00000040 $d
C:\Users\jisu8\AppData\Local\Temp\ccbbtk2q.s:565    .text.MX_USART1_UART_Init:00000000 $t
C:\Users\jisu8\AppData\Local\Temp\ccbbtk2q.s:570    .text.MX_USART1_UART_Init:00000000 MX_USART1_UART_Init
C:\Users\jisu8\AppData\Local\Temp\ccbbtk2q.s:631    .text.MX_USART1_UART_Init:00000030 $d
C:\Users\jisu8\AppData\Local\Temp\ccbbtk2q.s:637    .text.MX_USART2_UART_Init:00000000 $t
C:\Users\jisu8\AppData\Local\Temp\ccbbtk2q.s:642    .text.MX_USART2_UART_Init:00000000 MX_USART2_UART_Init
C:\Users\jisu8\AppData\Local\Temp\ccbbtk2q.s:703    .text.MX_USART2_UART_Init:00000030 $d
C:\Users\jisu8\AppData\Local\Temp\ccbbtk2q.s:709    .text.MX_USART3_UART_Init:00000000 $t
C:\Users\jisu8\AppData\Local\Temp\ccbbtk2q.s:714    .text.MX_USART3_UART_Init:00000000 MX_USART3_UART_Init
C:\Users\jisu8\AppData\Local\Temp\ccbbtk2q.s:775    .text.MX_USART3_UART_Init:00000030 $d
C:\Users\jisu8\AppData\Local\Temp\ccbbtk2q.s:781    .text.MX_TIM3_Init:00000000 $t
C:\Users\jisu8\AppData\Local\Temp\ccbbtk2q.s:786    .text.MX_TIM3_Init:00000000 MX_TIM3_Init
C:\Users\jisu8\AppData\Local\Temp\ccbbtk2q.s:908    .text.MX_TIM3_Init:00000078 $d
C:\Users\jisu8\AppData\Local\Temp\ccbbtk2q.s:914    .text.MX_RTC_Init:00000000 $t
C:\Users\jisu8\AppData\Local\Temp\ccbbtk2q.s:919    .text.MX_RTC_Init:00000000 MX_RTC_Init
C:\Users\jisu8\AppData\Local\Temp\ccbbtk2q.s:1049   .text.MX_RTC_Init:00000084 $d
C:\Users\jisu8\AppData\Local\Temp\ccbbtk2q.s:1055   .text.MX_TIM16_Init:00000000 $t
C:\Users\jisu8\AppData\Local\Temp\ccbbtk2q.s:1060   .text.MX_TIM16_Init:00000000 MX_TIM16_Init
C:\Users\jisu8\AppData\Local\Temp\ccbbtk2q.s:1112   .text.MX_TIM16_Init:00000028 $d
C:\Users\jisu8\AppData\Local\Temp\ccbbtk2q.s:1118   .text.MX_TIM17_Init:00000000 $t
C:\Users\jisu8\AppData\Local\Temp\ccbbtk2q.s:1123   .text.MX_TIM17_Init:00000000 MX_TIM17_Init
C:\Users\jisu8\AppData\Local\Temp\ccbbtk2q.s:1175   .text.MX_TIM17_Init:00000028 $d
C:\Users\jisu8\AppData\Local\Temp\ccbbtk2q.s:1181   .text.SystemClock_Config:00000000 $t
C:\Users\jisu8\AppData\Local\Temp\ccbbtk2q.s:1187   .text.SystemClock_Config:00000000 SystemClock_Config
C:\Users\jisu8\AppData\Local\Temp\ccbbtk2q.s:1330   .text.SystemClock_Config:00000090 $d
C:\Users\jisu8\AppData\Local\Temp\ccbbtk2q.s:1335   .text.main:00000000 $t
C:\Users\jisu8\AppData\Local\Temp\ccbbtk2q.s:1341   .text.main:00000000 main
C:\Users\jisu8\AppData\Local\Temp\ccbbtk2q.s:1413   .text.main:0000004c $d
C:\Users\jisu8\AppData\Local\Temp\ccbbtk2q.s:1460   .bss.hdma_usart3_rx:00000000 hdma_usart3_rx
C:\Users\jisu8\AppData\Local\Temp\ccbbtk2q.s:1454   .bss.hdma_usart2_rx:00000000 hdma_usart2_rx
C:\Users\jisu8\AppData\Local\Temp\ccbbtk2q.s:1448   .bss.hdma_usart1_rx:00000000 hdma_usart1_rx
C:\Users\jisu8\AppData\Local\Temp\ccbbtk2q.s:1516   .bss.huart3:00000000 huart3
C:\Users\jisu8\AppData\Local\Temp\ccbbtk2q.s:1509   .bss.huart2:00000000 huart2
C:\Users\jisu8\AppData\Local\Temp\ccbbtk2q.s:1502   .bss.huart1:00000000 huart1
C:\Users\jisu8\AppData\Local\Temp\ccbbtk2q.s:1488   .bss.htim17:00000000 htim17
C:\Users\jisu8\AppData\Local\Temp\ccbbtk2q.s:1481   .bss.htim16:00000000 htim16
C:\Users\jisu8\AppData\Local\Temp\ccbbtk2q.s:1495   .bss.htim3:00000000 htim3
C:\Users\jisu8\AppData\Local\Temp\ccbbtk2q.s:1474   .bss.hspi2:00000000 hspi2
C:\Users\jisu8\AppData\Local\Temp\ccbbtk2q.s:1467   .bss.hrtc:00000000 hrtc
C:\Users\jisu8\AppData\Local\Temp\ccbbtk2q.s:1442   .bss.hdma_adc2:00000000 hdma_adc2
C:\Users\jisu8\AppData\Local\Temp\ccbbtk2q.s:1436   .bss.hadc2:00000000 hadc2
C:\Users\jisu8\AppData\Local\Temp\ccbbtk2q.s:1432   .bss.hadc2:00000000 $d
ARM GAS  C:\Users\jisu8\AppData\Local\Temp\ccbbtk2q.s 			page 50


C:\Users\jisu8\AppData\Local\Temp\ccbbtk2q.s:1439   .bss.hdma_adc2:00000000 $d
C:\Users\jisu8\AppData\Local\Temp\ccbbtk2q.s:1445   .bss.hdma_usart1_rx:00000000 $d
C:\Users\jisu8\AppData\Local\Temp\ccbbtk2q.s:1451   .bss.hdma_usart2_rx:00000000 $d
C:\Users\jisu8\AppData\Local\Temp\ccbbtk2q.s:1457   .bss.hdma_usart3_rx:00000000 $d
C:\Users\jisu8\AppData\Local\Temp\ccbbtk2q.s:1463   .bss.hrtc:00000000 $d
C:\Users\jisu8\AppData\Local\Temp\ccbbtk2q.s:1470   .bss.hspi2:00000000 $d
C:\Users\jisu8\AppData\Local\Temp\ccbbtk2q.s:1477   .bss.htim16:00000000 $d
C:\Users\jisu8\AppData\Local\Temp\ccbbtk2q.s:1484   .bss.htim17:00000000 $d
C:\Users\jisu8\AppData\Local\Temp\ccbbtk2q.s:1491   .bss.htim3:00000000 $d
C:\Users\jisu8\AppData\Local\Temp\ccbbtk2q.s:1498   .bss.huart1:00000000 $d
C:\Users\jisu8\AppData\Local\Temp\ccbbtk2q.s:1505   .bss.huart2:00000000 $d
C:\Users\jisu8\AppData\Local\Temp\ccbbtk2q.s:1512   .bss.huart3:00000000 $d

UNDEFINED SYMBOLS
HAL_GPIO_WritePin
HAL_GPIO_Init
HAL_NVIC_SetPriority
HAL_NVIC_EnableIRQ
HAL_ADC_Init
HAL_ADC_ConfigChannel
HAL_SPI_Init
HAL_UART_Init
HAL_TIM_PWM_Init
HAL_TIMEx_MasterConfigSynchronization
HAL_TIM_PWM_ConfigChannel
HAL_TIM_MspPostInit
HAL_RTC_Init
HAL_RTC_SetTime
HAL_RTC_SetDate
HAL_TIM_Base_Init
memset
HAL_RCC_OscConfig
HAL_RCC_ClockConfig
HAL_RCCEx_PeriphCLKConfig
HAL_Init
HAL_TIM_Base_Start_IT
Os_Init_Task
Os_Handler
