ARM GAS  C:\Users\jisu8\AppData\Local\Temp\ccoU5MPz.s 			page 1


   1              		.cpu cortex-m4
   2              		.arch armv7e-m
   3              		.fpu fpv4-sp-d16
   4              		.eabi_attribute 27, 1
   5              		.eabi_attribute 28, 1
   6              		.eabi_attribute 20, 1
   7              		.eabi_attribute 21, 1
   8              		.eabi_attribute 23, 3
   9              		.eabi_attribute 24, 1
  10              		.eabi_attribute 25, 1
  11              		.eabi_attribute 26, 1
  12              		.eabi_attribute 30, 1
  13              		.eabi_attribute 34, 1
  14              		.eabi_attribute 18, 4
  15              		.file	"rtc.c"
  16              		.text
  17              	.Ltext0:
  18              		.cfi_sections	.debug_frame
  19              		.section	.text.RTC_Measure_Time,"ax",%progbits
  20              		.align	1
  21              		.global	RTC_Measure_Time
  22              		.syntax unified
  23              		.thumb
  24              		.thumb_func
  26              	RTC_Measure_Time:
  27              	.LFB133:
  28              		.file 1 "Core/Src/rtc.c"
   1:Core/Src/rtc.c **** #include "rtc.h"
   2:Core/Src/rtc.c **** #include "device.h"
   3:Core/Src/rtc.c **** 
   4:Core/Src/rtc.c **** uint32_t time_counters;
   5:Core/Src/rtc.c **** uint16_t RTC_hours,RTC_minutes,RTC_seconds;
   6:Core/Src/rtc.c **** 
   7:Core/Src/rtc.c **** 
   8:Core/Src/rtc.c **** void RTC_Measure_Time(void)
   9:Core/Src/rtc.c **** {
  29              		.loc 1 9 1 view -0
  30              		.cfi_startproc
  31              		@ args = 0, pretend = 0, frame = 24
  32              		@ frame_needed = 0, uses_anonymous_args = 0
  33 0000 10B5     		push	{r4, lr}
  34              	.LCFI0:
  35              		.cfi_def_cfa_offset 8
  36              		.cfi_offset 4, -8
  37              		.cfi_offset 14, -4
  38 0002 86B0     		sub	sp, sp, #24
  39              	.LCFI1:
  40              		.cfi_def_cfa_offset 32
  10:Core/Src/rtc.c ****     RTC_TimeTypeDef Time;
  41              		.loc 1 10 5 view .LVU1
  11:Core/Src/rtc.c ****     RTC_DateTypeDef Date;
  42              		.loc 1 11 5 view .LVU2
  12:Core/Src/rtc.c ****     HAL_RTC_GetTime(&hrtc, &Time, FORMAT_BIN);
  43              		.loc 1 12 5 view .LVU3
  44 0004 0C4C     		ldr	r4, .L3
  45 0006 0022     		movs	r2, #0
  46 0008 01A9     		add	r1, sp, #4
ARM GAS  C:\Users\jisu8\AppData\Local\Temp\ccoU5MPz.s 			page 2


  47 000a 2046     		mov	r0, r4
  48 000c FFF7FEFF 		bl	HAL_RTC_GetTime
  49              	.LVL0:
  13:Core/Src/rtc.c ****     HAL_RTC_GetDate(&hrtc, &Date, FORMAT_BIN);
  50              		.loc 1 13 5 view .LVU4
  51 0010 0022     		movs	r2, #0
  52 0012 6946     		mov	r1, sp
  53 0014 2046     		mov	r0, r4
  54 0016 FFF7FEFF 		bl	HAL_RTC_GetDate
  55              	.LVL1:
  14:Core/Src/rtc.c ****     RTC_hours = Time.Hours;
  56              		.loc 1 14 5 view .LVU5
  57              		.loc 1 14 21 is_stmt 0 view .LVU6
  58 001a 9DF80420 		ldrb	r2, [sp, #4]	@ zero_extendqisi2
  59              		.loc 1 14 15 view .LVU7
  60 001e 074B     		ldr	r3, .L3+4
  61 0020 1A80     		strh	r2, [r3]	@ movhi
  15:Core/Src/rtc.c ****     RTC_minutes = Time.Minutes;
  62              		.loc 1 15 5 is_stmt 1 view .LVU8
  63              		.loc 1 15 23 is_stmt 0 view .LVU9
  64 0022 9DF80520 		ldrb	r2, [sp, #5]	@ zero_extendqisi2
  65              		.loc 1 15 17 view .LVU10
  66 0026 064B     		ldr	r3, .L3+8
  67 0028 1A80     		strh	r2, [r3]	@ movhi
  16:Core/Src/rtc.c ****     RTC_seconds = Time.Seconds;
  68              		.loc 1 16 5 is_stmt 1 view .LVU11
  69              		.loc 1 16 23 is_stmt 0 view .LVU12
  70 002a 9DF80620 		ldrb	r2, [sp, #6]	@ zero_extendqisi2
  71              		.loc 1 16 17 view .LVU13
  72 002e 054B     		ldr	r3, .L3+12
  73 0030 1A80     		strh	r2, [r3]	@ movhi
  17:Core/Src/rtc.c **** }
  74              		.loc 1 17 1 view .LVU14
  75 0032 06B0     		add	sp, sp, #24
  76              	.LCFI2:
  77              		.cfi_def_cfa_offset 8
  78              		@ sp needed
  79 0034 10BD     		pop	{r4, pc}
  80              	.L4:
  81 0036 00BF     		.align	2
  82              	.L3:
  83 0038 00000000 		.word	hrtc
  84 003c 00000000 		.word	.LANCHOR0
  85 0040 00000000 		.word	.LANCHOR1
  86 0044 00000000 		.word	.LANCHOR2
  87              		.cfi_endproc
  88              	.LFE133:
  90              		.section	.rodata.RTC_AlarmConfig.str1.4,"aMS",%progbits,1
  91              		.align	2
  92              	.LC0:
  93 0000 53657420 		.ascii	"Set Alarm %02d:%02d:%02d\012\000"
  93      416C6172 
  93      6D202530 
  93      32643A25 
  93      3032643A 
  94 001a 0000     		.align	2
  95              	.LC1:
ARM GAS  C:\Users\jisu8\AppData\Local\Temp\ccoU5MPz.s 			page 3


  96 001c 57696C6C 		.ascii	"Will Wake-up %02d:%02d:%02d\012\000"
  96      2057616B 
  96      652D7570 
  96      20253032 
  96      643A2530 
  97              		.section	.text.RTC_AlarmConfig,"ax",%progbits
  98              		.align	1
  99              		.global	RTC_AlarmConfig
 100              		.syntax unified
 101              		.thumb
 102              		.thumb_func
 104              	RTC_AlarmConfig:
 105              	.LFB134:
  18:Core/Src/rtc.c ****     
  19:Core/Src/rtc.c **** void RTC_AlarmConfig(void)
  20:Core/Src/rtc.c **** {
 106              		.loc 1 20 1 is_stmt 1 view -0
 107              		.cfi_startproc
 108              		@ args = 0, pretend = 0, frame = 120
 109              		@ frame_needed = 0, uses_anonymous_args = 0
 110 0000 30B5     		push	{r4, r5, lr}
 111              	.LCFI3:
 112              		.cfi_def_cfa_offset 12
 113              		.cfi_offset 4, -12
 114              		.cfi_offset 5, -8
 115              		.cfi_offset 14, -4
 116 0002 A1B0     		sub	sp, sp, #132
 117              	.LCFI4:
 118              		.cfi_def_cfa_offset 144
  21:Core/Src/rtc.c ****     RTC_AlarmTypeDef salarmstructure = {0};
 119              		.loc 1 21 5 view .LVU16
 120              		.loc 1 21 22 is_stmt 0 view .LVU17
 121 0004 2822     		movs	r2, #40
 122 0006 0021     		movs	r1, #0
 123 0008 16A8     		add	r0, sp, #88
 124 000a FFF7FEFF 		bl	memset
 125              	.LVL2:
  22:Core/Src/rtc.c ****     RTC_TimeTypeDef sTime = {0};
 126              		.loc 1 22 5 is_stmt 1 view .LVU18
 127              		.loc 1 22 21 is_stmt 0 view .LVU19
 128 000e 0024     		movs	r4, #0
 129 0010 1194     		str	r4, [sp, #68]
 130 0012 1294     		str	r4, [sp, #72]
 131 0014 1394     		str	r4, [sp, #76]
 132 0016 1494     		str	r4, [sp, #80]
 133 0018 1594     		str	r4, [sp, #84]
  23:Core/Src/rtc.c ****     RTC_DateTypeDef sDate = {0};
 134              		.loc 1 23 5 is_stmt 1 view .LVU20
 135              		.loc 1 23 21 is_stmt 0 view .LVU21
 136 001a 1094     		str	r4, [sp, #64]
  24:Core/Src/rtc.c ****     uint8_t tx_buf[50] = {0,};
 137              		.loc 1 24 5 is_stmt 1 view .LVU22
 138              		.loc 1 24 13 is_stmt 0 view .LVU23
 139 001c 0394     		str	r4, [sp, #12]
 140 001e 2E22     		movs	r2, #46
 141 0020 2146     		mov	r1, r4
 142 0022 04A8     		add	r0, sp, #16
ARM GAS  C:\Users\jisu8\AppData\Local\Temp\ccoU5MPz.s 			page 4


 143 0024 FFF7FEFF 		bl	memset
 144              	.LVL3:
  25:Core/Src/rtc.c ****     
  26:Core/Src/rtc.c ****     HAL_RTC_GetTime(&hrtc, &sTime, FORMAT_BIN);
 145              		.loc 1 26 5 is_stmt 1 view .LVU24
 146 0028 474D     		ldr	r5, .L15
 147 002a 2246     		mov	r2, r4
 148 002c 11A9     		add	r1, sp, #68
 149 002e 2846     		mov	r0, r5
 150 0030 FFF7FEFF 		bl	HAL_RTC_GetTime
 151              	.LVL4:
  27:Core/Src/rtc.c ****     HAL_RTC_GetDate(&hrtc, &sDate, FORMAT_BIN);
 152              		.loc 1 27 5 view .LVU25
 153 0034 2246     		mov	r2, r4
 154 0036 10A9     		add	r1, sp, #64
 155 0038 2846     		mov	r0, r5
 156 003a FFF7FEFF 		bl	HAL_RTC_GetDate
 157              	.LVL5:
  28:Core/Src/rtc.c ****     sprintf(tx_buf,"Set Alarm %02d:%02d:%02d\n",sTime.Hours,sTime.Minutes,sTime.Seconds);
 158              		.loc 1 28 5 view .LVU26
 159              		.loc 1 28 80 is_stmt 0 view .LVU27
 160 003e 9DF84630 		ldrb	r3, [sp, #70]	@ zero_extendqisi2
 161              		.loc 1 28 5 view .LVU28
 162 0042 0093     		str	r3, [sp]
 163 0044 9DF84530 		ldrb	r3, [sp, #69]	@ zero_extendqisi2
 164 0048 9DF84420 		ldrb	r2, [sp, #68]	@ zero_extendqisi2
 165 004c 3F49     		ldr	r1, .L15+4
 166 004e 03A8     		add	r0, sp, #12
 167 0050 FFF7FEFF 		bl	sprintf
 168              	.LVL6:
  29:Core/Src/rtc.c ****     Debug_Message_Transmit(tx_buf);
 169              		.loc 1 29 5 is_stmt 1 view .LVU29
 170 0054 03A8     		add	r0, sp, #12
 171 0056 FFF7FEFF 		bl	Debug_Message_Transmit
 172              	.LVL7:
  30:Core/Src/rtc.c ****     /*##-3- Configure the RTC Alarm peripheral #################################*/
  31:Core/Src/rtc.c ****     /* RTC Alarm Generation: Alarm on Hours, Minutes and Seconds */
  32:Core/Src/rtc.c ****     if(DEVICE_SENSOR_DETECTED == Device_Sensor_Signal)
 173              		.loc 1 32 5 view .LVU30
 174              		.loc 1 32 31 is_stmt 0 view .LVU31
 175 005a 3D4B     		ldr	r3, .L15+8
 176 005c 1B78     		ldrb	r3, [r3]	@ zero_extendqisi2
 177              		.loc 1 32 7 view .LVU32
 178 005e 012B     		cmp	r3, #1
 179 0060 61D0     		beq	.L13
  33:Core/Src/rtc.c ****     {
  34:Core/Src/rtc.c ****         salarmstructure.AlarmTime.Hours   = sTime.Hours;
  35:Core/Src/rtc.c ****         salarmstructure.AlarmTime.Minutes = sTime.Minutes + ((REPORT_TIME_INIT / 60) % 60);   
  36:Core/Src/rtc.c ****         salarmstructure.AlarmTime.Seconds = sTime.Seconds + (REPORT_TIME_INIT % 60);        
  37:Core/Src/rtc.c ****     }
  38:Core/Src/rtc.c ****     else
  39:Core/Src/rtc.c ****     {
  40:Core/Src/rtc.c ****         salarmstructure.AlarmTime.Hours   = sTime.Hours + (Device_Report_Cycle / 3600); // Sleep Ti
 180              		.loc 1 40 9 is_stmt 1 view .LVU33
 181              		.loc 1 40 50 is_stmt 0 view .LVU34
 182 0062 9DF84430 		ldrb	r3, [sp, #68]	@ zero_extendqisi2
 183              		.loc 1 40 80 view .LVU35
ARM GAS  C:\Users\jisu8\AppData\Local\Temp\ccoU5MPz.s 			page 5


 184 0066 3B4A     		ldr	r2, .L15+12
 185 0068 1168     		ldr	r1, [r2]
 186 006a 3B4A     		ldr	r2, .L15+16
 187 006c A2FB0102 		umull	r0, r2, r2, r1
 188              		.loc 1 40 57 view .LVU36
 189 0070 03EBD223 		add	r3, r3, r2, lsr #11
 190              		.loc 1 40 43 view .LVU37
 191 0074 8DF85830 		strb	r3, [sp, #88]
  41:Core/Src/rtc.c ****         salarmstructure.AlarmTime.Minutes = sTime.Minutes + ((Device_Report_Cycle / 60) % 60);   
 192              		.loc 1 41 9 is_stmt 1 view .LVU38
 193              		.loc 1 41 50 is_stmt 0 view .LVU39
 194 0078 9DF84500 		ldrb	r0, [sp, #69]	@ zero_extendqisi2
 195              		.loc 1 41 83 view .LVU40
 196 007c 374B     		ldr	r3, .L15+20
 197 007e A3FB0142 		umull	r4, r2, r3, r1
 198 0082 5209     		lsrs	r2, r2, #5
 199              		.loc 1 41 89 view .LVU41
 200 0084 A3FB0243 		umull	r4, r3, r3, r2
 201 0088 5B09     		lsrs	r3, r3, #5
 202 008a C3EB0313 		rsb	r3, r3, r3, lsl #4
 203 008e A2EB8303 		sub	r3, r2, r3, lsl #2
 204              		.loc 1 41 59 view .LVU42
 205 0092 0344     		add	r3, r3, r0
 206              		.loc 1 41 43 view .LVU43
 207 0094 8DF85930 		strb	r3, [sp, #89]
  42:Core/Src/rtc.c ****         salarmstructure.AlarmTime.Seconds = sTime.Seconds + (Device_Report_Cycle % 60);
 208              		.loc 1 42 9 is_stmt 1 view .LVU44
 209              		.loc 1 42 50 is_stmt 0 view .LVU45
 210 0098 9DF84630 		ldrb	r3, [sp, #70]	@ zero_extendqisi2
 211              		.loc 1 42 82 view .LVU46
 212 009c C2EB0212 		rsb	r2, r2, r2, lsl #4
 213 00a0 A1EB8202 		sub	r2, r1, r2, lsl #2
 214              		.loc 1 42 59 view .LVU47
 215 00a4 1A44     		add	r2, r2, r3
 216              		.loc 1 42 43 view .LVU48
 217 00a6 8DF85A20 		strb	r2, [sp, #90]
 218              	.L7:
  43:Core/Src/rtc.c ****     }
  44:Core/Src/rtc.c ****     salarmstructure.AlarmTime.DayLightSaving = RTC_DAYLIGHTSAVING_NONE;
 219              		.loc 1 44 5 is_stmt 1 view .LVU49
  45:Core/Src/rtc.c ****     salarmstructure.AlarmTime.StoreOperation = RTC_STOREOPERATION_RESET;
 220              		.loc 1 45 5 view .LVU50
  46:Core/Src/rtc.c ****     salarmstructure.AlarmMask = RTC_ALARMMASK_HOURS|RTC_ALARMMASK_MINUTES|RTC_ALARMMASK_SECONDS;
 221              		.loc 1 46 5 view .LVU51
 222              		.loc 1 46 31 is_stmt 0 view .LVU52
 223 00aa 2D4B     		ldr	r3, .L15+24
 224 00ac 1B93     		str	r3, [sp, #108]
  47:Core/Src/rtc.c ****     salarmstructure.AlarmSubSecondMask = RTC_ALARMSUBSECONDMASK_ALL;
 225              		.loc 1 47 5 is_stmt 1 view .LVU53
  48:Core/Src/rtc.c ****     salarmstructure.AlarmDateWeekDaySel = RTC_ALARMDATEWEEKDAYSEL_DATE;
 226              		.loc 1 48 5 view .LVU54
  49:Core/Src/rtc.c ****     salarmstructure.AlarmDateWeekDay = 1;
 227              		.loc 1 49 5 view .LVU55
 228              		.loc 1 49 38 is_stmt 0 view .LVU56
 229 00ae 0123     		movs	r3, #1
 230 00b0 8DF87830 		strb	r3, [sp, #120]
  50:Core/Src/rtc.c ****     salarmstructure.Alarm = RTC_ALARM_A;
ARM GAS  C:\Users\jisu8\AppData\Local\Temp\ccoU5MPz.s 			page 6


 231              		.loc 1 50 5 is_stmt 1 view .LVU57
 232              		.loc 1 50 27 is_stmt 0 view .LVU58
 233 00b4 4FF48073 		mov	r3, #256
 234 00b8 1F93     		str	r3, [sp, #124]
  51:Core/Src/rtc.c **** 
  52:Core/Src/rtc.c ****     if( salarmstructure.AlarmTime.Seconds >= 60 )
 235              		.loc 1 52 5 is_stmt 1 view .LVU59
 236              		.loc 1 52 34 is_stmt 0 view .LVU60
 237 00ba 9DF85A30 		ldrb	r3, [sp, #90]	@ zero_extendqisi2
 238              		.loc 1 52 7 view .LVU61
 239 00be 3B2B     		cmp	r3, #59
 240 00c0 07D9     		bls	.L8
  53:Core/Src/rtc.c ****     {
  54:Core/Src/rtc.c ****         salarmstructure.AlarmTime.Seconds -= 60;
 241              		.loc 1 54 9 is_stmt 1 view .LVU62
 242              		.loc 1 54 43 is_stmt 0 view .LVU63
 243 00c2 3C3B     		subs	r3, r3, #60
 244 00c4 8DF85A30 		strb	r3, [sp, #90]
  55:Core/Src/rtc.c ****         salarmstructure.AlarmTime.Minutes++;
 245              		.loc 1 55 9 is_stmt 1 view .LVU64
 246              		.loc 1 55 34 is_stmt 0 view .LVU65
 247 00c8 9DF85930 		ldrb	r3, [sp, #89]	@ zero_extendqisi2
 248              		.loc 1 55 42 view .LVU66
 249 00cc 0133     		adds	r3, r3, #1
 250 00ce 8DF85930 		strb	r3, [sp, #89]
 251              	.L8:
  56:Core/Src/rtc.c ****     }
  57:Core/Src/rtc.c ****     
  58:Core/Src/rtc.c ****     if( salarmstructure.AlarmTime.Minutes >= 60 )
 252              		.loc 1 58 5 is_stmt 1 view .LVU67
 253              		.loc 1 58 34 is_stmt 0 view .LVU68
 254 00d2 9DF85930 		ldrb	r3, [sp, #89]	@ zero_extendqisi2
 255              		.loc 1 58 7 view .LVU69
 256 00d6 3B2B     		cmp	r3, #59
 257 00d8 07D9     		bls	.L9
  59:Core/Src/rtc.c ****     {
  60:Core/Src/rtc.c ****         salarmstructure.AlarmTime.Minutes -= 60;
 258              		.loc 1 60 9 is_stmt 1 view .LVU70
 259              		.loc 1 60 43 is_stmt 0 view .LVU71
 260 00da 3C3B     		subs	r3, r3, #60
 261 00dc 8DF85930 		strb	r3, [sp, #89]
  61:Core/Src/rtc.c ****         salarmstructure.AlarmTime.Hours++;
 262              		.loc 1 61 9 is_stmt 1 view .LVU72
 263              		.loc 1 61 34 is_stmt 0 view .LVU73
 264 00e0 9DF85830 		ldrb	r3, [sp, #88]	@ zero_extendqisi2
 265              		.loc 1 61 40 view .LVU74
 266 00e4 0133     		adds	r3, r3, #1
 267 00e6 8DF85830 		strb	r3, [sp, #88]
 268              	.L9:
  62:Core/Src/rtc.c ****     }
  63:Core/Src/rtc.c ****     
  64:Core/Src/rtc.c ****     if( salarmstructure.AlarmTime.Hours >= 24 )
 269              		.loc 1 64 5 is_stmt 1 view .LVU75
 270              		.loc 1 64 34 is_stmt 0 view .LVU76
 271 00ea 9DF85830 		ldrb	r3, [sp, #88]	@ zero_extendqisi2
 272              		.loc 1 64 7 view .LVU77
 273 00ee 172B     		cmp	r3, #23
ARM GAS  C:\Users\jisu8\AppData\Local\Temp\ccoU5MPz.s 			page 7


 274 00f0 02D9     		bls	.L10
  65:Core/Src/rtc.c ****     {
  66:Core/Src/rtc.c ****         salarmstructure.AlarmTime.Hours -= 24;
 275              		.loc 1 66 9 is_stmt 1 view .LVU78
 276              		.loc 1 66 41 is_stmt 0 view .LVU79
 277 00f2 183B     		subs	r3, r3, #24
 278 00f4 8DF85830 		strb	r3, [sp, #88]
 279              	.L10:
  67:Core/Src/rtc.c ****     }
  68:Core/Src/rtc.c ****     
  69:Core/Src/rtc.c ****     sprintf(tx_buf,"Will Wake-up %02d:%02d:%02d\n",salarmstructure.AlarmTime.Hours,salarmstructure.
 280              		.loc 1 69 5 is_stmt 1 view .LVU80
 281              		.loc 1 69 143 is_stmt 0 view .LVU81
 282 00f8 9DF85A30 		ldrb	r3, [sp, #90]	@ zero_extendqisi2
 283              		.loc 1 69 5 view .LVU82
 284 00fc 0093     		str	r3, [sp]
 285 00fe 9DF85930 		ldrb	r3, [sp, #89]	@ zero_extendqisi2
 286 0102 9DF85820 		ldrb	r2, [sp, #88]	@ zero_extendqisi2
 287 0106 1749     		ldr	r1, .L15+28
 288 0108 03A8     		add	r0, sp, #12
 289 010a FFF7FEFF 		bl	sprintf
 290              	.LVL8:
  70:Core/Src/rtc.c ****     Debug_Message_Transmit(tx_buf);
 291              		.loc 1 70 5 is_stmt 1 view .LVU83
 292 010e 03A8     		add	r0, sp, #12
 293 0110 FFF7FEFF 		bl	Debug_Message_Transmit
 294              	.LVL9:
  71:Core/Src/rtc.c **** 
  72:Core/Src/rtc.c ****     if (HAL_RTCEx_SetWakeUpTimer_IT(&hrtc, Device_Report_Cycle, RTC_WAKEUPCLOCK_CK_SPRE_16BITS) != 
 295              		.loc 1 72 5 view .LVU84
 296              		.loc 1 72 9 is_stmt 0 view .LVU85
 297 0114 0422     		movs	r2, #4
 298 0116 0F4B     		ldr	r3, .L15+12
 299 0118 1968     		ldr	r1, [r3]
 300 011a 0B48     		ldr	r0, .L15
 301 011c FFF7FEFF 		bl	HAL_RTCEx_SetWakeUpTimer_IT
 302              	.LVL10:
 303              		.loc 1 72 8 view .LVU86
 304 0120 78B9     		cbnz	r0, .L14
 305              	.L5:
  73:Core/Src/rtc.c ****     {
  74:Core/Src/rtc.c ****         Error_Handler();
  75:Core/Src/rtc.c ****     }
  76:Core/Src/rtc.c **** }
 306              		.loc 1 76 1 view .LVU87
 307 0122 21B0     		add	sp, sp, #132
 308              	.LCFI5:
 309              		.cfi_remember_state
 310              		.cfi_def_cfa_offset 12
 311              		@ sp needed
 312 0124 30BD     		pop	{r4, r5, pc}
 313              	.L13:
 314              	.LCFI6:
 315              		.cfi_restore_state
  34:Core/Src/rtc.c ****         salarmstructure.AlarmTime.Minutes = sTime.Minutes + ((REPORT_TIME_INIT / 60) % 60);   
 316              		.loc 1 34 9 is_stmt 1 view .LVU88
  34:Core/Src/rtc.c ****         salarmstructure.AlarmTime.Minutes = sTime.Minutes + ((REPORT_TIME_INIT / 60) % 60);   
ARM GAS  C:\Users\jisu8\AppData\Local\Temp\ccoU5MPz.s 			page 8


 317              		.loc 1 34 50 is_stmt 0 view .LVU89
 318 0126 9DF84430 		ldrb	r3, [sp, #68]	@ zero_extendqisi2
  34:Core/Src/rtc.c ****         salarmstructure.AlarmTime.Minutes = sTime.Minutes + ((REPORT_TIME_INIT / 60) % 60);   
 319              		.loc 1 34 43 view .LVU90
 320 012a 8DF85830 		strb	r3, [sp, #88]
  35:Core/Src/rtc.c ****         salarmstructure.AlarmTime.Seconds = sTime.Seconds + (REPORT_TIME_INIT % 60);        
 321              		.loc 1 35 9 is_stmt 1 view .LVU91
  35:Core/Src/rtc.c ****         salarmstructure.AlarmTime.Seconds = sTime.Seconds + (REPORT_TIME_INIT % 60);        
 322              		.loc 1 35 50 is_stmt 0 view .LVU92
 323 012e 9DF84530 		ldrb	r3, [sp, #69]	@ zero_extendqisi2
  35:Core/Src/rtc.c ****         salarmstructure.AlarmTime.Seconds = sTime.Seconds + (REPORT_TIME_INIT % 60);        
 324              		.loc 1 35 59 view .LVU93
 325 0132 0F33     		adds	r3, r3, #15
  35:Core/Src/rtc.c ****         salarmstructure.AlarmTime.Seconds = sTime.Seconds + (REPORT_TIME_INIT % 60);        
 326              		.loc 1 35 43 view .LVU94
 327 0134 8DF85930 		strb	r3, [sp, #89]
  36:Core/Src/rtc.c ****     }
 328              		.loc 1 36 9 is_stmt 1 view .LVU95
  36:Core/Src/rtc.c ****     }
 329              		.loc 1 36 50 is_stmt 0 view .LVU96
 330 0138 9DF84630 		ldrb	r3, [sp, #70]	@ zero_extendqisi2
  36:Core/Src/rtc.c ****     }
 331              		.loc 1 36 43 view .LVU97
 332 013c 8DF85A30 		strb	r3, [sp, #90]
 333 0140 B3E7     		b	.L7
 334              	.L14:
  74:Core/Src/rtc.c ****     }
 335              		.loc 1 74 9 is_stmt 1 view .LVU98
 336 0142 FFF7FEFF 		bl	Error_Handler
 337              	.LVL11:
 338              		.loc 1 76 1 is_stmt 0 view .LVU99
 339 0146 ECE7     		b	.L5
 340              	.L16:
 341              		.align	2
 342              	.L15:
 343 0148 00000000 		.word	hrtc
 344 014c 00000000 		.word	.LC0
 345 0150 00000000 		.word	Device_Sensor_Signal
 346 0154 00000000 		.word	Device_Report_Cycle
 347 0158 C5B3A291 		.word	-1851608123
 348 015c 89888888 		.word	-2004318071
 349 0160 80808000 		.word	8421504
 350 0164 1C000000 		.word	.LC1
 351              		.cfi_endproc
 352              	.LFE134:
 354              		.global	RTC_seconds
 355              		.global	RTC_minutes
 356              		.global	RTC_hours
 357              		.global	time_counters
 358              		.section	.bss.RTC_hours,"aw",%nobits
 359              		.align	1
 360              		.set	.LANCHOR0,. + 0
 363              	RTC_hours:
 364 0000 0000     		.space	2
 365              		.section	.bss.RTC_minutes,"aw",%nobits
 366              		.align	1
 367              		.set	.LANCHOR1,. + 0
ARM GAS  C:\Users\jisu8\AppData\Local\Temp\ccoU5MPz.s 			page 9


 370              	RTC_minutes:
 371 0000 0000     		.space	2
 372              		.section	.bss.RTC_seconds,"aw",%nobits
 373              		.align	1
 374              		.set	.LANCHOR2,. + 0
 377              	RTC_seconds:
 378 0000 0000     		.space	2
 379              		.section	.bss.time_counters,"aw",%nobits
 380              		.align	2
 383              	time_counters:
 384 0000 00000000 		.space	4
 385              		.text
 386              	.Letext0:
 387              		.file 2 "d:\\3.tools\\arm_gcc_toolchain\\arm-none-eabi\\include\\machine\\_default_types.h"
 388              		.file 3 "d:\\3.tools\\arm_gcc_toolchain\\arm-none-eabi\\include\\sys\\_stdint.h"
 389              		.file 4 "Drivers/CMSIS/Device/ST/STM32F3xx/Include/stm32f303xc.h"
 390              		.file 5 "Drivers/STM32F3xx_HAL_Driver/Inc/stm32f3xx_hal_def.h"
 391              		.file 6 "Drivers/STM32F3xx_HAL_Driver/Inc/stm32f3xx_hal_rtc.h"
 392              		.file 7 "Core/Inc/main.h"
 393              		.file 8 "Core/Inc/rtc.h"
 394              		.file 9 "Core/Inc/device.h"
 395              		.file 10 "d:\\3.tools\\arm_gcc_toolchain\\arm-none-eabi\\include\\stdio.h"
 396              		.file 11 "Drivers/STM32F3xx_HAL_Driver/Inc/stm32f3xx_hal_rtc_ex.h"
 397              		.file 12 "<built-in>"
ARM GAS  C:\Users\jisu8\AppData\Local\Temp\ccoU5MPz.s 			page 10

