ARM GAS  C:\Users\jisu8\AppData\Local\Temp\cc2cE8l0.s 			page 1


   1              		.cpu cortex-m4
   2              		.arch armv7e-m
   3              		.fpu fpv4-sp-d16
   4              		.eabi_attribute 27, 1
   5              		.eabi_attribute 28, 1
   6              		.eabi_attribute 20, 1
   7              		.eabi_attribute 21, 1
   8              		.eabi_attribute 23, 3
   9              		.eabi_attribute 24, 1
  10              		.eabi_attribute 25, 1
  11              		.eabi_attribute 26, 1
  12              		.eabi_attribute 30, 1
  13              		.eabi_attribute 34, 1
  14              		.eabi_attribute 18, 4
  15              		.file	"startup_stm32f303xc.c"
  16              		.text
  17              	.Ltext0:
  18              		.cfi_sections	.debug_frame
  19              		.section	.text.Reset_Handler,"ax",%progbits
  20              		.align	1
  21              		.global	Reset_Handler
  22              		.syntax unified
  23              		.thumb
  24              		.thumb_func
  26              	Reset_Handler:
  27              	.LFB133:
  28              		.file 1 "startup_stm32f303xc.c"
   1:startup_stm32f303xc.c **** #include "stdint.h"
   2:startup_stm32f303xc.c **** #include "main.h"
   3:startup_stm32f303xc.c **** 
   4:startup_stm32f303xc.c **** extern uint32_t _sidata;
   5:startup_stm32f303xc.c **** extern uint32_t _sdata;
   6:startup_stm32f303xc.c **** extern uint32_t _edata;
   7:startup_stm32f303xc.c **** extern uint32_t _sbss;
   8:startup_stm32f303xc.c **** extern uint32_t _ebss;
   9:startup_stm32f303xc.c **** extern uint32_t _estack;
  10:startup_stm32f303xc.c **** 
  11:startup_stm32f303xc.c **** extern void __libc_init_array();
  12:startup_stm32f303xc.c **** 
  13:startup_stm32f303xc.c **** void Reset_Handler()
  14:startup_stm32f303xc.c **** {
  29              		.loc 1 14 1 view -0
  30              		.cfi_startproc
  31              		@ args = 0, pretend = 0, frame = 0
  32              		@ frame_needed = 0, uses_anonymous_args = 0
  33 0000 08B5     		push	{r3, lr}
  34              	.LCFI0:
  35              		.cfi_def_cfa_offset 8
  36              		.cfi_offset 3, -8
  37              		.cfi_offset 14, -4
  15:startup_stm32f303xc.c ****     uint32_t *dataInit = &_sidata;
  38              		.loc 1 15 5 view .LVU1
  39              	.LVL0:
  16:startup_stm32f303xc.c ****     uint32_t *data = &_sdata;
  40              		.loc 1 16 5 view .LVU2
  17:startup_stm32f303xc.c ****     while(data < &_edata)
  41              		.loc 1 17 5 view .LVU3
ARM GAS  C:\Users\jisu8\AppData\Local\Temp\cc2cE8l0.s 			page 2


  16:startup_stm32f303xc.c ****     uint32_t *data = &_sdata;
  42              		.loc 1 16 15 is_stmt 0 view .LVU4
  43 0002 0C4B     		ldr	r3, .L8
  15:startup_stm32f303xc.c ****     uint32_t *dataInit = &_sidata;
  44              		.loc 1 15 15 view .LVU5
  45 0004 0C4A     		ldr	r2, .L8+4
  46              		.loc 1 17 10 view .LVU6
  47 0006 03E0     		b	.L2
  48              	.LVL1:
  49              	.L3:
  18:startup_stm32f303xc.c ****     {
  19:startup_stm32f303xc.c ****         *data++ = *dataInit++;
  50              		.loc 1 19 9 is_stmt 1 view .LVU7
  51              		.loc 1 19 19 is_stmt 0 view .LVU8
  52 0008 52F8041B 		ldr	r1, [r2], #4
  53              	.LVL2:
  54              		.loc 1 19 17 view .LVU9
  55 000c 43F8041B 		str	r1, [r3], #4
  56              	.LVL3:
  57              	.L2:
  17:startup_stm32f303xc.c ****     while(data < &_edata)
  58              		.loc 1 17 10 is_stmt 1 view .LVU10
  59 0010 0A49     		ldr	r1, .L8+8
  60 0012 8B42     		cmp	r3, r1
  61 0014 F8D3     		bcc	.L3
  20:startup_stm32f303xc.c ****     }
  21:startup_stm32f303xc.c **** 
  22:startup_stm32f303xc.c ****     uint32_t *bss = &_sbss;
  62              		.loc 1 22 15 is_stmt 0 view .LVU11
  63 0016 0A4B     		ldr	r3, .L8+12
  64              	.LVL4:
  65              		.loc 1 22 15 view .LVU12
  66 0018 02E0     		b	.L4
  67              	.LVL5:
  68              	.L5:
  23:startup_stm32f303xc.c ****     while(bss < &_ebss)
  24:startup_stm32f303xc.c ****     {
  25:startup_stm32f303xc.c ****         *bss++ = 0;
  69              		.loc 1 25 9 is_stmt 1 view .LVU13
  70              		.loc 1 25 16 is_stmt 0 view .LVU14
  71 001a 0022     		movs	r2, #0
  72 001c 43F8042B 		str	r2, [r3], #4
  73              	.LVL6:
  74              	.L4:
  23:startup_stm32f303xc.c ****     while(bss < &_ebss)
  75              		.loc 1 23 10 is_stmt 1 view .LVU15
  76 0020 084A     		ldr	r2, .L8+16
  77 0022 9342     		cmp	r3, r2
  78 0024 F9D3     		bcc	.L5
  26:startup_stm32f303xc.c ****     }
  27:startup_stm32f303xc.c **** 
  28:startup_stm32f303xc.c ****     SystemInit(); 
  79              		.loc 1 28 5 view .LVU16
  80 0026 FFF7FEFF 		bl	SystemInit
  81              	.LVL7:
  29:startup_stm32f303xc.c ****     __libc_init_array();
  82              		.loc 1 29 5 view .LVU17
ARM GAS  C:\Users\jisu8\AppData\Local\Temp\cc2cE8l0.s 			page 3


  83 002a FFF7FEFF 		bl	__libc_init_array
  84              	.LVL8:
  30:startup_stm32f303xc.c ****     main();
  85              		.loc 1 30 5 view .LVU18
  86 002e FFF7FEFF 		bl	main
  87              	.LVL9:
  88              	.L6:
  31:startup_stm32f303xc.c **** 
  32:startup_stm32f303xc.c ****     while (1);
  89              		.loc 1 32 5 discriminator 1 view .LVU19
  90              		.loc 1 32 14 discriminator 1 view .LVU20
  91              		.loc 1 32 11 discriminator 1 view .LVU21
  92 0032 FEE7     		b	.L6
  93              	.L9:
  94              		.align	2
  95              	.L8:
  96 0034 00000000 		.word	_sdata
  97 0038 00000000 		.word	_sidata
  98 003c 00000000 		.word	_edata
  99 0040 00000000 		.word	_sbss
 100 0044 00000000 		.word	_ebss
 101              		.cfi_endproc
 102              	.LFE133:
 104              		.section	.text.Default_Handler,"ax",%progbits
 105              		.align	1
 106              		.global	Default_Handler
 107              		.syntax unified
 108              		.thumb
 109              		.thumb_func
 111              	Default_Handler:
 112              	.LFB134:
  33:startup_stm32f303xc.c **** }
  34:startup_stm32f303xc.c **** 
  35:startup_stm32f303xc.c **** void Default_Handler(void)
  36:startup_stm32f303xc.c **** {
 113              		.loc 1 36 1 view -0
 114              		.cfi_startproc
 115              		@ Volatile: function does not return.
 116              		@ args = 0, pretend = 0, frame = 0
 117              		@ frame_needed = 0, uses_anonymous_args = 0
 118              		@ link register save eliminated.
 119              	.L11:
  37:startup_stm32f303xc.c ****     while (1);
 120              		.loc 1 37 5 discriminator 1 view .LVU23
 121              		.loc 1 37 14 discriminator 1 view .LVU24
 122              		.loc 1 37 11 discriminator 1 view .LVU25
 123 0000 FEE7     		b	.L11
 124              		.cfi_endproc
 125              	.LFE134:
 127              		.section	.text.NMI_Handler,"ax",%progbits
 128              		.align	1
 129              		.weak	NMI_Handler
 130              		.syntax unified
 131              		.thumb
 132              		.thumb_func
 134              	NMI_Handler:
 135              	.LFB136:
ARM GAS  C:\Users\jisu8\AppData\Local\Temp\cc2cE8l0.s 			page 4


  38:startup_stm32f303xc.c **** }
  39:startup_stm32f303xc.c **** 
  40:startup_stm32f303xc.c **** void SystemTick_Handler(void)
  41:startup_stm32f303xc.c **** {
  42:startup_stm32f303xc.c ****     HAL_IncTick();
  43:startup_stm32f303xc.c **** }
  44:startup_stm32f303xc.c **** 
  45:startup_stm32f303xc.c **** __weak void NMI_Handler(void)                          {Default_Handler();}
 136              		.loc 1 45 56 view -0
 137              		.cfi_startproc
 138              		@ args = 0, pretend = 0, frame = 0
 139              		@ frame_needed = 0, uses_anonymous_args = 0
 140 0000 08B5     		push	{r3, lr}
 141              	.LCFI1:
 142              		.cfi_def_cfa_offset 8
 143              		.cfi_offset 3, -8
 144              		.cfi_offset 14, -4
 145              		.loc 1 45 57 view .LVU27
 146 0002 FFF7FEFF 		bl	Default_Handler
 147              	.LVL10:
 148              		.cfi_endproc
 149              	.LFE136:
 151              		.section	.text.HardFault_Handler,"ax",%progbits
 152              		.align	1
 153              		.weak	HardFault_Handler
 154              		.syntax unified
 155              		.thumb
 156              		.thumb_func
 158              	HardFault_Handler:
 159              	.LFB137:
  46:startup_stm32f303xc.c **** __weak void HardFault_Handler(void)                    {Default_Handler();}
 160              		.loc 1 46 56 view -0
 161              		.cfi_startproc
 162              		@ args = 0, pretend = 0, frame = 0
 163              		@ frame_needed = 0, uses_anonymous_args = 0
 164 0000 08B5     		push	{r3, lr}
 165              	.LCFI2:
 166              		.cfi_def_cfa_offset 8
 167              		.cfi_offset 3, -8
 168              		.cfi_offset 14, -4
 169              		.loc 1 46 57 view .LVU29
 170 0002 FFF7FEFF 		bl	Default_Handler
 171              	.LVL11:
 172              		.cfi_endproc
 173              	.LFE137:
 175              		.section	.text.MemManage_Handler,"ax",%progbits
 176              		.align	1
 177              		.weak	MemManage_Handler
 178              		.syntax unified
 179              		.thumb
 180              		.thumb_func
 182              	MemManage_Handler:
 183              	.LFB138:
  47:startup_stm32f303xc.c **** __weak void MemManage_Handler(void)                    {Default_Handler();}  
 184              		.loc 1 47 56 view -0
 185              		.cfi_startproc
 186              		@ args = 0, pretend = 0, frame = 0
ARM GAS  C:\Users\jisu8\AppData\Local\Temp\cc2cE8l0.s 			page 5


 187              		@ frame_needed = 0, uses_anonymous_args = 0
 188 0000 08B5     		push	{r3, lr}
 189              	.LCFI3:
 190              		.cfi_def_cfa_offset 8
 191              		.cfi_offset 3, -8
 192              		.cfi_offset 14, -4
 193              		.loc 1 47 57 view .LVU31
 194 0002 FFF7FEFF 		bl	Default_Handler
 195              	.LVL12:
 196              		.cfi_endproc
 197              	.LFE138:
 199              		.section	.text.BusFault_Handler,"ax",%progbits
 200              		.align	1
 201              		.weak	BusFault_Handler
 202              		.syntax unified
 203              		.thumb
 204              		.thumb_func
 206              	BusFault_Handler:
 207              	.LFB139:
  48:startup_stm32f303xc.c **** __weak void BusFault_Handler(void)                     {Default_Handler();}  
 208              		.loc 1 48 56 view -0
 209              		.cfi_startproc
 210              		@ args = 0, pretend = 0, frame = 0
 211              		@ frame_needed = 0, uses_anonymous_args = 0
 212 0000 08B5     		push	{r3, lr}
 213              	.LCFI4:
 214              		.cfi_def_cfa_offset 8
 215              		.cfi_offset 3, -8
 216              		.cfi_offset 14, -4
 217              		.loc 1 48 57 view .LVU33
 218 0002 FFF7FEFF 		bl	Default_Handler
 219              	.LVL13:
 220              		.cfi_endproc
 221              	.LFE139:
 223              		.section	.text.UsageFault_Handler,"ax",%progbits
 224              		.align	1
 225              		.weak	UsageFault_Handler
 226              		.syntax unified
 227              		.thumb
 228              		.thumb_func
 230              	UsageFault_Handler:
 231              	.LFB140:
  49:startup_stm32f303xc.c **** __weak void UsageFault_Handler(void)                   {Default_Handler();} 
 232              		.loc 1 49 56 view -0
 233              		.cfi_startproc
 234              		@ args = 0, pretend = 0, frame = 0
 235              		@ frame_needed = 0, uses_anonymous_args = 0
 236 0000 08B5     		push	{r3, lr}
 237              	.LCFI5:
 238              		.cfi_def_cfa_offset 8
 239              		.cfi_offset 3, -8
 240              		.cfi_offset 14, -4
 241              		.loc 1 49 57 view .LVU35
 242 0002 FFF7FEFF 		bl	Default_Handler
 243              	.LVL14:
 244              		.cfi_endproc
 245              	.LFE140:
ARM GAS  C:\Users\jisu8\AppData\Local\Temp\cc2cE8l0.s 			page 6


 247              		.section	.text.SVC_Handler,"ax",%progbits
 248              		.align	1
 249              		.weak	SVC_Handler
 250              		.syntax unified
 251              		.thumb
 252              		.thumb_func
 254              	SVC_Handler:
 255              	.LFB141:
  50:startup_stm32f303xc.c **** __weak void SVC_Handler(void)                          {Default_Handler();}
 256              		.loc 1 50 56 view -0
 257              		.cfi_startproc
 258              		@ args = 0, pretend = 0, frame = 0
 259              		@ frame_needed = 0, uses_anonymous_args = 0
 260 0000 08B5     		push	{r3, lr}
 261              	.LCFI6:
 262              		.cfi_def_cfa_offset 8
 263              		.cfi_offset 3, -8
 264              		.cfi_offset 14, -4
 265              		.loc 1 50 57 view .LVU37
 266 0002 FFF7FEFF 		bl	Default_Handler
 267              	.LVL15:
 268              		.cfi_endproc
 269              	.LFE141:
 271              		.section	.text.DebugMon_Handler,"ax",%progbits
 272              		.align	1
 273              		.weak	DebugMon_Handler
 274              		.syntax unified
 275              		.thumb
 276              		.thumb_func
 278              	DebugMon_Handler:
 279              	.LFB142:
  51:startup_stm32f303xc.c **** __weak void DebugMon_Handler(void)                     {Default_Handler();}
 280              		.loc 1 51 56 view -0
 281              		.cfi_startproc
 282              		@ args = 0, pretend = 0, frame = 0
 283              		@ frame_needed = 0, uses_anonymous_args = 0
 284 0000 08B5     		push	{r3, lr}
 285              	.LCFI7:
 286              		.cfi_def_cfa_offset 8
 287              		.cfi_offset 3, -8
 288              		.cfi_offset 14, -4
 289              		.loc 1 51 57 view .LVU39
 290 0002 FFF7FEFF 		bl	Default_Handler
 291              	.LVL16:
 292              		.cfi_endproc
 293              	.LFE142:
 295              		.section	.text.PendSV_Handler,"ax",%progbits
 296              		.align	1
 297              		.weak	PendSV_Handler
 298              		.syntax unified
 299              		.thumb
 300              		.thumb_func
 302              	PendSV_Handler:
 303              	.LFB143:
  52:startup_stm32f303xc.c **** __weak void PendSV_Handler(void)                       {Default_Handler();}
 304              		.loc 1 52 56 view -0
 305              		.cfi_startproc
ARM GAS  C:\Users\jisu8\AppData\Local\Temp\cc2cE8l0.s 			page 7


 306              		@ args = 0, pretend = 0, frame = 0
 307              		@ frame_needed = 0, uses_anonymous_args = 0
 308 0000 08B5     		push	{r3, lr}
 309              	.LCFI8:
 310              		.cfi_def_cfa_offset 8
 311              		.cfi_offset 3, -8
 312              		.cfi_offset 14, -4
 313              		.loc 1 52 57 view .LVU41
 314 0002 FFF7FEFF 		bl	Default_Handler
 315              	.LVL17:
 316              		.cfi_endproc
 317              	.LFE143:
 319              		.section	.text.WWDG_IRQHandler,"ax",%progbits
 320              		.align	1
 321              		.weak	WWDG_IRQHandler
 322              		.syntax unified
 323              		.thumb
 324              		.thumb_func
 326              	WWDG_IRQHandler:
 327              	.LFB145:
  53:startup_stm32f303xc.c **** __weak void SysTick_Handler(void)                      {SystemTick_Handler();}
  54:startup_stm32f303xc.c **** __weak void WWDG_IRQHandler(void)                      {Default_Handler();}
 328              		.loc 1 54 56 view -0
 329              		.cfi_startproc
 330              		@ args = 0, pretend = 0, frame = 0
 331              		@ frame_needed = 0, uses_anonymous_args = 0
 332 0000 08B5     		push	{r3, lr}
 333              	.LCFI9:
 334              		.cfi_def_cfa_offset 8
 335              		.cfi_offset 3, -8
 336              		.cfi_offset 14, -4
 337              		.loc 1 54 57 view .LVU43
 338 0002 FFF7FEFF 		bl	Default_Handler
 339              	.LVL18:
 340              		.cfi_endproc
 341              	.LFE145:
 343              		.section	.text.PVD_IRQHandler,"ax",%progbits
 344              		.align	1
 345              		.weak	PVD_IRQHandler
 346              		.syntax unified
 347              		.thumb
 348              		.thumb_func
 350              	PVD_IRQHandler:
 351              	.LFB146:
  55:startup_stm32f303xc.c **** __weak void PVD_IRQHandler(void)                       {Default_Handler();}
 352              		.loc 1 55 56 view -0
 353              		.cfi_startproc
 354              		@ args = 0, pretend = 0, frame = 0
 355              		@ frame_needed = 0, uses_anonymous_args = 0
 356 0000 08B5     		push	{r3, lr}
 357              	.LCFI10:
 358              		.cfi_def_cfa_offset 8
 359              		.cfi_offset 3, -8
 360              		.cfi_offset 14, -4
 361              		.loc 1 55 57 view .LVU45
 362 0002 FFF7FEFF 		bl	Default_Handler
 363              	.LVL19:
ARM GAS  C:\Users\jisu8\AppData\Local\Temp\cc2cE8l0.s 			page 8


 364              		.cfi_endproc
 365              	.LFE146:
 367              		.section	.text.TAMP_STAMP_IRQHandler,"ax",%progbits
 368              		.align	1
 369              		.weak	TAMP_STAMP_IRQHandler
 370              		.syntax unified
 371              		.thumb
 372              		.thumb_func
 374              	TAMP_STAMP_IRQHandler:
 375              	.LFB147:
  56:startup_stm32f303xc.c **** __weak void TAMP_STAMP_IRQHandler(void)                {Default_Handler();}
 376              		.loc 1 56 56 view -0
 377              		.cfi_startproc
 378              		@ args = 0, pretend = 0, frame = 0
 379              		@ frame_needed = 0, uses_anonymous_args = 0
 380 0000 08B5     		push	{r3, lr}
 381              	.LCFI11:
 382              		.cfi_def_cfa_offset 8
 383              		.cfi_offset 3, -8
 384              		.cfi_offset 14, -4
 385              		.loc 1 56 57 view .LVU47
 386 0002 FFF7FEFF 		bl	Default_Handler
 387              	.LVL20:
 388              		.cfi_endproc
 389              	.LFE147:
 391              		.section	.text.RTC_WKUP_IRQHandler,"ax",%progbits
 392              		.align	1
 393              		.weak	RTC_WKUP_IRQHandler
 394              		.syntax unified
 395              		.thumb
 396              		.thumb_func
 398              	RTC_WKUP_IRQHandler:
 399              	.LFB148:
  57:startup_stm32f303xc.c **** __weak void RTC_WKUP_IRQHandler(void)                  {Default_Handler();}
 400              		.loc 1 57 56 view -0
 401              		.cfi_startproc
 402              		@ args = 0, pretend = 0, frame = 0
 403              		@ frame_needed = 0, uses_anonymous_args = 0
 404 0000 08B5     		push	{r3, lr}
 405              	.LCFI12:
 406              		.cfi_def_cfa_offset 8
 407              		.cfi_offset 3, -8
 408              		.cfi_offset 14, -4
 409              		.loc 1 57 57 view .LVU49
 410 0002 FFF7FEFF 		bl	Default_Handler
 411              	.LVL21:
 412              		.cfi_endproc
 413              	.LFE148:
 415              		.section	.text.FLASH_IRQHandler,"ax",%progbits
 416              		.align	1
 417              		.weak	FLASH_IRQHandler
 418              		.syntax unified
 419              		.thumb
 420              		.thumb_func
 422              	FLASH_IRQHandler:
 423              	.LFB149:
  58:startup_stm32f303xc.c **** __weak void FLASH_IRQHandler(void)                     {Default_Handler();}
ARM GAS  C:\Users\jisu8\AppData\Local\Temp\cc2cE8l0.s 			page 9


 424              		.loc 1 58 56 view -0
 425              		.cfi_startproc
 426              		@ args = 0, pretend = 0, frame = 0
 427              		@ frame_needed = 0, uses_anonymous_args = 0
 428 0000 08B5     		push	{r3, lr}
 429              	.LCFI13:
 430              		.cfi_def_cfa_offset 8
 431              		.cfi_offset 3, -8
 432              		.cfi_offset 14, -4
 433              		.loc 1 58 57 view .LVU51
 434 0002 FFF7FEFF 		bl	Default_Handler
 435              	.LVL22:
 436              		.cfi_endproc
 437              	.LFE149:
 439              		.section	.text.RCC_IRQHandler,"ax",%progbits
 440              		.align	1
 441              		.weak	RCC_IRQHandler
 442              		.syntax unified
 443              		.thumb
 444              		.thumb_func
 446              	RCC_IRQHandler:
 447              	.LFB150:
  59:startup_stm32f303xc.c **** __weak void RCC_IRQHandler(void)                       {Default_Handler();}
 448              		.loc 1 59 56 view -0
 449              		.cfi_startproc
 450              		@ args = 0, pretend = 0, frame = 0
 451              		@ frame_needed = 0, uses_anonymous_args = 0
 452 0000 08B5     		push	{r3, lr}
 453              	.LCFI14:
 454              		.cfi_def_cfa_offset 8
 455              		.cfi_offset 3, -8
 456              		.cfi_offset 14, -4
 457              		.loc 1 59 57 view .LVU53
 458 0002 FFF7FEFF 		bl	Default_Handler
 459              	.LVL23:
 460              		.cfi_endproc
 461              	.LFE150:
 463              		.section	.text.EXTI0_IRQHandler,"ax",%progbits
 464              		.align	1
 465              		.weak	EXTI0_IRQHandler
 466              		.syntax unified
 467              		.thumb
 468              		.thumb_func
 470              	EXTI0_IRQHandler:
 471              	.LFB151:
  60:startup_stm32f303xc.c **** __weak void EXTI0_IRQHandler(void)                     {Default_Handler();}
 472              		.loc 1 60 56 view -0
 473              		.cfi_startproc
 474              		@ args = 0, pretend = 0, frame = 0
 475              		@ frame_needed = 0, uses_anonymous_args = 0
 476 0000 08B5     		push	{r3, lr}
 477              	.LCFI15:
 478              		.cfi_def_cfa_offset 8
 479              		.cfi_offset 3, -8
 480              		.cfi_offset 14, -4
 481              		.loc 1 60 57 view .LVU55
 482 0002 FFF7FEFF 		bl	Default_Handler
ARM GAS  C:\Users\jisu8\AppData\Local\Temp\cc2cE8l0.s 			page 10


 483              	.LVL24:
 484              		.cfi_endproc
 485              	.LFE151:
 487              		.section	.text.EXTI1_IRQHandler,"ax",%progbits
 488              		.align	1
 489              		.weak	EXTI1_IRQHandler
 490              		.syntax unified
 491              		.thumb
 492              		.thumb_func
 494              	EXTI1_IRQHandler:
 495              	.LFB152:
  61:startup_stm32f303xc.c **** __weak void EXTI1_IRQHandler(void)                     {Default_Handler();}
 496              		.loc 1 61 56 view -0
 497              		.cfi_startproc
 498              		@ args = 0, pretend = 0, frame = 0
 499              		@ frame_needed = 0, uses_anonymous_args = 0
 500 0000 08B5     		push	{r3, lr}
 501              	.LCFI16:
 502              		.cfi_def_cfa_offset 8
 503              		.cfi_offset 3, -8
 504              		.cfi_offset 14, -4
 505              		.loc 1 61 57 view .LVU57
 506 0002 FFF7FEFF 		bl	Default_Handler
 507              	.LVL25:
 508              		.cfi_endproc
 509              	.LFE152:
 511              		.section	.text.EXTI2_TSC_IRQHandler,"ax",%progbits
 512              		.align	1
 513              		.weak	EXTI2_TSC_IRQHandler
 514              		.syntax unified
 515              		.thumb
 516              		.thumb_func
 518              	EXTI2_TSC_IRQHandler:
 519              	.LFB153:
  62:startup_stm32f303xc.c **** __weak void EXTI2_TSC_IRQHandler(void)                 {Default_Handler();}
 520              		.loc 1 62 56 view -0
 521              		.cfi_startproc
 522              		@ args = 0, pretend = 0, frame = 0
 523              		@ frame_needed = 0, uses_anonymous_args = 0
 524 0000 08B5     		push	{r3, lr}
 525              	.LCFI17:
 526              		.cfi_def_cfa_offset 8
 527              		.cfi_offset 3, -8
 528              		.cfi_offset 14, -4
 529              		.loc 1 62 57 view .LVU59
 530 0002 FFF7FEFF 		bl	Default_Handler
 531              	.LVL26:
 532              		.cfi_endproc
 533              	.LFE153:
 535              		.section	.text.EXTI3_IRQHandler,"ax",%progbits
 536              		.align	1
 537              		.weak	EXTI3_IRQHandler
 538              		.syntax unified
 539              		.thumb
 540              		.thumb_func
 542              	EXTI3_IRQHandler:
 543              	.LFB154:
ARM GAS  C:\Users\jisu8\AppData\Local\Temp\cc2cE8l0.s 			page 11


  63:startup_stm32f303xc.c **** __weak void EXTI3_IRQHandler(void)                     {Default_Handler();}
 544              		.loc 1 63 56 view -0
 545              		.cfi_startproc
 546              		@ args = 0, pretend = 0, frame = 0
 547              		@ frame_needed = 0, uses_anonymous_args = 0
 548 0000 08B5     		push	{r3, lr}
 549              	.LCFI18:
 550              		.cfi_def_cfa_offset 8
 551              		.cfi_offset 3, -8
 552              		.cfi_offset 14, -4
 553              		.loc 1 63 57 view .LVU61
 554 0002 FFF7FEFF 		bl	Default_Handler
 555              	.LVL27:
 556              		.cfi_endproc
 557              	.LFE154:
 559              		.section	.text.EXTI4_IRQHandler,"ax",%progbits
 560              		.align	1
 561              		.weak	EXTI4_IRQHandler
 562              		.syntax unified
 563              		.thumb
 564              		.thumb_func
 566              	EXTI4_IRQHandler:
 567              	.LFB155:
  64:startup_stm32f303xc.c **** __weak void EXTI4_IRQHandler(void)                     {Default_Handler();}
 568              		.loc 1 64 56 view -0
 569              		.cfi_startproc
 570              		@ args = 0, pretend = 0, frame = 0
 571              		@ frame_needed = 0, uses_anonymous_args = 0
 572 0000 08B5     		push	{r3, lr}
 573              	.LCFI19:
 574              		.cfi_def_cfa_offset 8
 575              		.cfi_offset 3, -8
 576              		.cfi_offset 14, -4
 577              		.loc 1 64 57 view .LVU63
 578 0002 FFF7FEFF 		bl	Default_Handler
 579              	.LVL28:
 580              		.cfi_endproc
 581              	.LFE155:
 583              		.section	.text.DMA1_Channel1_IRQHandler,"ax",%progbits
 584              		.align	1
 585              		.weak	DMA1_Channel1_IRQHandler
 586              		.syntax unified
 587              		.thumb
 588              		.thumb_func
 590              	DMA1_Channel1_IRQHandler:
 591              	.LFB156:
  65:startup_stm32f303xc.c **** __weak void DMA1_Channel1_IRQHandler(void)             {Default_Handler();}
 592              		.loc 1 65 56 view -0
 593              		.cfi_startproc
 594              		@ args = 0, pretend = 0, frame = 0
 595              		@ frame_needed = 0, uses_anonymous_args = 0
 596 0000 08B5     		push	{r3, lr}
 597              	.LCFI20:
 598              		.cfi_def_cfa_offset 8
 599              		.cfi_offset 3, -8
 600              		.cfi_offset 14, -4
 601              		.loc 1 65 57 view .LVU65
ARM GAS  C:\Users\jisu8\AppData\Local\Temp\cc2cE8l0.s 			page 12


 602 0002 FFF7FEFF 		bl	Default_Handler
 603              	.LVL29:
 604              		.cfi_endproc
 605              	.LFE156:
 607              		.section	.text.DMA1_Channel2_IRQHandler,"ax",%progbits
 608              		.align	1
 609              		.weak	DMA1_Channel2_IRQHandler
 610              		.syntax unified
 611              		.thumb
 612              		.thumb_func
 614              	DMA1_Channel2_IRQHandler:
 615              	.LFB157:
  66:startup_stm32f303xc.c **** __weak void DMA1_Channel2_IRQHandler(void)             {Default_Handler();}
 616              		.loc 1 66 56 view -0
 617              		.cfi_startproc
 618              		@ args = 0, pretend = 0, frame = 0
 619              		@ frame_needed = 0, uses_anonymous_args = 0
 620 0000 08B5     		push	{r3, lr}
 621              	.LCFI21:
 622              		.cfi_def_cfa_offset 8
 623              		.cfi_offset 3, -8
 624              		.cfi_offset 14, -4
 625              		.loc 1 66 57 view .LVU67
 626 0002 FFF7FEFF 		bl	Default_Handler
 627              	.LVL30:
 628              		.cfi_endproc
 629              	.LFE157:
 631              		.section	.text.DMA1_Channel3_IRQHandler,"ax",%progbits
 632              		.align	1
 633              		.weak	DMA1_Channel3_IRQHandler
 634              		.syntax unified
 635              		.thumb
 636              		.thumb_func
 638              	DMA1_Channel3_IRQHandler:
 639              	.LFB158:
  67:startup_stm32f303xc.c **** __weak void DMA1_Channel3_IRQHandler(void)             {Default_Handler();}
 640              		.loc 1 67 56 view -0
 641              		.cfi_startproc
 642              		@ args = 0, pretend = 0, frame = 0
 643              		@ frame_needed = 0, uses_anonymous_args = 0
 644 0000 08B5     		push	{r3, lr}
 645              	.LCFI22:
 646              		.cfi_def_cfa_offset 8
 647              		.cfi_offset 3, -8
 648              		.cfi_offset 14, -4
 649              		.loc 1 67 57 view .LVU69
 650 0002 FFF7FEFF 		bl	Default_Handler
 651              	.LVL31:
 652              		.cfi_endproc
 653              	.LFE158:
 655              		.section	.text.DMA1_Channel4_IRQHandler,"ax",%progbits
 656              		.align	1
 657              		.weak	DMA1_Channel4_IRQHandler
 658              		.syntax unified
 659              		.thumb
 660              		.thumb_func
 662              	DMA1_Channel4_IRQHandler:
ARM GAS  C:\Users\jisu8\AppData\Local\Temp\cc2cE8l0.s 			page 13


 663              	.LFB159:
  68:startup_stm32f303xc.c **** __weak void DMA1_Channel4_IRQHandler(void)             {Default_Handler();}
 664              		.loc 1 68 56 view -0
 665              		.cfi_startproc
 666              		@ args = 0, pretend = 0, frame = 0
 667              		@ frame_needed = 0, uses_anonymous_args = 0
 668 0000 08B5     		push	{r3, lr}
 669              	.LCFI23:
 670              		.cfi_def_cfa_offset 8
 671              		.cfi_offset 3, -8
 672              		.cfi_offset 14, -4
 673              		.loc 1 68 57 view .LVU71
 674 0002 FFF7FEFF 		bl	Default_Handler
 675              	.LVL32:
 676              		.cfi_endproc
 677              	.LFE159:
 679              		.section	.text.DMA1_Channel5_IRQHandler,"ax",%progbits
 680              		.align	1
 681              		.weak	DMA1_Channel5_IRQHandler
 682              		.syntax unified
 683              		.thumb
 684              		.thumb_func
 686              	DMA1_Channel5_IRQHandler:
 687              	.LFB160:
  69:startup_stm32f303xc.c **** __weak void DMA1_Channel5_IRQHandler(void)             {Default_Handler();}
 688              		.loc 1 69 56 view -0
 689              		.cfi_startproc
 690              		@ args = 0, pretend = 0, frame = 0
 691              		@ frame_needed = 0, uses_anonymous_args = 0
 692 0000 08B5     		push	{r3, lr}
 693              	.LCFI24:
 694              		.cfi_def_cfa_offset 8
 695              		.cfi_offset 3, -8
 696              		.cfi_offset 14, -4
 697              		.loc 1 69 57 view .LVU73
 698 0002 FFF7FEFF 		bl	Default_Handler
 699              	.LVL33:
 700              		.cfi_endproc
 701              	.LFE160:
 703              		.section	.text.DMA1_Channel6_IRQHandler,"ax",%progbits
 704              		.align	1
 705              		.weak	DMA1_Channel6_IRQHandler
 706              		.syntax unified
 707              		.thumb
 708              		.thumb_func
 710              	DMA1_Channel6_IRQHandler:
 711              	.LFB161:
  70:startup_stm32f303xc.c **** __weak void DMA1_Channel6_IRQHandler(void)             {Default_Handler();}
 712              		.loc 1 70 56 view -0
 713              		.cfi_startproc
 714              		@ args = 0, pretend = 0, frame = 0
 715              		@ frame_needed = 0, uses_anonymous_args = 0
 716 0000 08B5     		push	{r3, lr}
 717              	.LCFI25:
 718              		.cfi_def_cfa_offset 8
 719              		.cfi_offset 3, -8
 720              		.cfi_offset 14, -4
ARM GAS  C:\Users\jisu8\AppData\Local\Temp\cc2cE8l0.s 			page 14


 721              		.loc 1 70 57 view .LVU75
 722 0002 FFF7FEFF 		bl	Default_Handler
 723              	.LVL34:
 724              		.cfi_endproc
 725              	.LFE161:
 727              		.section	.text.DMA1_Channel7_IRQHandler,"ax",%progbits
 728              		.align	1
 729              		.weak	DMA1_Channel7_IRQHandler
 730              		.syntax unified
 731              		.thumb
 732              		.thumb_func
 734              	DMA1_Channel7_IRQHandler:
 735              	.LFB162:
  71:startup_stm32f303xc.c **** __weak void DMA1_Channel7_IRQHandler(void)             {Default_Handler();}
 736              		.loc 1 71 56 view -0
 737              		.cfi_startproc
 738              		@ args = 0, pretend = 0, frame = 0
 739              		@ frame_needed = 0, uses_anonymous_args = 0
 740 0000 08B5     		push	{r3, lr}
 741              	.LCFI26:
 742              		.cfi_def_cfa_offset 8
 743              		.cfi_offset 3, -8
 744              		.cfi_offset 14, -4
 745              		.loc 1 71 57 view .LVU77
 746 0002 FFF7FEFF 		bl	Default_Handler
 747              	.LVL35:
 748              		.cfi_endproc
 749              	.LFE162:
 751              		.section	.text.ADC1_2_IRQHandler,"ax",%progbits
 752              		.align	1
 753              		.weak	ADC1_2_IRQHandler
 754              		.syntax unified
 755              		.thumb
 756              		.thumb_func
 758              	ADC1_2_IRQHandler:
 759              	.LFB163:
  72:startup_stm32f303xc.c **** __weak void ADC1_2_IRQHandler(void)                    {Default_Handler();}
 760              		.loc 1 72 56 view -0
 761              		.cfi_startproc
 762              		@ args = 0, pretend = 0, frame = 0
 763              		@ frame_needed = 0, uses_anonymous_args = 0
 764 0000 08B5     		push	{r3, lr}
 765              	.LCFI27:
 766              		.cfi_def_cfa_offset 8
 767              		.cfi_offset 3, -8
 768              		.cfi_offset 14, -4
 769              		.loc 1 72 57 view .LVU79
 770 0002 FFF7FEFF 		bl	Default_Handler
 771              	.LVL36:
 772              		.cfi_endproc
 773              	.LFE163:
 775              		.section	.text.USB_HP_CAN_TX_IRQHandler,"ax",%progbits
 776              		.align	1
 777              		.weak	USB_HP_CAN_TX_IRQHandler
 778              		.syntax unified
 779              		.thumb
 780              		.thumb_func
ARM GAS  C:\Users\jisu8\AppData\Local\Temp\cc2cE8l0.s 			page 15


 782              	USB_HP_CAN_TX_IRQHandler:
 783              	.LFB164:
  73:startup_stm32f303xc.c **** __weak void USB_HP_CAN_TX_IRQHandler(void)             {Default_Handler();}
 784              		.loc 1 73 56 view -0
 785              		.cfi_startproc
 786              		@ args = 0, pretend = 0, frame = 0
 787              		@ frame_needed = 0, uses_anonymous_args = 0
 788 0000 08B5     		push	{r3, lr}
 789              	.LCFI28:
 790              		.cfi_def_cfa_offset 8
 791              		.cfi_offset 3, -8
 792              		.cfi_offset 14, -4
 793              		.loc 1 73 57 view .LVU81
 794 0002 FFF7FEFF 		bl	Default_Handler
 795              	.LVL37:
 796              		.cfi_endproc
 797              	.LFE164:
 799              		.section	.text.USB_LP_CAN_RX0_IRQHandler,"ax",%progbits
 800              		.align	1
 801              		.weak	USB_LP_CAN_RX0_IRQHandler
 802              		.syntax unified
 803              		.thumb
 804              		.thumb_func
 806              	USB_LP_CAN_RX0_IRQHandler:
 807              	.LFB165:
  74:startup_stm32f303xc.c **** __weak void USB_LP_CAN_RX0_IRQHandler(void)            {Default_Handler();}
 808              		.loc 1 74 56 view -0
 809              		.cfi_startproc
 810              		@ args = 0, pretend = 0, frame = 0
 811              		@ frame_needed = 0, uses_anonymous_args = 0
 812 0000 08B5     		push	{r3, lr}
 813              	.LCFI29:
 814              		.cfi_def_cfa_offset 8
 815              		.cfi_offset 3, -8
 816              		.cfi_offset 14, -4
 817              		.loc 1 74 57 view .LVU83
 818 0002 FFF7FEFF 		bl	Default_Handler
 819              	.LVL38:
 820              		.cfi_endproc
 821              	.LFE165:
 823              		.section	.text.CAN_RX1_IRQHandler,"ax",%progbits
 824              		.align	1
 825              		.weak	CAN_RX1_IRQHandler
 826              		.syntax unified
 827              		.thumb
 828              		.thumb_func
 830              	CAN_RX1_IRQHandler:
 831              	.LFB166:
  75:startup_stm32f303xc.c **** __weak void CAN_RX1_IRQHandler(void)                   {Default_Handler();}
 832              		.loc 1 75 56 view -0
 833              		.cfi_startproc
 834              		@ args = 0, pretend = 0, frame = 0
 835              		@ frame_needed = 0, uses_anonymous_args = 0
 836 0000 08B5     		push	{r3, lr}
 837              	.LCFI30:
 838              		.cfi_def_cfa_offset 8
 839              		.cfi_offset 3, -8
ARM GAS  C:\Users\jisu8\AppData\Local\Temp\cc2cE8l0.s 			page 16


 840              		.cfi_offset 14, -4
 841              		.loc 1 75 57 view .LVU85
 842 0002 FFF7FEFF 		bl	Default_Handler
 843              	.LVL39:
 844              		.cfi_endproc
 845              	.LFE166:
 847              		.section	.text.CAN_SCE_IRQHandler,"ax",%progbits
 848              		.align	1
 849              		.weak	CAN_SCE_IRQHandler
 850              		.syntax unified
 851              		.thumb
 852              		.thumb_func
 854              	CAN_SCE_IRQHandler:
 855              	.LFB167:
  76:startup_stm32f303xc.c **** __weak void CAN_SCE_IRQHandler(void)                   {Default_Handler();}
 856              		.loc 1 76 56 view -0
 857              		.cfi_startproc
 858              		@ args = 0, pretend = 0, frame = 0
 859              		@ frame_needed = 0, uses_anonymous_args = 0
 860 0000 08B5     		push	{r3, lr}
 861              	.LCFI31:
 862              		.cfi_def_cfa_offset 8
 863              		.cfi_offset 3, -8
 864              		.cfi_offset 14, -4
 865              		.loc 1 76 57 view .LVU87
 866 0002 FFF7FEFF 		bl	Default_Handler
 867              	.LVL40:
 868              		.cfi_endproc
 869              	.LFE167:
 871              		.section	.text.EXTI9_5_IRQHandler,"ax",%progbits
 872              		.align	1
 873              		.weak	EXTI9_5_IRQHandler
 874              		.syntax unified
 875              		.thumb
 876              		.thumb_func
 878              	EXTI9_5_IRQHandler:
 879              	.LFB168:
  77:startup_stm32f303xc.c **** __weak void EXTI9_5_IRQHandler(void)                   {Default_Handler();}
 880              		.loc 1 77 56 view -0
 881              		.cfi_startproc
 882              		@ args = 0, pretend = 0, frame = 0
 883              		@ frame_needed = 0, uses_anonymous_args = 0
 884 0000 08B5     		push	{r3, lr}
 885              	.LCFI32:
 886              		.cfi_def_cfa_offset 8
 887              		.cfi_offset 3, -8
 888              		.cfi_offset 14, -4
 889              		.loc 1 77 57 view .LVU89
 890 0002 FFF7FEFF 		bl	Default_Handler
 891              	.LVL41:
 892              		.cfi_endproc
 893              	.LFE168:
 895              		.section	.text.TIM1_BRK_TIM15_IRQHandler,"ax",%progbits
 896              		.align	1
 897              		.weak	TIM1_BRK_TIM15_IRQHandler
 898              		.syntax unified
 899              		.thumb
ARM GAS  C:\Users\jisu8\AppData\Local\Temp\cc2cE8l0.s 			page 17


 900              		.thumb_func
 902              	TIM1_BRK_TIM15_IRQHandler:
 903              	.LFB169:
  78:startup_stm32f303xc.c **** __weak void TIM1_BRK_TIM15_IRQHandler(void)            {Default_Handler();}
 904              		.loc 1 78 56 view -0
 905              		.cfi_startproc
 906              		@ args = 0, pretend = 0, frame = 0
 907              		@ frame_needed = 0, uses_anonymous_args = 0
 908 0000 08B5     		push	{r3, lr}
 909              	.LCFI33:
 910              		.cfi_def_cfa_offset 8
 911              		.cfi_offset 3, -8
 912              		.cfi_offset 14, -4
 913              		.loc 1 78 57 view .LVU91
 914 0002 FFF7FEFF 		bl	Default_Handler
 915              	.LVL42:
 916              		.cfi_endproc
 917              	.LFE169:
 919              		.section	.text.TIM1_UP_TIM16_IRQHandler,"ax",%progbits
 920              		.align	1
 921              		.weak	TIM1_UP_TIM16_IRQHandler
 922              		.syntax unified
 923              		.thumb
 924              		.thumb_func
 926              	TIM1_UP_TIM16_IRQHandler:
 927              	.LFB170:
  79:startup_stm32f303xc.c **** __weak void TIM1_UP_TIM16_IRQHandler(void)             {Default_Handler();}
 928              		.loc 1 79 56 view -0
 929              		.cfi_startproc
 930              		@ args = 0, pretend = 0, frame = 0
 931              		@ frame_needed = 0, uses_anonymous_args = 0
 932 0000 08B5     		push	{r3, lr}
 933              	.LCFI34:
 934              		.cfi_def_cfa_offset 8
 935              		.cfi_offset 3, -8
 936              		.cfi_offset 14, -4
 937              		.loc 1 79 57 view .LVU93
 938 0002 FFF7FEFF 		bl	Default_Handler
 939              	.LVL43:
 940              		.cfi_endproc
 941              	.LFE170:
 943              		.section	.text.TIM1_TRG_COM_TIM17_IRQHandler,"ax",%progbits
 944              		.align	1
 945              		.weak	TIM1_TRG_COM_TIM17_IRQHandler
 946              		.syntax unified
 947              		.thumb
 948              		.thumb_func
 950              	TIM1_TRG_COM_TIM17_IRQHandler:
 951              	.LFB171:
  80:startup_stm32f303xc.c **** __weak void TIM1_TRG_COM_TIM17_IRQHandler(void)        {Default_Handler();}
 952              		.loc 1 80 56 view -0
 953              		.cfi_startproc
 954              		@ args = 0, pretend = 0, frame = 0
 955              		@ frame_needed = 0, uses_anonymous_args = 0
 956 0000 08B5     		push	{r3, lr}
 957              	.LCFI35:
 958              		.cfi_def_cfa_offset 8
ARM GAS  C:\Users\jisu8\AppData\Local\Temp\cc2cE8l0.s 			page 18


 959              		.cfi_offset 3, -8
 960              		.cfi_offset 14, -4
 961              		.loc 1 80 57 view .LVU95
 962 0002 FFF7FEFF 		bl	Default_Handler
 963              	.LVL44:
 964              		.cfi_endproc
 965              	.LFE171:
 967              		.section	.text.TIM1_CC_IRQHandler,"ax",%progbits
 968              		.align	1
 969              		.weak	TIM1_CC_IRQHandler
 970              		.syntax unified
 971              		.thumb
 972              		.thumb_func
 974              	TIM1_CC_IRQHandler:
 975              	.LFB172:
  81:startup_stm32f303xc.c **** __weak void TIM1_CC_IRQHandler(void)                   {Default_Handler();}
 976              		.loc 1 81 56 view -0
 977              		.cfi_startproc
 978              		@ args = 0, pretend = 0, frame = 0
 979              		@ frame_needed = 0, uses_anonymous_args = 0
 980 0000 08B5     		push	{r3, lr}
 981              	.LCFI36:
 982              		.cfi_def_cfa_offset 8
 983              		.cfi_offset 3, -8
 984              		.cfi_offset 14, -4
 985              		.loc 1 81 57 view .LVU97
 986 0002 FFF7FEFF 		bl	Default_Handler
 987              	.LVL45:
 988              		.cfi_endproc
 989              	.LFE172:
 991              		.section	.text.TIM2_IRQHandler,"ax",%progbits
 992              		.align	1
 993              		.weak	TIM2_IRQHandler
 994              		.syntax unified
 995              		.thumb
 996              		.thumb_func
 998              	TIM2_IRQHandler:
 999              	.LFB173:
  82:startup_stm32f303xc.c **** __weak void TIM2_IRQHandler(void)                      {Default_Handler();}
 1000              		.loc 1 82 56 view -0
 1001              		.cfi_startproc
 1002              		@ args = 0, pretend = 0, frame = 0
 1003              		@ frame_needed = 0, uses_anonymous_args = 0
 1004 0000 08B5     		push	{r3, lr}
 1005              	.LCFI37:
 1006              		.cfi_def_cfa_offset 8
 1007              		.cfi_offset 3, -8
 1008              		.cfi_offset 14, -4
 1009              		.loc 1 82 57 view .LVU99
 1010 0002 FFF7FEFF 		bl	Default_Handler
 1011              	.LVL46:
 1012              		.cfi_endproc
 1013              	.LFE173:
 1015              		.section	.text.TIM3_IRQHandler,"ax",%progbits
 1016              		.align	1
 1017              		.weak	TIM3_IRQHandler
 1018              		.syntax unified
ARM GAS  C:\Users\jisu8\AppData\Local\Temp\cc2cE8l0.s 			page 19


 1019              		.thumb
 1020              		.thumb_func
 1022              	TIM3_IRQHandler:
 1023              	.LFB174:
  83:startup_stm32f303xc.c **** __weak void TIM3_IRQHandler(void)                      {Default_Handler();}
 1024              		.loc 1 83 56 view -0
 1025              		.cfi_startproc
 1026              		@ args = 0, pretend = 0, frame = 0
 1027              		@ frame_needed = 0, uses_anonymous_args = 0
 1028 0000 08B5     		push	{r3, lr}
 1029              	.LCFI38:
 1030              		.cfi_def_cfa_offset 8
 1031              		.cfi_offset 3, -8
 1032              		.cfi_offset 14, -4
 1033              		.loc 1 83 57 view .LVU101
 1034 0002 FFF7FEFF 		bl	Default_Handler
 1035              	.LVL47:
 1036              		.cfi_endproc
 1037              	.LFE174:
 1039              		.section	.text.TIM4_IRQHandler,"ax",%progbits
 1040              		.align	1
 1041              		.weak	TIM4_IRQHandler
 1042              		.syntax unified
 1043              		.thumb
 1044              		.thumb_func
 1046              	TIM4_IRQHandler:
 1047              	.LFB175:
  84:startup_stm32f303xc.c **** __weak void TIM4_IRQHandler(void)                      {Default_Handler();}
 1048              		.loc 1 84 56 view -0
 1049              		.cfi_startproc
 1050              		@ args = 0, pretend = 0, frame = 0
 1051              		@ frame_needed = 0, uses_anonymous_args = 0
 1052 0000 08B5     		push	{r3, lr}
 1053              	.LCFI39:
 1054              		.cfi_def_cfa_offset 8
 1055              		.cfi_offset 3, -8
 1056              		.cfi_offset 14, -4
 1057              		.loc 1 84 57 view .LVU103
 1058 0002 FFF7FEFF 		bl	Default_Handler
 1059              	.LVL48:
 1060              		.cfi_endproc
 1061              	.LFE175:
 1063              		.section	.text.I2C1_EV_IRQHandler,"ax",%progbits
 1064              		.align	1
 1065              		.weak	I2C1_EV_IRQHandler
 1066              		.syntax unified
 1067              		.thumb
 1068              		.thumb_func
 1070              	I2C1_EV_IRQHandler:
 1071              	.LFB176:
  85:startup_stm32f303xc.c **** __weak void I2C1_EV_IRQHandler(void)                   {Default_Handler();}
 1072              		.loc 1 85 56 view -0
 1073              		.cfi_startproc
 1074              		@ args = 0, pretend = 0, frame = 0
 1075              		@ frame_needed = 0, uses_anonymous_args = 0
 1076 0000 08B5     		push	{r3, lr}
 1077              	.LCFI40:
ARM GAS  C:\Users\jisu8\AppData\Local\Temp\cc2cE8l0.s 			page 20


 1078              		.cfi_def_cfa_offset 8
 1079              		.cfi_offset 3, -8
 1080              		.cfi_offset 14, -4
 1081              		.loc 1 85 57 view .LVU105
 1082 0002 FFF7FEFF 		bl	Default_Handler
 1083              	.LVL49:
 1084              		.cfi_endproc
 1085              	.LFE176:
 1087              		.section	.text.I2C1_ER_IRQHandler,"ax",%progbits
 1088              		.align	1
 1089              		.weak	I2C1_ER_IRQHandler
 1090              		.syntax unified
 1091              		.thumb
 1092              		.thumb_func
 1094              	I2C1_ER_IRQHandler:
 1095              	.LFB177:
  86:startup_stm32f303xc.c **** __weak void I2C1_ER_IRQHandler(void)                   {Default_Handler();}
 1096              		.loc 1 86 56 view -0
 1097              		.cfi_startproc
 1098              		@ args = 0, pretend = 0, frame = 0
 1099              		@ frame_needed = 0, uses_anonymous_args = 0
 1100 0000 08B5     		push	{r3, lr}
 1101              	.LCFI41:
 1102              		.cfi_def_cfa_offset 8
 1103              		.cfi_offset 3, -8
 1104              		.cfi_offset 14, -4
 1105              		.loc 1 86 57 view .LVU107
 1106 0002 FFF7FEFF 		bl	Default_Handler
 1107              	.LVL50:
 1108              		.cfi_endproc
 1109              	.LFE177:
 1111              		.section	.text.I2C2_EV_IRQHandler,"ax",%progbits
 1112              		.align	1
 1113              		.weak	I2C2_EV_IRQHandler
 1114              		.syntax unified
 1115              		.thumb
 1116              		.thumb_func
 1118              	I2C2_EV_IRQHandler:
 1119              	.LFB178:
  87:startup_stm32f303xc.c **** __weak void I2C2_EV_IRQHandler(void)                   {Default_Handler();}
 1120              		.loc 1 87 56 view -0
 1121              		.cfi_startproc
 1122              		@ args = 0, pretend = 0, frame = 0
 1123              		@ frame_needed = 0, uses_anonymous_args = 0
 1124 0000 08B5     		push	{r3, lr}
 1125              	.LCFI42:
 1126              		.cfi_def_cfa_offset 8
 1127              		.cfi_offset 3, -8
 1128              		.cfi_offset 14, -4
 1129              		.loc 1 87 57 view .LVU109
 1130 0002 FFF7FEFF 		bl	Default_Handler
 1131              	.LVL51:
 1132              		.cfi_endproc
 1133              	.LFE178:
 1135              		.section	.text.I2C2_ER_IRQHandler,"ax",%progbits
 1136              		.align	1
 1137              		.weak	I2C2_ER_IRQHandler
ARM GAS  C:\Users\jisu8\AppData\Local\Temp\cc2cE8l0.s 			page 21


 1138              		.syntax unified
 1139              		.thumb
 1140              		.thumb_func
 1142              	I2C2_ER_IRQHandler:
 1143              	.LFB179:
  88:startup_stm32f303xc.c **** __weak void I2C2_ER_IRQHandler(void)                   {Default_Handler();}
 1144              		.loc 1 88 56 view -0
 1145              		.cfi_startproc
 1146              		@ args = 0, pretend = 0, frame = 0
 1147              		@ frame_needed = 0, uses_anonymous_args = 0
 1148 0000 08B5     		push	{r3, lr}
 1149              	.LCFI43:
 1150              		.cfi_def_cfa_offset 8
 1151              		.cfi_offset 3, -8
 1152              		.cfi_offset 14, -4
 1153              		.loc 1 88 57 view .LVU111
 1154 0002 FFF7FEFF 		bl	Default_Handler
 1155              	.LVL52:
 1156              		.cfi_endproc
 1157              	.LFE179:
 1159              		.section	.text.SPI1_IRQHandler,"ax",%progbits
 1160              		.align	1
 1161              		.weak	SPI1_IRQHandler
 1162              		.syntax unified
 1163              		.thumb
 1164              		.thumb_func
 1166              	SPI1_IRQHandler:
 1167              	.LFB180:
  89:startup_stm32f303xc.c **** __weak void SPI1_IRQHandler(void)                      {Default_Handler();}
 1168              		.loc 1 89 56 view -0
 1169              		.cfi_startproc
 1170              		@ args = 0, pretend = 0, frame = 0
 1171              		@ frame_needed = 0, uses_anonymous_args = 0
 1172 0000 08B5     		push	{r3, lr}
 1173              	.LCFI44:
 1174              		.cfi_def_cfa_offset 8
 1175              		.cfi_offset 3, -8
 1176              		.cfi_offset 14, -4
 1177              		.loc 1 89 57 view .LVU113
 1178 0002 FFF7FEFF 		bl	Default_Handler
 1179              	.LVL53:
 1180              		.cfi_endproc
 1181              	.LFE180:
 1183              		.section	.text.SPI2_IRQHandler,"ax",%progbits
 1184              		.align	1
 1185              		.weak	SPI2_IRQHandler
 1186              		.syntax unified
 1187              		.thumb
 1188              		.thumb_func
 1190              	SPI2_IRQHandler:
 1191              	.LFB181:
  90:startup_stm32f303xc.c **** __weak void SPI2_IRQHandler(void)                      {Default_Handler();}
 1192              		.loc 1 90 56 view -0
 1193              		.cfi_startproc
 1194              		@ args = 0, pretend = 0, frame = 0
 1195              		@ frame_needed = 0, uses_anonymous_args = 0
 1196 0000 08B5     		push	{r3, lr}
ARM GAS  C:\Users\jisu8\AppData\Local\Temp\cc2cE8l0.s 			page 22


 1197              	.LCFI45:
 1198              		.cfi_def_cfa_offset 8
 1199              		.cfi_offset 3, -8
 1200              		.cfi_offset 14, -4
 1201              		.loc 1 90 57 view .LVU115
 1202 0002 FFF7FEFF 		bl	Default_Handler
 1203              	.LVL54:
 1204              		.cfi_endproc
 1205              	.LFE181:
 1207              		.section	.text.USART1_IRQHandler,"ax",%progbits
 1208              		.align	1
 1209              		.weak	USART1_IRQHandler
 1210              		.syntax unified
 1211              		.thumb
 1212              		.thumb_func
 1214              	USART1_IRQHandler:
 1215              	.LFB182:
  91:startup_stm32f303xc.c **** __weak void USART1_IRQHandler(void)                    {Default_Handler();}
 1216              		.loc 1 91 56 view -0
 1217              		.cfi_startproc
 1218              		@ args = 0, pretend = 0, frame = 0
 1219              		@ frame_needed = 0, uses_anonymous_args = 0
 1220 0000 08B5     		push	{r3, lr}
 1221              	.LCFI46:
 1222              		.cfi_def_cfa_offset 8
 1223              		.cfi_offset 3, -8
 1224              		.cfi_offset 14, -4
 1225              		.loc 1 91 57 view .LVU117
 1226 0002 FFF7FEFF 		bl	Default_Handler
 1227              	.LVL55:
 1228              		.cfi_endproc
 1229              	.LFE182:
 1231              		.section	.text.USART2_IRQHandler,"ax",%progbits
 1232              		.align	1
 1233              		.weak	USART2_IRQHandler
 1234              		.syntax unified
 1235              		.thumb
 1236              		.thumb_func
 1238              	USART2_IRQHandler:
 1239              	.LFB183:
  92:startup_stm32f303xc.c **** __weak void USART2_IRQHandler(void)                    {Default_Handler();}
 1240              		.loc 1 92 56 view -0
 1241              		.cfi_startproc
 1242              		@ args = 0, pretend = 0, frame = 0
 1243              		@ frame_needed = 0, uses_anonymous_args = 0
 1244 0000 08B5     		push	{r3, lr}
 1245              	.LCFI47:
 1246              		.cfi_def_cfa_offset 8
 1247              		.cfi_offset 3, -8
 1248              		.cfi_offset 14, -4
 1249              		.loc 1 92 57 view .LVU119
 1250 0002 FFF7FEFF 		bl	Default_Handler
 1251              	.LVL56:
 1252              		.cfi_endproc
 1253              	.LFE183:
 1255              		.section	.text.USART3_IRQHandler,"ax",%progbits
 1256              		.align	1
ARM GAS  C:\Users\jisu8\AppData\Local\Temp\cc2cE8l0.s 			page 23


 1257              		.weak	USART3_IRQHandler
 1258              		.syntax unified
 1259              		.thumb
 1260              		.thumb_func
 1262              	USART3_IRQHandler:
 1263              	.LFB184:
  93:startup_stm32f303xc.c **** __weak void USART3_IRQHandler(void)                    {Default_Handler();}
 1264              		.loc 1 93 56 view -0
 1265              		.cfi_startproc
 1266              		@ args = 0, pretend = 0, frame = 0
 1267              		@ frame_needed = 0, uses_anonymous_args = 0
 1268 0000 08B5     		push	{r3, lr}
 1269              	.LCFI48:
 1270              		.cfi_def_cfa_offset 8
 1271              		.cfi_offset 3, -8
 1272              		.cfi_offset 14, -4
 1273              		.loc 1 93 57 view .LVU121
 1274 0002 FFF7FEFF 		bl	Default_Handler
 1275              	.LVL57:
 1276              		.cfi_endproc
 1277              	.LFE184:
 1279              		.section	.text.EXTI15_10_IRQHandler,"ax",%progbits
 1280              		.align	1
 1281              		.weak	EXTI15_10_IRQHandler
 1282              		.syntax unified
 1283              		.thumb
 1284              		.thumb_func
 1286              	EXTI15_10_IRQHandler:
 1287              	.LFB185:
  94:startup_stm32f303xc.c **** __weak void EXTI15_10_IRQHandler(void)                 {Default_Handler();}
 1288              		.loc 1 94 56 view -0
 1289              		.cfi_startproc
 1290              		@ args = 0, pretend = 0, frame = 0
 1291              		@ frame_needed = 0, uses_anonymous_args = 0
 1292 0000 08B5     		push	{r3, lr}
 1293              	.LCFI49:
 1294              		.cfi_def_cfa_offset 8
 1295              		.cfi_offset 3, -8
 1296              		.cfi_offset 14, -4
 1297              		.loc 1 94 57 view .LVU123
 1298 0002 FFF7FEFF 		bl	Default_Handler
 1299              	.LVL58:
 1300              		.cfi_endproc
 1301              	.LFE185:
 1303              		.section	.text.RTC_Alarm_IRQHandler,"ax",%progbits
 1304              		.align	1
 1305              		.weak	RTC_Alarm_IRQHandler
 1306              		.syntax unified
 1307              		.thumb
 1308              		.thumb_func
 1310              	RTC_Alarm_IRQHandler:
 1311              	.LFB186:
  95:startup_stm32f303xc.c **** __weak void RTC_Alarm_IRQHandler(void)                 {Default_Handler();}
 1312              		.loc 1 95 56 view -0
 1313              		.cfi_startproc
 1314              		@ args = 0, pretend = 0, frame = 0
 1315              		@ frame_needed = 0, uses_anonymous_args = 0
ARM GAS  C:\Users\jisu8\AppData\Local\Temp\cc2cE8l0.s 			page 24


 1316 0000 08B5     		push	{r3, lr}
 1317              	.LCFI50:
 1318              		.cfi_def_cfa_offset 8
 1319              		.cfi_offset 3, -8
 1320              		.cfi_offset 14, -4
 1321              		.loc 1 95 57 view .LVU125
 1322 0002 FFF7FEFF 		bl	Default_Handler
 1323              	.LVL59:
 1324              		.cfi_endproc
 1325              	.LFE186:
 1327              		.section	.text.TIM8_BRK_IRQHandler,"ax",%progbits
 1328              		.align	1
 1329              		.weak	TIM8_BRK_IRQHandler
 1330              		.syntax unified
 1331              		.thumb
 1332              		.thumb_func
 1334              	TIM8_BRK_IRQHandler:
 1335              	.LFB187:
  96:startup_stm32f303xc.c **** //__weak void USBWakeUp_IRQHandler(void)                 {Default_Handler();}
  97:startup_stm32f303xc.c **** __weak void TIM8_BRK_IRQHandler(void)                  {Default_Handler();}
 1336              		.loc 1 97 56 view -0
 1337              		.cfi_startproc
 1338              		@ args = 0, pretend = 0, frame = 0
 1339              		@ frame_needed = 0, uses_anonymous_args = 0
 1340 0000 08B5     		push	{r3, lr}
 1341              	.LCFI51:
 1342              		.cfi_def_cfa_offset 8
 1343              		.cfi_offset 3, -8
 1344              		.cfi_offset 14, -4
 1345              		.loc 1 97 57 view .LVU127
 1346 0002 FFF7FEFF 		bl	Default_Handler
 1347              	.LVL60:
 1348              		.cfi_endproc
 1349              	.LFE187:
 1351              		.section	.text.TIM8_UP_IRQHandler,"ax",%progbits
 1352              		.align	1
 1353              		.weak	TIM8_UP_IRQHandler
 1354              		.syntax unified
 1355              		.thumb
 1356              		.thumb_func
 1358              	TIM8_UP_IRQHandler:
 1359              	.LFB188:
  98:startup_stm32f303xc.c **** __weak void TIM8_UP_IRQHandler(void)                   {Default_Handler();}
 1360              		.loc 1 98 56 view -0
 1361              		.cfi_startproc
 1362              		@ args = 0, pretend = 0, frame = 0
 1363              		@ frame_needed = 0, uses_anonymous_args = 0
 1364 0000 08B5     		push	{r3, lr}
 1365              	.LCFI52:
 1366              		.cfi_def_cfa_offset 8
 1367              		.cfi_offset 3, -8
 1368              		.cfi_offset 14, -4
 1369              		.loc 1 98 57 view .LVU129
 1370 0002 FFF7FEFF 		bl	Default_Handler
 1371              	.LVL61:
 1372              		.cfi_endproc
 1373              	.LFE188:
ARM GAS  C:\Users\jisu8\AppData\Local\Temp\cc2cE8l0.s 			page 25


 1375              		.section	.text.TIM8_TRG_COM_IRQHandler,"ax",%progbits
 1376              		.align	1
 1377              		.weak	TIM8_TRG_COM_IRQHandler
 1378              		.syntax unified
 1379              		.thumb
 1380              		.thumb_func
 1382              	TIM8_TRG_COM_IRQHandler:
 1383              	.LFB189:
  99:startup_stm32f303xc.c **** __weak void TIM8_TRG_COM_IRQHandler(void)              {Default_Handler();}
 1384              		.loc 1 99 56 view -0
 1385              		.cfi_startproc
 1386              		@ args = 0, pretend = 0, frame = 0
 1387              		@ frame_needed = 0, uses_anonymous_args = 0
 1388 0000 08B5     		push	{r3, lr}
 1389              	.LCFI53:
 1390              		.cfi_def_cfa_offset 8
 1391              		.cfi_offset 3, -8
 1392              		.cfi_offset 14, -4
 1393              		.loc 1 99 57 view .LVU131
 1394 0002 FFF7FEFF 		bl	Default_Handler
 1395              	.LVL62:
 1396              		.cfi_endproc
 1397              	.LFE189:
 1399              		.section	.text.TIM8_CC_IRQHandler,"ax",%progbits
 1400              		.align	1
 1401              		.weak	TIM8_CC_IRQHandler
 1402              		.syntax unified
 1403              		.thumb
 1404              		.thumb_func
 1406              	TIM8_CC_IRQHandler:
 1407              	.LFB190:
 100:startup_stm32f303xc.c **** __weak void TIM8_CC_IRQHandler(void)                   {Default_Handler();}
 1408              		.loc 1 100 56 view -0
 1409              		.cfi_startproc
 1410              		@ args = 0, pretend = 0, frame = 0
 1411              		@ frame_needed = 0, uses_anonymous_args = 0
 1412 0000 08B5     		push	{r3, lr}
 1413              	.LCFI54:
 1414              		.cfi_def_cfa_offset 8
 1415              		.cfi_offset 3, -8
 1416              		.cfi_offset 14, -4
 1417              		.loc 1 100 57 view .LVU133
 1418 0002 FFF7FEFF 		bl	Default_Handler
 1419              	.LVL63:
 1420              		.cfi_endproc
 1421              	.LFE190:
 1423              		.section	.text.ADC3_IRQHandler,"ax",%progbits
 1424              		.align	1
 1425              		.weak	ADC3_IRQHandler
 1426              		.syntax unified
 1427              		.thumb
 1428              		.thumb_func
 1430              	ADC3_IRQHandler:
 1431              	.LFB191:
 101:startup_stm32f303xc.c **** __weak void ADC3_IRQHandler(void)                      {Default_Handler();}
 1432              		.loc 1 101 56 view -0
 1433              		.cfi_startproc
ARM GAS  C:\Users\jisu8\AppData\Local\Temp\cc2cE8l0.s 			page 26


 1434              		@ args = 0, pretend = 0, frame = 0
 1435              		@ frame_needed = 0, uses_anonymous_args = 0
 1436 0000 08B5     		push	{r3, lr}
 1437              	.LCFI55:
 1438              		.cfi_def_cfa_offset 8
 1439              		.cfi_offset 3, -8
 1440              		.cfi_offset 14, -4
 1441              		.loc 1 101 57 view .LVU135
 1442 0002 FFF7FEFF 		bl	Default_Handler
 1443              	.LVL64:
 1444              		.cfi_endproc
 1445              	.LFE191:
 1447              		.section	.text.SPI3_IRQHandler,"ax",%progbits
 1448              		.align	1
 1449              		.weak	SPI3_IRQHandler
 1450              		.syntax unified
 1451              		.thumb
 1452              		.thumb_func
 1454              	SPI3_IRQHandler:
 1455              	.LFB192:
 102:startup_stm32f303xc.c **** __weak void SPI3_IRQHandler(void)                      {Default_Handler();}
 1456              		.loc 1 102 56 view -0
 1457              		.cfi_startproc
 1458              		@ args = 0, pretend = 0, frame = 0
 1459              		@ frame_needed = 0, uses_anonymous_args = 0
 1460 0000 08B5     		push	{r3, lr}
 1461              	.LCFI56:
 1462              		.cfi_def_cfa_offset 8
 1463              		.cfi_offset 3, -8
 1464              		.cfi_offset 14, -4
 1465              		.loc 1 102 57 view .LVU137
 1466 0002 FFF7FEFF 		bl	Default_Handler
 1467              	.LVL65:
 1468              		.cfi_endproc
 1469              	.LFE192:
 1471              		.section	.text.UART4_IRQHandler,"ax",%progbits
 1472              		.align	1
 1473              		.weak	UART4_IRQHandler
 1474              		.syntax unified
 1475              		.thumb
 1476              		.thumb_func
 1478              	UART4_IRQHandler:
 1479              	.LFB193:
 103:startup_stm32f303xc.c **** __weak void UART4_IRQHandler(void)                     {Default_Handler();}
 1480              		.loc 1 103 56 view -0
 1481              		.cfi_startproc
 1482              		@ args = 0, pretend = 0, frame = 0
 1483              		@ frame_needed = 0, uses_anonymous_args = 0
 1484 0000 08B5     		push	{r3, lr}
 1485              	.LCFI57:
 1486              		.cfi_def_cfa_offset 8
 1487              		.cfi_offset 3, -8
 1488              		.cfi_offset 14, -4
 1489              		.loc 1 103 57 view .LVU139
 1490 0002 FFF7FEFF 		bl	Default_Handler
 1491              	.LVL66:
 1492              		.cfi_endproc
ARM GAS  C:\Users\jisu8\AppData\Local\Temp\cc2cE8l0.s 			page 27


 1493              	.LFE193:
 1495              		.section	.text.UART5_IRQHandler,"ax",%progbits
 1496              		.align	1
 1497              		.weak	UART5_IRQHandler
 1498              		.syntax unified
 1499              		.thumb
 1500              		.thumb_func
 1502              	UART5_IRQHandler:
 1503              	.LFB194:
 104:startup_stm32f303xc.c **** __weak void UART5_IRQHandler(void)                     {Default_Handler();}
 1504              		.loc 1 104 56 view -0
 1505              		.cfi_startproc
 1506              		@ args = 0, pretend = 0, frame = 0
 1507              		@ frame_needed = 0, uses_anonymous_args = 0
 1508 0000 08B5     		push	{r3, lr}
 1509              	.LCFI58:
 1510              		.cfi_def_cfa_offset 8
 1511              		.cfi_offset 3, -8
 1512              		.cfi_offset 14, -4
 1513              		.loc 1 104 57 view .LVU141
 1514 0002 FFF7FEFF 		bl	Default_Handler
 1515              	.LVL67:
 1516              		.cfi_endproc
 1517              	.LFE194:
 1519              		.section	.text.TIM6_DAC_IRQHandler,"ax",%progbits
 1520              		.align	1
 1521              		.weak	TIM6_DAC_IRQHandler
 1522              		.syntax unified
 1523              		.thumb
 1524              		.thumb_func
 1526              	TIM6_DAC_IRQHandler:
 1527              	.LFB195:
 105:startup_stm32f303xc.c **** __weak void TIM6_DAC_IRQHandler(void)                  {Default_Handler();}
 1528              		.loc 1 105 56 view -0
 1529              		.cfi_startproc
 1530              		@ args = 0, pretend = 0, frame = 0
 1531              		@ frame_needed = 0, uses_anonymous_args = 0
 1532 0000 08B5     		push	{r3, lr}
 1533              	.LCFI59:
 1534              		.cfi_def_cfa_offset 8
 1535              		.cfi_offset 3, -8
 1536              		.cfi_offset 14, -4
 1537              		.loc 1 105 57 view .LVU143
 1538 0002 FFF7FEFF 		bl	Default_Handler
 1539              	.LVL68:
 1540              		.cfi_endproc
 1541              	.LFE195:
 1543              		.section	.text.TIM7_IRQHandler,"ax",%progbits
 1544              		.align	1
 1545              		.weak	TIM7_IRQHandler
 1546              		.syntax unified
 1547              		.thumb
 1548              		.thumb_func
 1550              	TIM7_IRQHandler:
 1551              	.LFB196:
 106:startup_stm32f303xc.c **** __weak void TIM7_IRQHandler(void)                      {Default_Handler();}                   
 1552              		.loc 1 106 56 view -0
ARM GAS  C:\Users\jisu8\AppData\Local\Temp\cc2cE8l0.s 			page 28


 1553              		.cfi_startproc
 1554              		@ args = 0, pretend = 0, frame = 0
 1555              		@ frame_needed = 0, uses_anonymous_args = 0
 1556 0000 08B5     		push	{r3, lr}
 1557              	.LCFI60:
 1558              		.cfi_def_cfa_offset 8
 1559              		.cfi_offset 3, -8
 1560              		.cfi_offset 14, -4
 1561              		.loc 1 106 57 view .LVU145
 1562 0002 FFF7FEFF 		bl	Default_Handler
 1563              	.LVL69:
 1564              		.cfi_endproc
 1565              	.LFE196:
 1567              		.section	.text.DMA2_Channel1_IRQHandler,"ax",%progbits
 1568              		.align	1
 1569              		.weak	DMA2_Channel1_IRQHandler
 1570              		.syntax unified
 1571              		.thumb
 1572              		.thumb_func
 1574              	DMA2_Channel1_IRQHandler:
 1575              	.LFB197:
 107:startup_stm32f303xc.c **** __weak void DMA2_Channel1_IRQHandler(void)             {Default_Handler();}
 1576              		.loc 1 107 56 view -0
 1577              		.cfi_startproc
 1578              		@ args = 0, pretend = 0, frame = 0
 1579              		@ frame_needed = 0, uses_anonymous_args = 0
 1580 0000 08B5     		push	{r3, lr}
 1581              	.LCFI61:
 1582              		.cfi_def_cfa_offset 8
 1583              		.cfi_offset 3, -8
 1584              		.cfi_offset 14, -4
 1585              		.loc 1 107 57 view .LVU147
 1586 0002 FFF7FEFF 		bl	Default_Handler
 1587              	.LVL70:
 1588              		.cfi_endproc
 1589              	.LFE197:
 1591              		.section	.text.DMA2_Channel2_IRQHandler,"ax",%progbits
 1592              		.align	1
 1593              		.weak	DMA2_Channel2_IRQHandler
 1594              		.syntax unified
 1595              		.thumb
 1596              		.thumb_func
 1598              	DMA2_Channel2_IRQHandler:
 1599              	.LFB198:
 108:startup_stm32f303xc.c **** __weak void DMA2_Channel2_IRQHandler(void)             {Default_Handler();}
 1600              		.loc 1 108 56 view -0
 1601              		.cfi_startproc
 1602              		@ args = 0, pretend = 0, frame = 0
 1603              		@ frame_needed = 0, uses_anonymous_args = 0
 1604 0000 08B5     		push	{r3, lr}
 1605              	.LCFI62:
 1606              		.cfi_def_cfa_offset 8
 1607              		.cfi_offset 3, -8
 1608              		.cfi_offset 14, -4
 1609              		.loc 1 108 57 view .LVU149
 1610 0002 FFF7FEFF 		bl	Default_Handler
 1611              	.LVL71:
ARM GAS  C:\Users\jisu8\AppData\Local\Temp\cc2cE8l0.s 			page 29


 1612              		.cfi_endproc
 1613              	.LFE198:
 1615              		.section	.text.DMA2_Channel3_IRQHandler,"ax",%progbits
 1616              		.align	1
 1617              		.weak	DMA2_Channel3_IRQHandler
 1618              		.syntax unified
 1619              		.thumb
 1620              		.thumb_func
 1622              	DMA2_Channel3_IRQHandler:
 1623              	.LFB199:
 109:startup_stm32f303xc.c **** __weak void DMA2_Channel3_IRQHandler(void)             {Default_Handler();}
 1624              		.loc 1 109 56 view -0
 1625              		.cfi_startproc
 1626              		@ args = 0, pretend = 0, frame = 0
 1627              		@ frame_needed = 0, uses_anonymous_args = 0
 1628 0000 08B5     		push	{r3, lr}
 1629              	.LCFI63:
 1630              		.cfi_def_cfa_offset 8
 1631              		.cfi_offset 3, -8
 1632              		.cfi_offset 14, -4
 1633              		.loc 1 109 57 view .LVU151
 1634 0002 FFF7FEFF 		bl	Default_Handler
 1635              	.LVL72:
 1636              		.cfi_endproc
 1637              	.LFE199:
 1639              		.section	.text.DMA2_Channel4_IRQHandler,"ax",%progbits
 1640              		.align	1
 1641              		.weak	DMA2_Channel4_IRQHandler
 1642              		.syntax unified
 1643              		.thumb
 1644              		.thumb_func
 1646              	DMA2_Channel4_IRQHandler:
 1647              	.LFB200:
 110:startup_stm32f303xc.c **** __weak void DMA2_Channel4_IRQHandler(void)             {Default_Handler();}
 1648              		.loc 1 110 56 view -0
 1649              		.cfi_startproc
 1650              		@ args = 0, pretend = 0, frame = 0
 1651              		@ frame_needed = 0, uses_anonymous_args = 0
 1652 0000 08B5     		push	{r3, lr}
 1653              	.LCFI64:
 1654              		.cfi_def_cfa_offset 8
 1655              		.cfi_offset 3, -8
 1656              		.cfi_offset 14, -4
 1657              		.loc 1 110 57 view .LVU153
 1658 0002 FFF7FEFF 		bl	Default_Handler
 1659              	.LVL73:
 1660              		.cfi_endproc
 1661              	.LFE200:
 1663              		.section	.text.DMA2_Channel5_IRQHandler,"ax",%progbits
 1664              		.align	1
 1665              		.weak	DMA2_Channel5_IRQHandler
 1666              		.syntax unified
 1667              		.thumb
 1668              		.thumb_func
 1670              	DMA2_Channel5_IRQHandler:
 1671              	.LFB201:
 111:startup_stm32f303xc.c **** __weak void DMA2_Channel5_IRQHandler(void)             {Default_Handler();}
ARM GAS  C:\Users\jisu8\AppData\Local\Temp\cc2cE8l0.s 			page 30


 1672              		.loc 1 111 56 view -0
 1673              		.cfi_startproc
 1674              		@ args = 0, pretend = 0, frame = 0
 1675              		@ frame_needed = 0, uses_anonymous_args = 0
 1676 0000 08B5     		push	{r3, lr}
 1677              	.LCFI65:
 1678              		.cfi_def_cfa_offset 8
 1679              		.cfi_offset 3, -8
 1680              		.cfi_offset 14, -4
 1681              		.loc 1 111 57 view .LVU155
 1682 0002 FFF7FEFF 		bl	Default_Handler
 1683              	.LVL74:
 1684              		.cfi_endproc
 1685              	.LFE201:
 1687              		.section	.text.ADC4_IRQHandler,"ax",%progbits
 1688              		.align	1
 1689              		.weak	ADC4_IRQHandler
 1690              		.syntax unified
 1691              		.thumb
 1692              		.thumb_func
 1694              	ADC4_IRQHandler:
 1695              	.LFB202:
 112:startup_stm32f303xc.c **** __weak void ADC4_IRQHandler(void)                      {Default_Handler();}
 1696              		.loc 1 112 56 view -0
 1697              		.cfi_startproc
 1698              		@ args = 0, pretend = 0, frame = 0
 1699              		@ frame_needed = 0, uses_anonymous_args = 0
 1700 0000 08B5     		push	{r3, lr}
 1701              	.LCFI66:
 1702              		.cfi_def_cfa_offset 8
 1703              		.cfi_offset 3, -8
 1704              		.cfi_offset 14, -4
 1705              		.loc 1 112 57 view .LVU157
 1706 0002 FFF7FEFF 		bl	Default_Handler
 1707              	.LVL75:
 1708              		.cfi_endproc
 1709              	.LFE202:
 1711              		.section	.text.COMP1_2_3_IRQHandler,"ax",%progbits
 1712              		.align	1
 1713              		.weak	COMP1_2_3_IRQHandler
 1714              		.syntax unified
 1715              		.thumb
 1716              		.thumb_func
 1718              	COMP1_2_3_IRQHandler:
 1719              	.LFB203:
 113:startup_stm32f303xc.c **** __weak void COMP1_2_3_IRQHandler(void)                 {Default_Handler();}
 1720              		.loc 1 113 56 view -0
 1721              		.cfi_startproc
 1722              		@ args = 0, pretend = 0, frame = 0
 1723              		@ frame_needed = 0, uses_anonymous_args = 0
 1724 0000 08B5     		push	{r3, lr}
 1725              	.LCFI67:
 1726              		.cfi_def_cfa_offset 8
 1727              		.cfi_offset 3, -8
 1728              		.cfi_offset 14, -4
 1729              		.loc 1 113 57 view .LVU159
 1730 0002 FFF7FEFF 		bl	Default_Handler
ARM GAS  C:\Users\jisu8\AppData\Local\Temp\cc2cE8l0.s 			page 31


 1731              	.LVL76:
 1732              		.cfi_endproc
 1733              	.LFE203:
 1735              		.section	.text.COMP4_5_6_IRQHandler,"ax",%progbits
 1736              		.align	1
 1737              		.weak	COMP4_5_6_IRQHandler
 1738              		.syntax unified
 1739              		.thumb
 1740              		.thumb_func
 1742              	COMP4_5_6_IRQHandler:
 1743              	.LFB204:
 114:startup_stm32f303xc.c **** __weak void COMP4_5_6_IRQHandler(void)                 {Default_Handler();} 
 1744              		.loc 1 114 56 view -0
 1745              		.cfi_startproc
 1746              		@ args = 0, pretend = 0, frame = 0
 1747              		@ frame_needed = 0, uses_anonymous_args = 0
 1748 0000 08B5     		push	{r3, lr}
 1749              	.LCFI68:
 1750              		.cfi_def_cfa_offset 8
 1751              		.cfi_offset 3, -8
 1752              		.cfi_offset 14, -4
 1753              		.loc 1 114 57 view .LVU161
 1754 0002 FFF7FEFF 		bl	Default_Handler
 1755              	.LVL77:
 1756              		.cfi_endproc
 1757              	.LFE204:
 1759              		.section	.text.COMP7_IRQHandler,"ax",%progbits
 1760              		.align	1
 1761              		.weak	COMP7_IRQHandler
 1762              		.syntax unified
 1763              		.thumb
 1764              		.thumb_func
 1766              	COMP7_IRQHandler:
 1767              	.LFB205:
 115:startup_stm32f303xc.c **** __weak void COMP7_IRQHandler(void)                     {Default_Handler();}
 1768              		.loc 1 115 56 view -0
 1769              		.cfi_startproc
 1770              		@ args = 0, pretend = 0, frame = 0
 1771              		@ frame_needed = 0, uses_anonymous_args = 0
 1772 0000 08B5     		push	{r3, lr}
 1773              	.LCFI69:
 1774              		.cfi_def_cfa_offset 8
 1775              		.cfi_offset 3, -8
 1776              		.cfi_offset 14, -4
 1777              		.loc 1 115 57 view .LVU163
 1778 0002 FFF7FEFF 		bl	Default_Handler
 1779              	.LVL78:
 1780              		.cfi_endproc
 1781              	.LFE205:
 1783              		.section	.text.USB_HP_IRQHandler,"ax",%progbits
 1784              		.align	1
 1785              		.weak	USB_HP_IRQHandler
 1786              		.syntax unified
 1787              		.thumb
 1788              		.thumb_func
 1790              	USB_HP_IRQHandler:
 1791              	.LFB206:
ARM GAS  C:\Users\jisu8\AppData\Local\Temp\cc2cE8l0.s 			page 32


 116:startup_stm32f303xc.c **** __weak void USB_HP_IRQHandler(void)                    {Default_Handler();}
 1792              		.loc 1 116 56 view -0
 1793              		.cfi_startproc
 1794              		@ args = 0, pretend = 0, frame = 0
 1795              		@ frame_needed = 0, uses_anonymous_args = 0
 1796 0000 08B5     		push	{r3, lr}
 1797              	.LCFI70:
 1798              		.cfi_def_cfa_offset 8
 1799              		.cfi_offset 3, -8
 1800              		.cfi_offset 14, -4
 1801              		.loc 1 116 57 view .LVU165
 1802 0002 FFF7FEFF 		bl	Default_Handler
 1803              	.LVL79:
 1804              		.cfi_endproc
 1805              	.LFE206:
 1807              		.section	.text.USB_LP_IRQHandler,"ax",%progbits
 1808              		.align	1
 1809              		.weak	USB_LP_IRQHandler
 1810              		.syntax unified
 1811              		.thumb
 1812              		.thumb_func
 1814              	USB_LP_IRQHandler:
 1815              	.LFB207:
 117:startup_stm32f303xc.c **** __weak void USB_LP_IRQHandler(void)                    {Default_Handler();}
 1816              		.loc 1 117 56 view -0
 1817              		.cfi_startproc
 1818              		@ args = 0, pretend = 0, frame = 0
 1819              		@ frame_needed = 0, uses_anonymous_args = 0
 1820 0000 08B5     		push	{r3, lr}
 1821              	.LCFI71:
 1822              		.cfi_def_cfa_offset 8
 1823              		.cfi_offset 3, -8
 1824              		.cfi_offset 14, -4
 1825              		.loc 1 117 57 view .LVU167
 1826 0002 FFF7FEFF 		bl	Default_Handler
 1827              	.LVL80:
 1828              		.cfi_endproc
 1829              	.LFE207:
 1831              		.section	.text.USBWakeUp_RMP_IRQHandler,"ax",%progbits
 1832              		.align	1
 1833              		.weak	USBWakeUp_RMP_IRQHandler
 1834              		.syntax unified
 1835              		.thumb
 1836              		.thumb_func
 1838              	USBWakeUp_RMP_IRQHandler:
 1839              	.LFB208:
 118:startup_stm32f303xc.c **** __weak void USBWakeUp_RMP_IRQHandler(void)             {Default_Handler();}
 1840              		.loc 1 118 56 view -0
 1841              		.cfi_startproc
 1842              		@ args = 0, pretend = 0, frame = 0
 1843              		@ frame_needed = 0, uses_anonymous_args = 0
 1844 0000 08B5     		push	{r3, lr}
 1845              	.LCFI72:
 1846              		.cfi_def_cfa_offset 8
 1847              		.cfi_offset 3, -8
 1848              		.cfi_offset 14, -4
 1849              		.loc 1 118 57 view .LVU169
ARM GAS  C:\Users\jisu8\AppData\Local\Temp\cc2cE8l0.s 			page 33


 1850 0002 FFF7FEFF 		bl	Default_Handler
 1851              	.LVL81:
 1852              		.cfi_endproc
 1853              	.LFE208:
 1855              		.section	.text.FPU_IRQHandler,"ax",%progbits
 1856              		.align	1
 1857              		.weak	FPU_IRQHandler
 1858              		.syntax unified
 1859              		.thumb
 1860              		.thumb_func
 1862              	FPU_IRQHandler:
 1863              	.LFB209:
 119:startup_stm32f303xc.c **** __weak void FPU_IRQHandler(void)                       {Default_Handler();}
 1864              		.loc 1 119 56 view -0
 1865              		.cfi_startproc
 1866              		@ args = 0, pretend = 0, frame = 0
 1867              		@ frame_needed = 0, uses_anonymous_args = 0
 1868 0000 08B5     		push	{r3, lr}
 1869              	.LCFI73:
 1870              		.cfi_def_cfa_offset 8
 1871              		.cfi_offset 3, -8
 1872              		.cfi_offset 14, -4
 1873              		.loc 1 119 57 view .LVU171
 1874 0002 FFF7FEFF 		bl	Default_Handler
 1875              	.LVL82:
 1876              		.cfi_endproc
 1877              	.LFE209:
 1879              		.section	.text.SystemTick_Handler,"ax",%progbits
 1880              		.align	1
 1881              		.global	SystemTick_Handler
 1882              		.syntax unified
 1883              		.thumb
 1884              		.thumb_func
 1886              	SystemTick_Handler:
 1887              	.LFB135:
  41:startup_stm32f303xc.c ****     HAL_IncTick();
 1888              		.loc 1 41 1 view -0
 1889              		.cfi_startproc
 1890              		@ args = 0, pretend = 0, frame = 0
 1891              		@ frame_needed = 0, uses_anonymous_args = 0
 1892 0000 08B5     		push	{r3, lr}
 1893              	.LCFI74:
 1894              		.cfi_def_cfa_offset 8
 1895              		.cfi_offset 3, -8
 1896              		.cfi_offset 14, -4
  42:startup_stm32f303xc.c **** }
 1897              		.loc 1 42 5 view .LVU173
 1898 0002 FFF7FEFF 		bl	HAL_IncTick
 1899              	.LVL83:
  43:startup_stm32f303xc.c **** 
 1900              		.loc 1 43 1 is_stmt 0 view .LVU174
 1901 0006 08BD     		pop	{r3, pc}
 1902              		.cfi_endproc
 1903              	.LFE135:
 1905              		.section	.text.SysTick_Handler,"ax",%progbits
 1906              		.align	1
 1907              		.weak	SysTick_Handler
ARM GAS  C:\Users\jisu8\AppData\Local\Temp\cc2cE8l0.s 			page 34


 1908              		.syntax unified
 1909              		.thumb
 1910              		.thumb_func
 1912              	SysTick_Handler:
 1913              	.LFB144:
  53:startup_stm32f303xc.c **** __weak void WWDG_IRQHandler(void)                      {Default_Handler();}
 1914              		.loc 1 53 56 is_stmt 1 view -0
 1915              		.cfi_startproc
 1916              		@ args = 0, pretend = 0, frame = 0
 1917              		@ frame_needed = 0, uses_anonymous_args = 0
 1918 0000 08B5     		push	{r3, lr}
 1919              	.LCFI75:
 1920              		.cfi_def_cfa_offset 8
 1921              		.cfi_offset 3, -8
 1922              		.cfi_offset 14, -4
  53:startup_stm32f303xc.c **** __weak void WWDG_IRQHandler(void)                      {Default_Handler();}
 1923              		.loc 1 53 57 view .LVU176
 1924 0002 FFF7FEFF 		bl	SystemTick_Handler
 1925              	.LVL84:
  53:startup_stm32f303xc.c **** __weak void WWDG_IRQHandler(void)                      {Default_Handler();}
 1926              		.loc 1 53 78 is_stmt 0 view .LVU177
 1927 0006 08BD     		pop	{r3, pc}
 1928              		.cfi_endproc
 1929              	.LFE144:
 1931              		.global	VectorTable
 1932              		.section	.isr_vector,"aw"
 1933              		.align	2
 1936              	VectorTable:
 1937 0000 00000000 		.word	_estack
 1938 0004 00000000 		.word	Reset_Handler
 1939 0008 00000000 		.word	NMI_Handler
 1940 000c 00000000 		.word	HardFault_Handler
 1941 0010 00000000 		.word	MemManage_Handler
 1942 0014 00000000 		.word	BusFault_Handler
 1943 0018 00000000 		.word	UsageFault_Handler
 1944 001c 00000000 		.word	0
 1945 0020 00000000 		.word	0
 1946 0024 00000000 		.word	0
 1947 0028 00000000 		.word	0
 1948 002c 00000000 		.word	SVC_Handler
 1949 0030 00000000 		.word	DebugMon_Handler
 1950 0034 00000000 		.word	0
 1951 0038 00000000 		.word	PendSV_Handler
 1952 003c 00000000 		.word	SysTick_Handler
 1953 0040 00000000 		.word	WWDG_IRQHandler
 1954 0044 00000000 		.word	PVD_IRQHandler
 1955 0048 00000000 		.word	TAMP_STAMP_IRQHandler
 1956 004c 00000000 		.word	RTC_WKUP_IRQHandler
 1957 0050 00000000 		.word	FLASH_IRQHandler
 1958 0054 00000000 		.word	RCC_IRQHandler
 1959 0058 00000000 		.word	EXTI0_IRQHandler
 1960 005c 00000000 		.word	EXTI1_IRQHandler
 1961 0060 00000000 		.word	EXTI2_TSC_IRQHandler
 1962 0064 00000000 		.word	EXTI3_IRQHandler
 1963 0068 00000000 		.word	EXTI4_IRQHandler
 1964 006c 00000000 		.word	DMA1_Channel1_IRQHandler
 1965 0070 00000000 		.word	DMA1_Channel2_IRQHandler
ARM GAS  C:\Users\jisu8\AppData\Local\Temp\cc2cE8l0.s 			page 35


 1966 0074 00000000 		.word	DMA1_Channel3_IRQHandler
 1967 0078 00000000 		.word	DMA1_Channel4_IRQHandler
 1968 007c 00000000 		.word	DMA1_Channel5_IRQHandler
 1969 0080 00000000 		.word	DMA1_Channel6_IRQHandler
 1970 0084 00000000 		.word	DMA1_Channel7_IRQHandler
 1971 0088 00000000 		.word	ADC1_2_IRQHandler
 1972 008c 00000000 		.word	USB_HP_CAN_TX_IRQHandler
 1973 0090 00000000 		.word	USB_LP_CAN_RX0_IRQHandler
 1974 0094 00000000 		.word	CAN_RX1_IRQHandler
 1975 0098 00000000 		.word	CAN_SCE_IRQHandler
 1976 009c 00000000 		.word	EXTI9_5_IRQHandler
 1977 00a0 00000000 		.word	TIM1_BRK_TIM15_IRQHandler
 1978 00a4 00000000 		.word	TIM1_UP_TIM16_IRQHandler
 1979 00a8 00000000 		.word	TIM1_TRG_COM_TIM17_IRQHandler
 1980 00ac 00000000 		.word	TIM1_CC_IRQHandler
 1981 00b0 00000000 		.word	TIM2_IRQHandler
 1982 00b4 00000000 		.word	TIM3_IRQHandler
 1983 00b8 00000000 		.word	TIM4_IRQHandler
 1984 00bc 00000000 		.word	I2C1_EV_IRQHandler
 1985 00c0 00000000 		.word	I2C1_ER_IRQHandler
 1986 00c4 00000000 		.word	I2C2_EV_IRQHandler
 1987 00c8 00000000 		.word	I2C2_ER_IRQHandler
 1988 00cc 00000000 		.word	SPI1_IRQHandler
 1989 00d0 00000000 		.word	SPI2_IRQHandler
 1990 00d4 00000000 		.word	USART1_IRQHandler
 1991 00d8 00000000 		.word	USART2_IRQHandler
 1992 00dc 00000000 		.word	USART3_IRQHandler
 1993 00e0 00000000 		.word	EXTI15_10_IRQHandler
 1994 00e4 00000000 		.word	RTC_Alarm_IRQHandler
 1995 00e8 00000000 		.word	USBWakeUp_RMP_IRQHandler
 1996 00ec 00000000 		.word	TIM8_BRK_IRQHandler
 1997 00f0 00000000 		.word	TIM8_UP_IRQHandler
 1998 00f4 00000000 		.word	TIM8_TRG_COM_IRQHandler
 1999 00f8 00000000 		.word	TIM8_CC_IRQHandler
 2000 00fc 00000000 		.word	ADC3_IRQHandler
 2001 0100 00000000 		.word	0
 2002 0104 00000000 		.word	0
 2003 0108 00000000 		.word	0
 2004 010c 00000000 		.word	SPI3_IRQHandler
 2005 0110 00000000 		.word	UART4_IRQHandler
 2006 0114 00000000 		.word	UART5_IRQHandler
 2007 0118 00000000 		.word	TIM6_DAC_IRQHandler
 2008 011c 00000000 		.word	TIM7_IRQHandler
 2009 0120 00000000 		.word	DMA2_Channel1_IRQHandler
 2010 0124 00000000 		.word	DMA2_Channel2_IRQHandler
 2011 0128 00000000 		.word	DMA2_Channel3_IRQHandler
 2012 012c 00000000 		.word	DMA2_Channel4_IRQHandler
 2013 0130 00000000 		.word	DMA2_Channel5_IRQHandler
 2014 0134 00000000 		.word	ADC4_IRQHandler
 2015 0138 00000000 		.word	0
 2016 013c 00000000 		.word	0
 2017 0140 00000000 		.word	COMP1_2_3_IRQHandler
 2018 0144 00000000 		.word	COMP4_5_6_IRQHandler
 2019 0148 00000000 		.word	COMP7_IRQHandler
 2020 014c 00000000 		.word	0
 2021 0150 00000000 		.word	0
 2022 0154 00000000 		.word	0
ARM GAS  C:\Users\jisu8\AppData\Local\Temp\cc2cE8l0.s 			page 36


 2023 0158 00000000 		.word	0
 2024 015c 00000000 		.word	0
 2025 0160 00000000 		.word	0
 2026 0164 00000000 		.word	0
 2027 0168 00000000 		.word	USB_HP_IRQHandler
 2028 016c 00000000 		.word	USB_LP_IRQHandler
 2029 0170 00000000 		.word	USBWakeUp_RMP_IRQHandler
 2030 0174 00000000 		.word	0
 2031 0178 00000000 		.word	0
 2032 017c 00000000 		.word	0
 2033 0180 00000000 		.word	0
 2034 0184 00000000 		.word	FPU_IRQHandler
 2035              		.text
 2036              	.Letext0:
 2037              		.file 2 "d:\\3.tools\\arm_gcc_toolchain\\arm-none-eabi\\include\\machine\\_default_types.h"
 2038              		.file 3 "d:\\3.tools\\arm_gcc_toolchain\\arm-none-eabi\\include\\sys\\_stdint.h"
 2039              		.file 4 "Drivers/STM32F3xx_HAL_Driver/Inc/stm32f3xx_hal.h"
 2040              		.file 5 "Drivers/CMSIS/Device/ST/STM32F3xx/Include/system_stm32f3xx.h"
ARM GAS  C:\Users\jisu8\AppData\Local\Temp\cc2cE8l0.s 			page 37

